Archive member included because of file (symbol)

./../../../../BitCloud/lib/libHAL_RcbAtm128rfa1_Atmega128rfa1_8Mhz_Gcc.a(appTimer.o)
                              EndDevice_Rcb_Atmega128rfa1_8Mhz_Gcc/Obj/blink.o (HAL_StartAppTimer)
./../../../../BitCloud/lib/libHAL_RcbAtm128rfa1_Atmega128rfa1_8Mhz_Gcc.a(halTaskManager.o)
                              EndDevice_Rcb_Atmega128rfa1_8Mhz_Gcc/Obj/usbFifoFT245RL.o (halTaskFlags4)
./../../../../BitCloud/lib/libHAL_RcbAtm128rfa1_Atmega128rfa1_8Mhz_Gcc.a(usart.o)
                              ./../../../../BitCloud/lib/libHAL_RcbAtm128rfa1_Atmega128rfa1_8Mhz_Gcc.a(halTaskManager.o) (halSigUsartHandler)
./../../../../BitCloud/lib/libHAL_RcbAtm128rfa1_Atmega128rfa1_8Mhz_Gcc.a(irq.o)
                              EndDevice_Rcb_Atmega128rfa1_8Mhz_Gcc/Obj/usbFifoFT245RL.o (HAL_RegisterIrq)
./../../../../BitCloud/lib/libHAL_RcbAtm128rfa1_Atmega128rfa1_8Mhz_Gcc.a(i2cPacket.o)
                              ./../../../../BitCloud/lib/libHAL_RcbAtm128rfa1_Atmega128rfa1_8Mhz_Gcc.a(halTaskManager.o) (halSig2WireSerialHandler)
./../../../../BitCloud/lib/libHAL_RcbAtm128rfa1_Atmega128rfa1_8Mhz_Gcc.a(eeprom.o)
                              EndDevice_Rcb_Atmega128rfa1_8Mhz_Gcc/Obj/pdsWriteData.o (HAL_ReadEeprom)
./../../../../BitCloud/lib/libHAL_RcbAtm128rfa1_Atmega128rfa1_8Mhz_Gcc.a(timer.o)
                              ./../../../../BitCloud/lib/libHAL_RcbAtm128rfa1_Atmega128rfa1_8Mhz_Gcc.a(appTimer.o) (halAddTimer)
./../../../../BitCloud/lib/libHAL_RcbAtm128rfa1_Atmega128rfa1_8Mhz_Gcc.a(adc.o)
                              ./../../../../BitCloud/lib/libHAL_RcbAtm128rfa1_Atmega128rfa1_8Mhz_Gcc.a(halTaskManager.o) (halSigAdcHandler)
./../../../../BitCloud/lib/libHAL_RcbAtm128rfa1_Atmega128rfa1_8Mhz_Gcc.a(spi.o)
                              ./../../../../BitCloud/lib/libHAL_RcbAtm128rfa1_Atmega128rfa1_8Mhz_Gcc.a(halTaskManager.o) (halSpiRxByteComplete)
./../../../../BitCloud/lib/libHAL_RcbAtm128rfa1_Atmega128rfa1_8Mhz_Gcc.a(halSleepTimerClock.o)
                              ./../../../../BitCloud/lib/libHAL_RcbAtm128rfa1_Atmega128rfa1_8Mhz_Gcc.a(appTimer.o) (halGetTimeOfSleepTimer)
./../../../../BitCloud/lib/libHAL_RcbAtm128rfa1_Atmega128rfa1_8Mhz_Gcc.a(halSecurityModule.o)
                              ./../../../../BitCloud/lib/libHAL_RcbAtm128rfa1_Atmega128rfa1_8Mhz_Gcc.a(halTaskManager.o) (halSmRequestHandler)
./../../../../BitCloud/lib/libHAL_RcbAtm128rfa1_Atmega128rfa1_8Mhz_Gcc.a(halAppClock.o)
                              ./../../../../BitCloud/lib/libHAL_RcbAtm128rfa1_Atmega128rfa1_8Mhz_Gcc.a(appTimer.o) (halGetTimeOfAppTimer)
./../../../../BitCloud/lib/libHAL_RcbAtm128rfa1_Atmega128rfa1_8Mhz_Gcc.a(halUsart.o)
                              ./../../../../BitCloud/lib/libHAL_RcbAtm128rfa1_Atmega128rfa1_8Mhz_Gcc.a(usart.o) (halSetUsartConfig)
./../../../../BitCloud/lib/libHAL_RcbAtm128rfa1_Atmega128rfa1_8Mhz_Gcc.a(halIrq.o)
                              ./../../../../BitCloud/lib/libHAL_RcbAtm128rfa1_Atmega128rfa1_8Mhz_Gcc.a(irq.o) (halSetIrqConfig)
./../../../../BitCloud/lib/libHAL_RcbAtm128rfa1_Atmega128rfa1_8Mhz_Gcc.a(halTwi.o)
                              ./../../../../BitCloud/lib/libHAL_RcbAtm128rfa1_Atmega128rfa1_8Mhz_Gcc.a(i2cPacket.o) (halInitI2c)
./../../../../BitCloud/lib/libHAL_RcbAtm128rfa1_Atmega128rfa1_8Mhz_Gcc.a(halEeprom.o)
                              ./../../../../BitCloud/lib/libHAL_RcbAtm128rfa1_Atmega128rfa1_8Mhz_Gcc.a(eeprom.o) (halEepromWrite)
./../../../../BitCloud/lib/libHAL_RcbAtm128rfa1_Atmega128rfa1_8Mhz_Gcc.a(halSleep.o)
                              ./../../../../BitCloud/lib/libHAL_RcbAtm128rfa1_Atmega128rfa1_8Mhz_Gcc.a(halSleepTimerClock.o) (halPowerOn)
./../../../../BitCloud/lib/libHAL_RcbAtm128rfa1_Atmega128rfa1_8Mhz_Gcc.a(halAdc.o)
                              ./../../../../BitCloud/lib/libHAL_RcbAtm128rfa1_Atmega128rfa1_8Mhz_Gcc.a(adc.o) (halOpenAdc)
./../../../../BitCloud/lib/libHAL_RcbAtm128rfa1_Atmega128rfa1_8Mhz_Gcc.a(halSpi.o)
                              ./../../../../BitCloud/lib/libHAL_RcbAtm128rfa1_Atmega128rfa1_8Mhz_Gcc.a(spi.o) (halSetUsartSpiConfig)
./../../../../BitCloud/lib/libHAL_RcbAtm128rfa1_Atmega128rfa1_8Mhz_Gcc.a(calibration.o)
                              ./../../../../BitCloud/lib/libHAL_RcbAtm128rfa1_Atmega128rfa1_8Mhz_Gcc.a(halSleep.o) (halStartingCalibrate)
./../../../../BitCloud/lib/libHAL_RcbAtm128rfa1_Atmega128rfa1_8Mhz_Gcc.a(halW1.o)
                              ./../../../../BitCloud/lib/libHAL_RcbAtm128rfa1_Atmega128rfa1_8Mhz_Gcc.a(halAdc.o) (__delay_us)
./../../../../BitCloud/lib/libHAL_RcbAtm128rfa1_Atmega128rfa1_8Mhz_Gcc.a(halCalibration.o)
                              ./../../../../BitCloud/lib/libHAL_RcbAtm128rfa1_Atmega128rfa1_8Mhz_Gcc.a(calibration.o) (halMeasurement)
./../../../../BitCloud/lib/libHAL_RcbAtm128rfa1_Atmega128rfa1_8Mhz_Gcc.a(sleepTimer.o)
                              ./../../../../BitCloud/lib/libHAL_RcbAtm128rfa1_Atmega128rfa1_8Mhz_Gcc.a(halTaskManager.o) (halAsyncTimerHandler)
./../../../../BitCloud/lib/libHAL_RcbAtm128rfa1_Atmega128rfa1_8Mhz_Gcc.a(sleep.o)
                              ./../../../../BitCloud/lib/libHAL_RcbAtm128rfa1_Atmega128rfa1_8Mhz_Gcc.a(halSleepTimerClock.o) (halSleepControl)
./../../../../BitCloud/lib/libHAL_RcbAtm128rfa1_Atmega128rfa1_8Mhz_Gcc.a(halClkCtrl.o)
                              ./../../../../BitCloud/lib/libHAL_RcbAtm128rfa1_Atmega128rfa1_8Mhz_Gcc.a(calibration.o) (halGetClockSource)
./../../../../BitCloud/lib/libBc_EndDevice_Atmega128rfa1_Atmega128rfa1_Gcc.a(aps.o)
                              EndDevice_Rcb_Atmega128rfa1_8Mhz_Gcc/Obj/blink.o (APS_DataReq)
./../../../../BitCloud/lib/libBc_EndDevice_Atmega128rfa1_Atmega128rfa1_Gcc.a(macenvPib.o)
                              ./../../../../BitCloud/lib/libBc_EndDevice_Atmega128rfa1_Atmega128rfa1_Gcc.a(aps.o) (MAC_GetExtAddr)
./../../../../BitCloud/lib/libBc_EndDevice_Atmega128rfa1_Atmega128rfa1_Gcc.a(nwk.o)
                              ./../../../../BitCloud/lib/libBc_EndDevice_Atmega128rfa1_Atmega128rfa1_Gcc.a(aps.o) (NWK_GetShortAddr)
./../../../../BitCloud/lib/libBc_EndDevice_Atmega128rfa1_Atmega128rfa1_Gcc.a(phyRxTxIndicator.o)
                              ./../../../../BitCloud/lib/libHAL_RcbAtm128rfa1_Atmega128rfa1_8Mhz_Gcc.a(halSleep.o) (phyRxTxSwitcherOn)
./../../../../BitCloud/lib/libBc_EndDevice_Atmega128rfa1_Atmega128rfa1_Gcc.a(phyStateMachine.o)
                              ./../../../../BitCloud/lib/libBc_EndDevice_Atmega128rfa1_Atmega128rfa1_Gcc.a(phyRxTxIndicator.o) (__wasRequest)
./../../../../BitCloud/lib/libBc_EndDevice_Atmega128rfa1_Atmega128rfa1_Gcc.a(queue.o)
                              ./../../../../BitCloud/lib/libHAL_RcbAtm128rfa1_Atmega128rfa1_8Mhz_Gcc.a(halSecurityModule.o) (deleteHeadQueueElem)
./../../../../BitCloud/lib/libBc_EndDevice_Atmega128rfa1_Atmega128rfa1_Gcc.a(sysDuplicateTable.o)
                              ./../../../../BitCloud/lib/libBc_EndDevice_Atmega128rfa1_Atmega128rfa1_Gcc.a(aps.o) (SYS_DuplicateTableReset)
./../../../../BitCloud/lib/libBc_EndDevice_Atmega128rfa1_Atmega128rfa1_Gcc.a(sysEvents.o)
                              EndDevice_Rcb_Atmega128rfa1_8Mhz_Gcc/Obj/pdsWriteData.o (SYS_PostEvent)
./../../../../BitCloud/lib/libBc_EndDevice_Atmega128rfa1_Atmega128rfa1_Gcc.a(sysTimer.o)
                              ./../../../../BitCloud/lib/libBc_EndDevice_Atmega128rfa1_Atmega128rfa1_Gcc.a(aps.o) (SYS_StartTimer)
./../../../../BitCloud/lib/libBc_EndDevice_Atmega128rfa1_Atmega128rfa1_Gcc.a(taskManager.o)
                              EndDevice_Rcb_Atmega128rfa1_8Mhz_Gcc/Obj/blink.o (SYS_RunTask)
./../../../../BitCloud/lib/libBc_EndDevice_Atmega128rfa1_Atmega128rfa1_Gcc.a(zdo.o)
                              EndDevice_Rcb_Atmega128rfa1_8Mhz_Gcc/Obj/blink.o (ZDO_GetNwkStatus)
./../../../../BitCloud/lib/libBc_EndDevice_Atmega128rfa1_Atmega128rfa1_Gcc.a(bcSysSleep.o)
                              ./../../../../BitCloud/lib/libBc_EndDevice_Atmega128rfa1_Atmega128rfa1_Gcc.a(zdo.o) (SYS_Sleep)
./../../../../BitCloud/lib/libBc_EndDevice_Atmega128rfa1_Atmega128rfa1_Gcc.a(macMem.o)
                              ./../../../../BitCloud/lib/libBc_EndDevice_Atmega128rfa1_Atmega128rfa1_Gcc.a(phyRxTxIndicator.o) (macMem)
./../../../../BitCloud/lib/libBc_EndDevice_Atmega128rfa1_Atmega128rfa1_Gcc.a(machwdManager.o)
                              ./../../../../BitCloud/lib/libBc_EndDevice_Atmega128rfa1_Atmega128rfa1_Gcc.a(zdo.o) (RF_RandomReq)
./../../../../BitCloud/lib/libBc_EndDevice_Atmega128rfa1_Atmega128rfa1_Gcc.a(machwdRegAccessHandler.o)
                              ./../../../../BitCloud/lib/libBc_EndDevice_Atmega128rfa1_Atmega128rfa1_Gcc.a(machwdManager.o) (machwdRegAccessReqHandler)
./../../../../BitCloud/lib/libBc_EndDevice_Atmega128rfa1_Atmega128rfa1_Gcc.a(machwdResetHandler.o)
                              ./../../../../BitCloud/lib/libBc_EndDevice_Atmega128rfa1_Atmega128rfa1_Gcc.a(machwdManager.o) (machwdReset)
./../../../../BitCloud/lib/libBc_EndDevice_Atmega128rfa1_Atmega128rfa1_Gcc.a(machwdRndHandler.o)
                              ./../../../../BitCloud/lib/libBc_EndDevice_Atmega128rfa1_Atmega128rfa1_Gcc.a(machwdManager.o) (machwdRndReqHandler)
./../../../../BitCloud/lib/libBc_EndDevice_Atmega128rfa1_Atmega128rfa1_Gcc.a(machwdRxBuffer.o)
                              ./../../../../BitCloud/lib/libBc_EndDevice_Atmega128rfa1_Atmega128rfa1_Gcc.a(machwdResetHandler.o) (machwdResetRxBuffer)
./../../../../BitCloud/lib/libBc_EndDevice_Atmega128rfa1_Atmega128rfa1_Gcc.a(machwdRxFrameHandler.o)
                              ./../../../../BitCloud/lib/libBc_EndDevice_Atmega128rfa1_Atmega128rfa1_Gcc.a(machwdManager.o) (machwdRxFrameTaskHandler)
./../../../../BitCloud/lib/libBc_EndDevice_Atmega128rfa1_Atmega128rfa1_Gcc.a(machwdSetHandler.o)
                              ./../../../../BitCloud/lib/libBc_EndDevice_Atmega128rfa1_Atmega128rfa1_Gcc.a(machwdManager.o) (machwdSetReqHandler)
./../../../../BitCloud/lib/libBc_EndDevice_Atmega128rfa1_Atmega128rfa1_Gcc.a(machwdTrxCtrl.o)
                              ./../../../../BitCloud/lib/libBc_EndDevice_Atmega128rfa1_Atmega128rfa1_Gcc.a(machwdSetHandler.o) (machwdSendTrxCmd)
./../../../../BitCloud/lib/libBc_EndDevice_Atmega128rfa1_Atmega128rfa1_Gcc.a(machwdTrxHandler.o)
                              ./../../../../BitCloud/lib/libBc_EndDevice_Atmega128rfa1_Atmega128rfa1_Gcc.a(machwdManager.o) (machwdTrxReqHandler)
./../../../../BitCloud/lib/libBc_EndDevice_Atmega128rfa1_Atmega128rfa1_Gcc.a(machwdTxFrameHandler.o)
                              ./../../../../BitCloud/lib/libBc_EndDevice_Atmega128rfa1_Atmega128rfa1_Gcc.a(machwdManager.o) (machwdTxFrameReqHandler)
./../../../../BitCloud/lib/libBc_EndDevice_Atmega128rfa1_Atmega128rfa1_Gcc.a(machwiManager.o)
                              ./../../../../BitCloud/lib/libBc_EndDevice_Atmega128rfa1_Atmega128rfa1_Gcc.a(taskManager.o) (MAC_HWI_TaskHandler)
./../../../../BitCloud/lib/libBc_EndDevice_Atmega128rfa1_Atmega128rfa1_Gcc.a(machwiPanServer.o)
                              ./../../../../BitCloud/lib/libBc_EndDevice_Atmega128rfa1_Atmega128rfa1_Gcc.a(machwdRxFrameHandler.o) (MACHWD_DataInd)
./../../../../BitCloud/lib/libBc_EndDevice_Atmega128rfa1_Atmega128rfa1_Gcc.a(machwiPollHandler.o)
                              ./../../../../BitCloud/lib/libBc_EndDevice_Atmega128rfa1_Atmega128rfa1_Gcc.a(machwiPanServer.o) (machwiDataIndication)
./../../../../BitCloud/lib/libBc_EndDevice_Atmega128rfa1_Atmega128rfa1_Gcc.a(machwiResetHandler.o)
                              ./../../../../BitCloud/lib/libBc_EndDevice_Atmega128rfa1_Atmega128rfa1_Gcc.a(machwiManager.o) (machwiResetReqHandler)
./../../../../BitCloud/lib/libBc_EndDevice_Atmega128rfa1_Atmega128rfa1_Gcc.a(machwiRxEnableHandler.o)
                              ./../../../../BitCloud/lib/libBc_EndDevice_Atmega128rfa1_Atmega128rfa1_Gcc.a(machwiManager.o) (machwiRxEnableReqHandler)
./../../../../BitCloud/lib/libBc_EndDevice_Atmega128rfa1_Atmega128rfa1_Gcc.a(machwiScanHandler.o)
                              ./../../../../BitCloud/lib/libBc_EndDevice_Atmega128rfa1_Atmega128rfa1_Gcc.a(machwiManager.o) (machwiScanReqHandler)
./../../../../BitCloud/lib/libBc_EndDevice_Atmega128rfa1_Atmega128rfa1_Gcc.a(machwiSetGetHandler.o)
                              ./../../../../BitCloud/lib/libBc_EndDevice_Atmega128rfa1_Atmega128rfa1_Gcc.a(machwiManager.o) (machwiGetReqHandler)
./../../../../BitCloud/lib/libBc_EndDevice_Atmega128rfa1_Atmega128rfa1_Gcc.a(machwiSwitchRxCtrl.o)
                              ./../../../../BitCloud/lib/libBc_EndDevice_Atmega128rfa1_Atmega128rfa1_Gcc.a(machwiPollHandler.o) (machwiSwitchRxAccordToRxOnWhenIdle)
./../../../../BitCloud/lib/libBc_EndDevice_Atmega128rfa1_Atmega128rfa1_Gcc.a(phyInit.o)
                              ./../../../../BitCloud/lib/libBc_EndDevice_Atmega128rfa1_Atmega128rfa1_Gcc.a(taskManager.o) (RF_Init)
./../../../../BitCloud/lib/libBc_EndDevice_Atmega128rfa1_Atmega128rfa1_Gcc.a(phyRegAccess.o)
                              ./../../../../BitCloud/lib/libBc_EndDevice_Atmega128rfa1_Atmega128rfa1_Gcc.a(machwdRegAccessHandler.o) (PHY_RegWriteReq)
./../../../../BitCloud/lib/libBc_EndDevice_Atmega128rfa1_Atmega128rfa1_Gcc.a(phyReset.o)
                              ./../../../../BitCloud/lib/libBc_EndDevice_Atmega128rfa1_Atmega128rfa1_Gcc.a(machwdResetHandler.o) (PHY_Reset)
./../../../../BitCloud/lib/libBc_EndDevice_Atmega128rfa1_Atmega128rfa1_Gcc.a(phyRfIrqDispatcher.o)
                              ./../../../../BitCloud/lib/libBc_EndDevice_Atmega128rfa1_Atmega128rfa1_Gcc.a(phyRegAccess.o) (phyRestoreRfIrqMask)
./../../../../BitCloud/lib/libBc_EndDevice_Atmega128rfa1_Atmega128rfa1_Gcc.a(phyRnd.o)
                              ./../../../../BitCloud/lib/libBc_EndDevice_Atmega128rfa1_Atmega128rfa1_Gcc.a(machwdRndHandler.o) (PHY_RndReq)
./../../../../BitCloud/lib/libBc_EndDevice_Atmega128rfa1_Atmega128rfa1_Gcc.a(phyRxFrame.o)
                              ./../../../../BitCloud/lib/libBc_EndDevice_Atmega128rfa1_Atmega128rfa1_Gcc.a(machwdRxFrameHandler.o) (PHY_DownloadFrame)
./../../../../BitCloud/lib/libBc_EndDevice_Atmega128rfa1_Atmega128rfa1_Gcc.a(phySet.o)
                              ./../../../../BitCloud/lib/libBc_EndDevice_Atmega128rfa1_Atmega128rfa1_Gcc.a(machwdResetHandler.o) (PHY_SetReq)
./../../../../BitCloud/lib/libBc_EndDevice_Atmega128rfa1_Atmega128rfa1_Gcc.a(phySetTrxState.o)
                              ./../../../../BitCloud/lib/libBc_EndDevice_Atmega128rfa1_Atmega128rfa1_Gcc.a(machwdTrxCtrl.o) (PHY_SetTrxStateReq)
./../../../../BitCloud/lib/libBc_EndDevice_Atmega128rfa1_Atmega128rfa1_Gcc.a(phyTxFrame.o)
                              ./../../../../BitCloud/lib/libBc_EndDevice_Atmega128rfa1_Atmega128rfa1_Gcc.a(machwdTxFrameHandler.o) (PHY_DataReq)
./../../../../BitCloud/lib/libBc_EndDevice_Atmega128rfa1_Atmega128rfa1_Gcc.a(machwdCalibHandler.o)
                              ./../../../../BitCloud/lib/libBc_EndDevice_Atmega128rfa1_Atmega128rfa1_Gcc.a(machwdManager.o) (machwdCalibReqHandler)
./../../../../BitCloud/lib/libBc_EndDevice_Atmega128rfa1_Atmega128rfa1_Gcc.a(machwdEdHandler.o)
                              ./../../../../BitCloud/lib/libBc_EndDevice_Atmega128rfa1_Atmega128rfa1_Gcc.a(machwdManager.o) (machwdEdReqHandler)
./../../../../BitCloud/lib/libBc_EndDevice_Atmega128rfa1_Atmega128rfa1_Gcc.a(machwdFrameRoutine.o)
                              ./../../../../BitCloud/lib/libBc_EndDevice_Atmega128rfa1_Atmega128rfa1_Gcc.a(machwdRxFrameHandler.o) (machwdParseFrame)
./../../../../BitCloud/lib/libBc_EndDevice_Atmega128rfa1_Atmega128rfa1_Gcc.a(machwdHandlerCtrl.o)
                              ./../../../../BitCloud/lib/libBc_EndDevice_Atmega128rfa1_Atmega128rfa1_Gcc.a(machwdManager.o) (machwdGetHandlerId)
./../../../../BitCloud/lib/libBc_EndDevice_Atmega128rfa1_Atmega128rfa1_Gcc.a(machwiAssociateHandler.o)
                              ./../../../../BitCloud/lib/libBc_EndDevice_Atmega128rfa1_Atmega128rfa1_Gcc.a(machwiResetHandler.o) (machwiResetAssociateHandler)
./../../../../BitCloud/lib/libBc_EndDevice_Atmega128rfa1_Atmega128rfa1_Gcc.a(machwiDataHandler.o)
                              ./../../../../BitCloud/lib/libBc_EndDevice_Atmega128rfa1_Atmega128rfa1_Gcc.a(machwiPollHandler.o) (machwiConvertmachwdDataConfirmTypes)
./../../../../BitCloud/lib/libBc_EndDevice_Atmega128rfa1_Atmega128rfa1_Gcc.a(phyCalib.o)
                              ./../../../../BitCloud/lib/libBc_EndDevice_Atmega128rfa1_Atmega128rfa1_Gcc.a(machwdCalibHandler.o) (PHY_CalibReq)
./../../../../BitCloud/lib/libBc_EndDevice_Atmega128rfa1_Atmega128rfa1_Gcc.a(phyEd.o)
                              ./../../../../BitCloud/lib/libBc_EndDevice_Atmega128rfa1_Atmega128rfa1_Gcc.a(machwdEdHandler.o) (PHY_EdReq)
./../../../../BitCloud/lib/libBc_EndDevice_Atmega128rfa1_Atmega128rfa1_Gcc.a(phyRtimerIrqDispatcher.o)
                              ./../../../../BitCloud/lib/libBc_EndDevice_Atmega128rfa1_Atmega128rfa1_Gcc.a(phyRxFrame.o) (phySetRTimerSource)
./../../../../BitCloud/lib/libHAL_RcbAtm128rfa1_Atmega128rfa1_8Mhz_Gcc.a(halDelay.o)
                              ./../../../../BitCloud/lib/libBc_EndDevice_Atmega128rfa1_Atmega128rfa1_Gcc.a(phyInit.o) (HAL_Delay)
./../../../../BitCloud/lib/libHAL_RcbAtm128rfa1_Atmega128rfa1_8Mhz_Gcc.a(halInit.o)
                              ./../../../../BitCloud/lib/libBc_EndDevice_Atmega128rfa1_Atmega128rfa1_Gcc.a(taskManager.o) (HAL_Init)
./../../../../BitCloud/lib/libHAL_RcbAtm128rfa1_Atmega128rfa1_8Mhz_Gcc.a(halRfCtrl.o)
                              ./../../../../BitCloud/lib/libBc_EndDevice_Atmega128rfa1_Atmega128rfa1_Gcc.a(phyInit.o) (HAL_EnableRxTxSwitcher)
./../../../../BitCloud/lib/libHAL_RcbAtm128rfa1_Atmega128rfa1_8Mhz_Gcc.a(halUid.o)
                              ./../../../../BitCloud/lib/libHAL_RcbAtm128rfa1_Atmega128rfa1_8Mhz_Gcc.a(halInit.o) (halReadUid)
./../../../../BitCloud/lib/libHAL_RcbAtm128rfa1_Atmega128rfa1_8Mhz_Gcc.a(halMacIsr.o)
                              ./../../../../BitCloud/lib/libBc_EndDevice_Atmega128rfa1_Atmega128rfa1_Gcc.a(phyInit.o) (HAL_InitMacIsr)
d:/program files/atmel/avr studio 5.1/extensions/atmel/avrgcc/3.3.1.27/avrtoolchain/bin/../lib/gcc/avr/4.5.1/avr51\libgcc.a(_mulsi3.o)
                              ./../../../../BitCloud/lib/libHAL_RcbAtm128rfa1_Atmega128rfa1_8Mhz_Gcc.a(halSleepTimerClock.o) (__mulsi3)
d:/program files/atmel/avr studio 5.1/extensions/atmel/avrgcc/3.3.1.27/avrtoolchain/bin/../lib/gcc/avr/4.5.1/avr51\libgcc.a(_udivmodqi4.o)
                              ./../../../../BitCloud/lib/libBc_EndDevice_Atmega128rfa1_Atmega128rfa1_Gcc.a(aps.o) (__udivmodqi4)
d:/program files/atmel/avr studio 5.1/extensions/atmel/avrgcc/3.3.1.27/avrtoolchain/bin/../lib/gcc/avr/4.5.1/avr51\libgcc.a(_udivmodhi4.o)
                              EndDevice_Rcb_Atmega128rfa1_8Mhz_Gcc/Obj/pdsInit.o (__udivmodhi4)
d:/program files/atmel/avr studio 5.1/extensions/atmel/avrgcc/3.3.1.27/avrtoolchain/bin/../lib/gcc/avr/4.5.1/avr51\libgcc.a(_udivmodsi4.o)
                              ./../../../../BitCloud/lib/libHAL_RcbAtm128rfa1_Atmega128rfa1_8Mhz_Gcc.a(sleepTimer.o) (__udivmodsi4)
d:/program files/atmel/avr studio 5.1/extensions/atmel/avrgcc/3.3.1.27/avrtoolchain/bin/../lib/gcc/avr/4.5.1/avr51\libgcc.a(_prologue.o)
                              EndDevice_Rcb_Atmega128rfa1_8Mhz_Gcc/Obj/blink.o (__prologue_saves__)
d:/program files/atmel/avr studio 5.1/extensions/atmel/avrgcc/3.3.1.27/avrtoolchain/bin/../lib/gcc/avr/4.5.1/avr51\libgcc.a(_epilogue.o)
                              EndDevice_Rcb_Atmega128rfa1_8Mhz_Gcc/Obj/blink.o (__epilogue_restores__)
d:/program files/atmel/avr studio 5.1/extensions/atmel/avrgcc/3.3.1.27/avrtoolchain/bin/../lib/gcc/avr/4.5.1/avr51\libgcc.a(_exit.o)
                              d:/program files/atmel/avr studio 5.1/extensions/atmel/avrgcc/3.3.1.27/avrtoolchain/bin/../lib/gcc/avr/4.5.1/../../../../avr/lib/avr51/crtm128rfa1.o (exit)
d:/program files/atmel/avr studio 5.1/extensions/atmel/avrgcc/3.3.1.27/avrtoolchain/bin/../lib/gcc/avr/4.5.1/avr51\libgcc.a(_tablejump.o)
                              ./../../../../BitCloud/lib/libBc_EndDevice_Atmega128rfa1_Atmega128rfa1_Gcc.a(macenvPib.o) (__tablejump2__)
d:/program files/atmel/avr studio 5.1/extensions/atmel/avrgcc/3.3.1.27/avrtoolchain/bin/../lib/gcc/avr/4.5.1/avr51\libgcc.a(_copy_data.o)
                              EndDevice_Rcb_Atmega128rfa1_8Mhz_Gcc/Obj/blink.o (__do_copy_data)
d:/program files/atmel/avr studio 5.1/extensions/atmel/avrgcc/3.3.1.27/avrtoolchain/bin/../lib/gcc/avr/4.5.1/avr51\libgcc.a(_clear_bss.o)
                              EndDevice_Rcb_Atmega128rfa1_8Mhz_Gcc/Obj/blink.o (__do_clear_bss)
d:/program files/atmel/avr studio 5.1/extensions/atmel/avrgcc/3.3.1.27/avrtoolchain/bin/../lib/gcc/avr/4.5.1/avr51\libgcc.a(_ashldi3.o)
                              ./../../../../BitCloud/lib/libHAL_RcbAtm128rfa1_Atmega128rfa1_8Mhz_Gcc.a(appTimer.o) (__ashldi3)
d:/program files/atmel/avr studio 5.1/extensions/atmel/avrgcc/3.3.1.27/avrtoolchain/bin/../lib/gcc/avr/4.5.1/../../../../avr/lib/avr51\libc.a(rand.o)
                              ./../../../../BitCloud/lib/libBc_EndDevice_Atmega128rfa1_Atmega128rfa1_Gcc.a(aps.o) (rand)
d:/program files/atmel/avr studio 5.1/extensions/atmel/avrgcc/3.3.1.27/avrtoolchain/bin/../lib/gcc/avr/4.5.1/../../../../avr/lib/avr51\libc.a(memcpy_P.o)
                              EndDevice_Rcb_Atmega128rfa1_8Mhz_Gcc/Obj/pdsInit.o (memcpy_P)
d:/program files/atmel/avr studio 5.1/extensions/atmel/avrgcc/3.3.1.27/avrtoolchain/bin/../lib/gcc/avr/4.5.1/../../../../avr/lib/avr51\libc.a(memcmp.o)
                              ./../../../../BitCloud/lib/libBc_EndDevice_Atmega128rfa1_Atmega128rfa1_Gcc.a(aps.o) (memcmp)
d:/program files/atmel/avr studio 5.1/extensions/atmel/avrgcc/3.3.1.27/avrtoolchain/bin/../lib/gcc/avr/4.5.1/../../../../avr/lib/avr51\libc.a(memcpy.o)
                              EndDevice_Rcb_Atmega128rfa1_8Mhz_Gcc/Obj/configServer.o (memcpy)
d:/program files/atmel/avr studio 5.1/extensions/atmel/avrgcc/3.3.1.27/avrtoolchain/bin/../lib/gcc/avr/4.5.1/../../../../avr/lib/avr51\libc.a(memmove.o)
                              ./../../../../BitCloud/lib/libBc_EndDevice_Atmega128rfa1_Atmega128rfa1_Gcc.a(nwk.o) (memmove)
d:/program files/atmel/avr studio 5.1/extensions/atmel/avrgcc/3.3.1.27/avrtoolchain/bin/../lib/gcc/avr/4.5.1/../../../../avr/lib/avr51\libc.a(memset.o)
                              EndDevice_Rcb_Atmega128rfa1_8Mhz_Gcc/Obj/pdsMemAccess.o (memset)
d:/program files/atmel/avr studio 5.1/extensions/atmel/avrgcc/3.3.1.27/avrtoolchain/bin/../lib/gcc/avr/4.5.1/../../../../avr/lib/avr51\libc.a(strcpy.o)
                              EndDevice_Rcb_Atmega128rfa1_8Mhz_Gcc/Obj/blink.o (strcpy)
d:/program files/atmel/avr studio 5.1/extensions/atmel/avrgcc/3.3.1.27/avrtoolchain/bin/../lib/gcc/avr/4.5.1/avr51\libgcc.a(_divmodsi4.o)
                              d:/program files/atmel/avr studio 5.1/extensions/atmel/avrgcc/3.3.1.27/avrtoolchain/bin/../lib/gcc/avr/4.5.1/../../../../avr/lib/avr51\libc.a(rand.o) (__divmodsi4)

Allocating common symbols
Common symbol       size              file

stackBuffers        0x714             EndDevice_Rcb_Atmega128rfa1_8Mhz_Gcc/Obj/csMem.o
readBatteryDataCallback
                    0x2               EndDevice_Rcb_Atmega128rfa1_8Mhz_Gcc/Obj/fakeBSP.o
csAIB               0x2               EndDevice_Rcb_Atmega128rfa1_8Mhz_Gcc/Obj/csMem.o
macMem              0x73              ./../../../../BitCloud/lib/libBc_EndDevice_Atmega128rfa1_Atmega128rfa1_Gcc.a(macMem.o)
extHandler          0x2               ./../../../../BitCloud/lib/libHAL_RcbAtm128rfa1_Atmega128rfa1_8Mhz_Gcc.a(halTaskManager.o)
nwkMem              0xfc              ./../../../../BitCloud/lib/libBc_EndDevice_Atmega128rfa1_Atmega128rfa1_Gcc.a(nwk.o)
csZIB               0x2f              EndDevice_Rcb_Atmega128rfa1_8Mhz_Gcc/Obj/csMem.o
csPIB               0x32              EndDevice_Rcb_Atmega128rfa1_8Mhz_Gcc/Obj/csMem.o
halEepromParams     0x6               ./../../../../BitCloud/lib/libHAL_RcbAtm128rfa1_Atmega128rfa1_8Mhz_Gcc.a(eeprom.o)
zdoMem              0x3bd             ./../../../../BitCloud/lib/libBc_EndDevice_Atmega128rfa1_Atmega128rfa1_Gcc.a(zdo.o)
blink               0x2               EndDevice_Rcb_Atmega128rfa1_8Mhz_Gcc/Obj/blink.o
readTemperatureDataCallback
                    0x2               EndDevice_Rcb_Atmega128rfa1_8Mhz_Gcc/Obj/fakeBSP.o
csSIB               0x3c              EndDevice_Rcb_Atmega128rfa1_8Mhz_Gcc/Obj/csMem.o
__energyLevel       0x1               ./../../../../BitCloud/lib/libBc_EndDevice_Atmega128rfa1_Atmega128rfa1_Gcc.a(machwdEdHandler.o)
rxBuffer            0x1f4             EndDevice_Rcb_Atmega128rfa1_8Mhz_Gcc/Obj/blink.o
apsMem              0xbc              ./../../../../BitCloud/lib/libBc_EndDevice_Atmega128rfa1_Atmega128rfa1_Gcc.a(aps.o)
rxSlaveBuffer       0xa               ./../../../../BitCloud/lib/libHAL_RcbAtm128rfa1_Atmega128rfa1_8Mhz_Gcc.a(halSpi.o)
txBuffer            0x21              ./../../../../BitCloud/lib/libBc_EndDevice_Atmega128rfa1_Atmega128rfa1_Gcc.a(machwdFrameRoutine.o)
__rtimer            0x5               ./../../../../BitCloud/lib/libHAL_RcbAtm128rfa1_Atmega128rfa1_8Mhz_Gcc.a(halMacIsr.o)
pdsMem              0x2e              EndDevice_Rcb_Atmega128rfa1_8Mhz_Gcc/Obj/pdsMem.o
dataBuffers         0x12              EndDevice_Rcb_Atmega128rfa1_8Mhz_Gcc/Obj/blink.o
__necessaryPhyTrxState
                    0x1               ./../../../../BitCloud/lib/libBc_EndDevice_Atmega128rfa1_Atmega128rfa1_Gcc.a(phySetTrxState.o)
__sourceHandler     0x1               ./../../../../BitCloud/lib/libBc_EndDevice_Atmega128rfa1_Atmega128rfa1_Gcc.a(machwdTrxCtrl.o)
readLightDataCallback
                    0x2               EndDevice_Rcb_Atmega128rfa1_8Mhz_Gcc/Obj/fakeBSP.o
halEepromDone       0x2               ./../../../../BitCloud/lib/libHAL_RcbAtm128rfa1_Atmega128rfa1_8Mhz_Gcc.a(eeprom.o)
csNIB               0x86              EndDevice_Rcb_Atmega128rfa1_8Mhz_Gcc/Obj/csMem.o

Discarded input sections

 .data          0x00000000        0x0 d:/program files/atmel/avr studio 5.1/extensions/atmel/avrgcc/3.3.1.27/avrtoolchain/bin/../lib/gcc/avr/4.5.1/../../../../avr/lib/avr51/crtm128rfa1.o
 .bss           0x00000000        0x0 d:/program files/atmel/avr studio 5.1/extensions/atmel/avrgcc/3.3.1.27/avrtoolchain/bin/../lib/gcc/avr/4.5.1/../../../../avr/lib/avr51/crtm128rfa1.o
 .init9         0x00000000        0x8 d:/program files/atmel/avr studio 5.1/extensions/atmel/avrgcc/3.3.1.27/avrtoolchain/bin/../lib/gcc/avr/4.5.1/../../../../avr/lib/avr51/crtm128rfa1.o
 .text          0x00000000        0x0 EndDevice_Rcb_Atmega128rfa1_8Mhz_Gcc/Obj/blink.o
 .text          0x00000000        0x0 EndDevice_Rcb_Atmega128rfa1_8Mhz_Gcc/Obj/pdsMem.o
 .data          0x00000000        0x0 EndDevice_Rcb_Atmega128rfa1_8Mhz_Gcc/Obj/pdsMem.o
 .bss           0x00000000        0x0 EndDevice_Rcb_Atmega128rfa1_8Mhz_Gcc/Obj/pdsMem.o
 .text          0x00000000        0x0 EndDevice_Rcb_Atmega128rfa1_8Mhz_Gcc/Obj/pdsWriteData.o
 .data          0x00000000        0x0 EndDevice_Rcb_Atmega128rfa1_8Mhz_Gcc/Obj/pdsWriteData.o
 .text.pdsUpdate
                0x00000000       0x98 EndDevice_Rcb_Atmega128rfa1_8Mhz_Gcc/Obj/pdsWriteData.o
 .text.pdsCorruptFiles
                0x00000000       0xa4 EndDevice_Rcb_Atmega128rfa1_8Mhz_Gcc/Obj/pdsWriteData.o
 .text          0x00000000        0x0 EndDevice_Rcb_Atmega128rfa1_8Mhz_Gcc/Obj/pdsDataServer.o
 .data          0x00000000        0x0 EndDevice_Rcb_Atmega128rfa1_8Mhz_Gcc/Obj/pdsDataServer.o
 .bss           0x00000000        0x0 EndDevice_Rcb_Atmega128rfa1_8Mhz_Gcc/Obj/pdsDataServer.o
 .text.PDS_Restore
                0x00000000       0x80 EndDevice_Rcb_Atmega128rfa1_8Mhz_Gcc/Obj/pdsDataServer.o
 .text.PDS_BlockingStore
                0x00000000       0x1a EndDevice_Rcb_Atmega128rfa1_8Mhz_Gcc/Obj/pdsDataServer.o
 .text.PDS_IsAbleToRestore
                0x00000000       0x44 EndDevice_Rcb_Atmega128rfa1_8Mhz_Gcc/Obj/pdsDataServer.o
 .text.PDS_IsAbleToStore
                0x00000000       0x2e EndDevice_Rcb_Atmega128rfa1_8Mhz_Gcc/Obj/pdsDataServer.o
 .text.PDS_ClearRestoredMemory
                0x00000000       0x3a EndDevice_Rcb_Atmega128rfa1_8Mhz_Gcc/Obj/pdsDataServer.o
 .text.PDS_ResetStorage
                0x00000000       0x54 EndDevice_Rcb_Atmega128rfa1_8Mhz_Gcc/Obj/pdsDataServer.o
 .text.PDS_FlushData
                0x00000000        0x6 EndDevice_Rcb_Atmega128rfa1_8Mhz_Gcc/Obj/pdsDataServer.o
 .text.PDS_ReadUserData
                0x00000000       0x6e EndDevice_Rcb_Atmega128rfa1_8Mhz_Gcc/Obj/pdsDataServer.o
 .text.PDS_WriteUserData
                0x00000000       0x6e EndDevice_Rcb_Atmega128rfa1_8Mhz_Gcc/Obj/pdsDataServer.o
 .text          0x00000000        0x0 EndDevice_Rcb_Atmega128rfa1_8Mhz_Gcc/Obj/pdsInit.o
 .data          0x00000000        0x0 EndDevice_Rcb_Atmega128rfa1_8Mhz_Gcc/Obj/pdsInit.o
 .bss           0x00000000        0x0 EndDevice_Rcb_Atmega128rfa1_8Mhz_Gcc/Obj/pdsInit.o
 .text          0x00000000        0x0 EndDevice_Rcb_Atmega128rfa1_8Mhz_Gcc/Obj/pdsTimer.o
 .data          0x00000000        0x0 EndDevice_Rcb_Atmega128rfa1_8Mhz_Gcc/Obj/pdsTimer.o
 .bss           0x00000000        0x0 EndDevice_Rcb_Atmega128rfa1_8Mhz_Gcc/Obj/pdsTimer.o
 .text.PDS_StoreByTimer
                0x00000000       0x5c EndDevice_Rcb_Atmega128rfa1_8Mhz_Gcc/Obj/pdsTimer.o
 .text.PDS_Stop
                0x00000000       0x1e EndDevice_Rcb_Atmega128rfa1_8Mhz_Gcc/Obj/pdsTimer.o
 .text.PDS_Run  0x00000000       0x1e EndDevice_Rcb_Atmega128rfa1_8Mhz_Gcc/Obj/pdsTimer.o
 .text          0x00000000        0x0 EndDevice_Rcb_Atmega128rfa1_8Mhz_Gcc/Obj/pdsEvents.o
 .data          0x00000000        0x8 EndDevice_Rcb_Atmega128rfa1_8Mhz_Gcc/Obj/pdsEvents.o
 .bss           0x00000000        0x0 EndDevice_Rcb_Atmega128rfa1_8Mhz_Gcc/Obj/pdsEvents.o
 .text.pdsObserver
                0x00000000       0x58 EndDevice_Rcb_Atmega128rfa1_8Mhz_Gcc/Obj/pdsEvents.o
 .text.PDS_StoreByEvents
                0x00000000       0xfc EndDevice_Rcb_Atmega128rfa1_8Mhz_Gcc/Obj/pdsEvents.o
 .progmem.data  0x00000000       0x39 EndDevice_Rcb_Atmega128rfa1_8Mhz_Gcc/Obj/pdsEvents.o
 .text          0x00000000        0x0 EndDevice_Rcb_Atmega128rfa1_8Mhz_Gcc/Obj/pdsMemAccess.o
 .data          0x00000000        0x0 EndDevice_Rcb_Atmega128rfa1_8Mhz_Gcc/Obj/pdsMemAccess.o
 .bss           0x00000000        0x0 EndDevice_Rcb_Atmega128rfa1_8Mhz_Gcc/Obj/pdsMemAccess.o
 .text.pdsGetDirectoryDescrRec
                0x00000000       0x66 EndDevice_Rcb_Atmega128rfa1_8Mhz_Gcc/Obj/pdsMemAccess.o
 .text          0x00000000        0x0 EndDevice_Rcb_Atmega128rfa1_8Mhz_Gcc/Obj/pdsCrcService.o
 .data          0x00000000        0x0 EndDevice_Rcb_Atmega128rfa1_8Mhz_Gcc/Obj/pdsCrcService.o
 .bss           0x00000000        0x0 EndDevice_Rcb_Atmega128rfa1_8Mhz_Gcc/Obj/pdsCrcService.o
 .text          0x00000000        0x0 EndDevice_Rcb_Atmega128rfa1_8Mhz_Gcc/Obj/usbFifoVirtualUsart.o
 .data          0x00000000        0x0 EndDevice_Rcb_Atmega128rfa1_8Mhz_Gcc/Obj/usbFifoVirtualUsart.o
 .bss           0x00000000        0x2 EndDevice_Rcb_Atmega128rfa1_8Mhz_Gcc/Obj/usbFifoVirtualUsart.o
 .text.USBFIFO_OpenUsart
                0x00000000       0x5c EndDevice_Rcb_Atmega128rfa1_8Mhz_Gcc/Obj/usbFifoVirtualUsart.o
 .text.USBFIFO_CloseUsart
                0x00000000       0x34 EndDevice_Rcb_Atmega128rfa1_8Mhz_Gcc/Obj/usbFifoVirtualUsart.o
 .text.USBFIFO_WriteUsart
                0x00000000       0xbe EndDevice_Rcb_Atmega128rfa1_8Mhz_Gcc/Obj/usbFifoVirtualUsart.o
 .text.USBFIFO_ReadUsart
                0x00000000       0x9e EndDevice_Rcb_Atmega128rfa1_8Mhz_Gcc/Obj/usbFifoVirtualUsart.o
 .text.USBFIFO_IsTxEmpty
                0x00000000       0x3a EndDevice_Rcb_Atmega128rfa1_8Mhz_Gcc/Obj/usbFifoVirtualUsart.o
 .text          0x00000000        0x0 EndDevice_Rcb_Atmega128rfa1_8Mhz_Gcc/Obj/usbFifoFT245RL.o
 .data          0x00000000        0x0 EndDevice_Rcb_Atmega128rfa1_8Mhz_Gcc/Obj/usbFifoFT245RL.o
 .bss           0x00000000        0x1 EndDevice_Rcb_Atmega128rfa1_8Mhz_Gcc/Obj/usbFifoFT245RL.o
 .text.usbfifoTxComplete
                0x00000000       0x26 EndDevice_Rcb_Atmega128rfa1_8Mhz_Gcc/Obj/usbFifoFT245RL.o
 .text.usbfifoRxComplete
                0x00000000       0x30 EndDevice_Rcb_Atmega128rfa1_8Mhz_Gcc/Obj/usbFifoFT245RL.o
 .text.usbfifoPostTask
                0x00000000       0x3c EndDevice_Rcb_Atmega128rfa1_8Mhz_Gcc/Obj/usbFifoFT245RL.o
 .text.usbfifoTxBufferCleaner
                0x00000000       0x5e EndDevice_Rcb_Atmega128rfa1_8Mhz_Gcc/Obj/usbFifoFT245RL.o
 .text.usbfifoRxBufferFiller
                0x00000000       0x64 EndDevice_Rcb_Atmega128rfa1_8Mhz_Gcc/Obj/usbFifoFT245RL.o
 .text.usbfifoInit
                0x00000000       0x2c EndDevice_Rcb_Atmega128rfa1_8Mhz_Gcc/Obj/usbFifoFT245RL.o
 .text.usbfifoUnInit
                0x00000000       0x2a EndDevice_Rcb_Atmega128rfa1_8Mhz_Gcc/Obj/usbFifoFT245RL.o
 .text.usbfifoHandler
                0x00000000       0x66 EndDevice_Rcb_Atmega128rfa1_8Mhz_Gcc/Obj/usbFifoFT245RL.o
 .progmem.data  0x00000000        0x4 EndDevice_Rcb_Atmega128rfa1_8Mhz_Gcc/Obj/usbFifoFT245RL.o
 .text          0x00000000        0x0 EndDevice_Rcb_Atmega128rfa1_8Mhz_Gcc/Obj/leds.o
 .data          0x00000000        0x0 EndDevice_Rcb_Atmega128rfa1_8Mhz_Gcc/Obj/leds.o
 .bss           0x00000000        0x0 EndDevice_Rcb_Atmega128rfa1_8Mhz_Gcc/Obj/leds.o
 .text.BSP_CloseLeds
                0x00000000        0xc EndDevice_Rcb_Atmega128rfa1_8Mhz_Gcc/Obj/leds.o
 .text          0x00000000        0x0 EndDevice_Rcb_Atmega128rfa1_8Mhz_Gcc/Obj/bspTaskManager.o
 .data          0x00000000        0x0 EndDevice_Rcb_Atmega128rfa1_8Mhz_Gcc/Obj/bspTaskManager.o
 .text          0x00000000        0x0 EndDevice_Rcb_Atmega128rfa1_8Mhz_Gcc/Obj/buttons.o
 .data          0x00000000        0x0 EndDevice_Rcb_Atmega128rfa1_8Mhz_Gcc/Obj/buttons.o
 .text.bspKey0InterruptHandler
                0x00000000       0x3e EndDevice_Rcb_Atmega128rfa1_8Mhz_Gcc/Obj/buttons.o
 .text.BSP_OpenButtons
                0x00000000       0x54 EndDevice_Rcb_Atmega128rfa1_8Mhz_Gcc/Obj/buttons.o
 .text.BSP_CloseButtons
                0x00000000       0x2a EndDevice_Rcb_Atmega128rfa1_8Mhz_Gcc/Obj/buttons.o
 .text.BSP_ReadButtonsState
                0x00000000        0x8 EndDevice_Rcb_Atmega128rfa1_8Mhz_Gcc/Obj/buttons.o
 .text          0x00000000        0x0 EndDevice_Rcb_Atmega128rfa1_8Mhz_Gcc/Obj/fakeBSP.o
 .data          0x00000000        0x0 EndDevice_Rcb_Atmega128rfa1_8Mhz_Gcc/Obj/fakeBSP.o
 .bss           0x00000000        0x0 EndDevice_Rcb_Atmega128rfa1_8Mhz_Gcc/Obj/fakeBSP.o
 .text.BSP_OpenTemperatureSensor
                0x00000000        0x4 EndDevice_Rcb_Atmega128rfa1_8Mhz_Gcc/Obj/fakeBSP.o
 .text.BSP_CloseTemperatureSensor
                0x00000000        0x4 EndDevice_Rcb_Atmega128rfa1_8Mhz_Gcc/Obj/fakeBSP.o
 .text.BSP_ReadTemperatureData
                0x00000000       0x2e EndDevice_Rcb_Atmega128rfa1_8Mhz_Gcc/Obj/fakeBSP.o
 .text.BSP_OpenLightSensor
                0x00000000        0x4 EndDevice_Rcb_Atmega128rfa1_8Mhz_Gcc/Obj/fakeBSP.o
 .text.BSP_CloseLightSensor
                0x00000000        0x4 EndDevice_Rcb_Atmega128rfa1_8Mhz_Gcc/Obj/fakeBSP.o
 .text.BSP_ReadLightData
                0x00000000       0x2e EndDevice_Rcb_Atmega128rfa1_8Mhz_Gcc/Obj/fakeBSP.o
 .text.BSP_OpenBatterySensor
                0x00000000        0x4 EndDevice_Rcb_Atmega128rfa1_8Mhz_Gcc/Obj/fakeBSP.o
 .text.BSP_CloseBatterySensor
                0x00000000        0x4 EndDevice_Rcb_Atmega128rfa1_8Mhz_Gcc/Obj/fakeBSP.o
 .text.BSP_ReadBatteryData
                0x00000000       0x2e EndDevice_Rcb_Atmega128rfa1_8Mhz_Gcc/Obj/fakeBSP.o
 .text.BSP_ReadSliders
                0x00000000        0x4 EndDevice_Rcb_Atmega128rfa1_8Mhz_Gcc/Obj/fakeBSP.o
 .text.BSP_OpenJoystick
                0x00000000        0x4 EndDevice_Rcb_Atmega128rfa1_8Mhz_Gcc/Obj/fakeBSP.o
 .text.BSP_CloseJoystick
                0x00000000        0x4 EndDevice_Rcb_Atmega128rfa1_8Mhz_Gcc/Obj/fakeBSP.o
 .text.BSP_ReadJoystickState
                0x00000000        0x4 EndDevice_Rcb_Atmega128rfa1_8Mhz_Gcc/Obj/fakeBSP.o
 .text          0x00000000        0x0 EndDevice_Rcb_Atmega128rfa1_8Mhz_Gcc/Obj/csPersistentMem.o
 .data          0x00000000        0x0 EndDevice_Rcb_Atmega128rfa1_8Mhz_Gcc/Obj/csPersistentMem.o
 .bss           0x00000000        0x0 EndDevice_Rcb_Atmega128rfa1_8Mhz_Gcc/Obj/csPersistentMem.o
 .text          0x00000000        0x0 EndDevice_Rcb_Atmega128rfa1_8Mhz_Gcc/Obj/csMem.o
 .data          0x00000000        0x0 EndDevice_Rcb_Atmega128rfa1_8Mhz_Gcc/Obj/csMem.o
 .bss           0x00000000        0x0 EndDevice_Rcb_Atmega128rfa1_8Mhz_Gcc/Obj/csMem.o
 .text          0x00000000        0x0 EndDevice_Rcb_Atmega128rfa1_8Mhz_Gcc/Obj/configServer.o
 .data          0x00000000        0x0 EndDevice_Rcb_Atmega128rfa1_8Mhz_Gcc/Obj/configServer.o
 .bss           0x00000000        0x0 EndDevice_Rcb_Atmega128rfa1_8Mhz_Gcc/Obj/configServer.o
 .text.CS_PdsDefaultValue
                0x00000000       0xee EndDevice_Rcb_Atmega128rfa1_8Mhz_Gcc/Obj/configServer.o
 .text          0x00000000        0x0 ./../../../../BitCloud/lib/libHAL_RcbAtm128rfa1_Atmega128rfa1_8Mhz_Gcc.a(appTimer.o)
 .data          0x00000000        0x0 ./../../../../BitCloud/lib/libHAL_RcbAtm128rfa1_Atmega128rfa1_8Mhz_Gcc.a(appTimer.o)
 .text          0x00000000        0x0 ./../../../../BitCloud/lib/libHAL_RcbAtm128rfa1_Atmega128rfa1_8Mhz_Gcc.a(halTaskManager.o)
 .data          0x00000000        0x0 ./../../../../BitCloud/lib/libHAL_RcbAtm128rfa1_Atmega128rfa1_8Mhz_Gcc.a(halTaskManager.o)
 .text          0x00000000        0x0 ./../../../../BitCloud/lib/libHAL_RcbAtm128rfa1_Atmega128rfa1_8Mhz_Gcc.a(usart.o)
 .text.HAL_EnableDtrWakeUp
                0x00000000       0x10 ./../../../../BitCloud/lib/libHAL_RcbAtm128rfa1_Atmega128rfa1_8Mhz_Gcc.a(usart.o)
 .text.HAL_DisableDtrWakeUp
                0x00000000        0x6 ./../../../../BitCloud/lib/libHAL_RcbAtm128rfa1_Atmega128rfa1_8Mhz_Gcc.a(usart.o)
 .text.HAL_IsTxEmpty
                0x00000000       0x6c ./../../../../BitCloud/lib/libHAL_RcbAtm128rfa1_Atmega128rfa1_8Mhz_Gcc.a(usart.o)
 .text.HAL_ReadUsart
                0x00000000       0xc6 ./../../../../BitCloud/lib/libHAL_RcbAtm128rfa1_Atmega128rfa1_8Mhz_Gcc.a(usart.o)
 .text.HAL_CloseUsart
                0x00000000       0x7e ./../../../../BitCloud/lib/libHAL_RcbAtm128rfa1_Atmega128rfa1_8Mhz_Gcc.a(usart.o)
 .text          0x00000000        0x0 ./../../../../BitCloud/lib/libHAL_RcbAtm128rfa1_Atmega128rfa1_8Mhz_Gcc.a(irq.o)
 .data          0x00000000        0x0 ./../../../../BitCloud/lib/libHAL_RcbAtm128rfa1_Atmega128rfa1_8Mhz_Gcc.a(irq.o)
 .bss           0x00000000        0x0 ./../../../../BitCloud/lib/libHAL_RcbAtm128rfa1_Atmega128rfa1_8Mhz_Gcc.a(irq.o)
 .text.HAL_RegisterIrq
                0x00000000       0x5a ./../../../../BitCloud/lib/libHAL_RcbAtm128rfa1_Atmega128rfa1_8Mhz_Gcc.a(irq.o)
 .text.HAL_DisableIrq
                0x00000000       0x3e ./../../../../BitCloud/lib/libHAL_RcbAtm128rfa1_Atmega128rfa1_8Mhz_Gcc.a(irq.o)
 .text.HAL_UnregisterIrq
                0x00000000       0x50 ./../../../../BitCloud/lib/libHAL_RcbAtm128rfa1_Atmega128rfa1_8Mhz_Gcc.a(irq.o)
 .text          0x00000000        0x0 ./../../../../BitCloud/lib/libHAL_RcbAtm128rfa1_Atmega128rfa1_8Mhz_Gcc.a(i2cPacket.o)
 .data          0x00000000        0x0 ./../../../../BitCloud/lib/libHAL_RcbAtm128rfa1_Atmega128rfa1_8Mhz_Gcc.a(i2cPacket.o)
 .text.HAL_OpenI2cPacket
                0x00000000       0x40 ./../../../../BitCloud/lib/libHAL_RcbAtm128rfa1_Atmega128rfa1_8Mhz_Gcc.a(i2cPacket.o)
 .text.HAL_CloseI2cPacket
                0x00000000       0x32 ./../../../../BitCloud/lib/libHAL_RcbAtm128rfa1_Atmega128rfa1_8Mhz_Gcc.a(i2cPacket.o)
 .text.HAL_WriteI2cPacket
                0x00000000       0x52 ./../../../../BitCloud/lib/libHAL_RcbAtm128rfa1_Atmega128rfa1_8Mhz_Gcc.a(i2cPacket.o)
 .text.HAL_ReadI2cPacket
                0x00000000       0x52 ./../../../../BitCloud/lib/libHAL_RcbAtm128rfa1_Atmega128rfa1_8Mhz_Gcc.a(i2cPacket.o)
 .text          0x00000000        0x0 ./../../../../BitCloud/lib/libHAL_RcbAtm128rfa1_Atmega128rfa1_8Mhz_Gcc.a(eeprom.o)
 .data          0x00000000        0x0 ./../../../../BitCloud/lib/libHAL_RcbAtm128rfa1_Atmega128rfa1_8Mhz_Gcc.a(eeprom.o)
 .text          0x00000000        0x0 ./../../../../BitCloud/lib/libHAL_RcbAtm128rfa1_Atmega128rfa1_8Mhz_Gcc.a(timer.o)
 .data          0x00000000        0x0 ./../../../../BitCloud/lib/libHAL_RcbAtm128rfa1_Atmega128rfa1_8Mhz_Gcc.a(timer.o)
 .bss           0x00000000        0x0 ./../../../../BitCloud/lib/libHAL_RcbAtm128rfa1_Atmega128rfa1_8Mhz_Gcc.a(timer.o)
 .text          0x00000000        0x0 ./../../../../BitCloud/lib/libHAL_RcbAtm128rfa1_Atmega128rfa1_8Mhz_Gcc.a(adc.o)
 .data          0x00000000        0x0 ./../../../../BitCloud/lib/libHAL_RcbAtm128rfa1_Atmega128rfa1_8Mhz_Gcc.a(adc.o)
 .text.HAL_OpenAdc
                0x00000000       0x54 ./../../../../BitCloud/lib/libHAL_RcbAtm128rfa1_Atmega128rfa1_8Mhz_Gcc.a(adc.o)
 .text.HAL_ReadAdc
                0x00000000       0x2e ./../../../../BitCloud/lib/libHAL_RcbAtm128rfa1_Atmega128rfa1_8Mhz_Gcc.a(adc.o)
 .text.HAL_CloseAdc
                0x00000000       0x28 ./../../../../BitCloud/lib/libHAL_RcbAtm128rfa1_Atmega128rfa1_8Mhz_Gcc.a(adc.o)
 .text          0x00000000        0x0 ./../../../../BitCloud/lib/libHAL_RcbAtm128rfa1_Atmega128rfa1_8Mhz_Gcc.a(spi.o)
 .data          0x00000000        0x0 ./../../../../BitCloud/lib/libHAL_RcbAtm128rfa1_Atmega128rfa1_8Mhz_Gcc.a(spi.o)
 .bss           0x00000000        0x0 ./../../../../BitCloud/lib/libHAL_RcbAtm128rfa1_Atmega128rfa1_8Mhz_Gcc.a(spi.o)
 .text.isClosedPd
                0x00000000        0xc ./../../../../BitCloud/lib/libHAL_RcbAtm128rfa1_Atmega128rfa1_8Mhz_Gcc.a(spi.o)
 .text.isOpenedPd
                0x00000000        0xc ./../../../../BitCloud/lib/libHAL_RcbAtm128rfa1_Atmega128rfa1_8Mhz_Gcc.a(spi.o)
 .text.halCheckSpiDescriptor
                0x00000000       0x2a ./../../../../BitCloud/lib/libHAL_RcbAtm128rfa1_Atmega128rfa1_8Mhz_Gcc.a(spi.o)
 .text.halCheckUsartDescriptor
                0x00000000       0x5a ./../../../../BitCloud/lib/libHAL_RcbAtm128rfa1_Atmega128rfa1_8Mhz_Gcc.a(spi.o)
 .text.HAL_OpenSpi
                0x00000000       0x8c ./../../../../BitCloud/lib/libHAL_RcbAtm128rfa1_Atmega128rfa1_8Mhz_Gcc.a(spi.o)
 .text.HAL_CloseSpi
                0x00000000       0x64 ./../../../../BitCloud/lib/libHAL_RcbAtm128rfa1_Atmega128rfa1_8Mhz_Gcc.a(spi.o)
 .text.HAL_WriteSpi
                0x00000000      0x120 ./../../../../BitCloud/lib/libHAL_RcbAtm128rfa1_Atmega128rfa1_8Mhz_Gcc.a(spi.o)
 .text.HAL_ReadSpi
                0x00000000      0x146 ./../../../../BitCloud/lib/libHAL_RcbAtm128rfa1_Atmega128rfa1_8Mhz_Gcc.a(spi.o)
 .text          0x00000000        0x0 ./../../../../BitCloud/lib/libHAL_RcbAtm128rfa1_Atmega128rfa1_8Mhz_Gcc.a(halSleepTimerClock.o)
 .data          0x00000000        0x0 ./../../../../BitCloud/lib/libHAL_RcbAtm128rfa1_Atmega128rfa1_8Mhz_Gcc.a(halSleepTimerClock.o)
 .text          0x00000000        0x0 ./../../../../BitCloud/lib/libHAL_RcbAtm128rfa1_Atmega128rfa1_8Mhz_Gcc.a(halSecurityModule.o)
 .data          0x00000000        0x0 ./../../../../BitCloud/lib/libHAL_RcbAtm128rfa1_Atmega128rfa1_8Mhz_Gcc.a(halSecurityModule.o)
 .text.HAL_SmEncryptReq
                0x00000000       0x2e ./../../../../BitCloud/lib/libHAL_RcbAtm128rfa1_Atmega128rfa1_8Mhz_Gcc.a(halSecurityModule.o)
 .text          0x00000000        0x0 ./../../../../BitCloud/lib/libHAL_RcbAtm128rfa1_Atmega128rfa1_8Mhz_Gcc.a(halAppClock.o)
 .data          0x00000000        0x0 ./../../../../BitCloud/lib/libHAL_RcbAtm128rfa1_Atmega128rfa1_8Mhz_Gcc.a(halAppClock.o)
 .text.halGetSystemTimeUs
                0x00000000       0x58 ./../../../../BitCloud/lib/libHAL_RcbAtm128rfa1_Atmega128rfa1_8Mhz_Gcc.a(halAppClock.o)
 .text          0x00000000        0x0 ./../../../../BitCloud/lib/libHAL_RcbAtm128rfa1_Atmega128rfa1_8Mhz_Gcc.a(halUsart.o)
 .data          0x00000000        0x0 ./../../../../BitCloud/lib/libHAL_RcbAtm128rfa1_Atmega128rfa1_8Mhz_Gcc.a(halUsart.o)
 .bss           0x00000000        0x0 ./../../../../BitCloud/lib/libHAL_RcbAtm128rfa1_Atmega128rfa1_8Mhz_Gcc.a(halUsart.o)
 .text          0x00000000        0x0 ./../../../../BitCloud/lib/libHAL_RcbAtm128rfa1_Atmega128rfa1_8Mhz_Gcc.a(halIrq.o)
 .data          0x00000000        0x0 ./../../../../BitCloud/lib/libHAL_RcbAtm128rfa1_Atmega128rfa1_8Mhz_Gcc.a(halIrq.o)
 .text.halSetIrqConfig
                0x00000000       0xd0 ./../../../../BitCloud/lib/libHAL_RcbAtm128rfa1_Atmega128rfa1_8Mhz_Gcc.a(halIrq.o)
 .text.halClrIrqConfig
                0x00000000       0x7e ./../../../../BitCloud/lib/libHAL_RcbAtm128rfa1_Atmega128rfa1_8Mhz_Gcc.a(halIrq.o)
 .text          0x00000000        0x0 ./../../../../BitCloud/lib/libHAL_RcbAtm128rfa1_Atmega128rfa1_8Mhz_Gcc.a(halTwi.o)
 .data          0x00000000        0x0 ./../../../../BitCloud/lib/libHAL_RcbAtm128rfa1_Atmega128rfa1_8Mhz_Gcc.a(halTwi.o)
 .bss           0x00000000        0x0 ./../../../../BitCloud/lib/libHAL_RcbAtm128rfa1_Atmega128rfa1_8Mhz_Gcc.a(halTwi.o)
 .text.halInitI2c
                0x00000000        0xe ./../../../../BitCloud/lib/libHAL_RcbAtm128rfa1_Atmega128rfa1_8Mhz_Gcc.a(halTwi.o)
 .text          0x00000000        0x0 ./../../../../BitCloud/lib/libHAL_RcbAtm128rfa1_Atmega128rfa1_8Mhz_Gcc.a(halEeprom.o)
 .data          0x00000000        0x0 ./../../../../BitCloud/lib/libHAL_RcbAtm128rfa1_Atmega128rfa1_8Mhz_Gcc.a(halEeprom.o)
 .bss           0x00000000        0x0 ./../../../../BitCloud/lib/libHAL_RcbAtm128rfa1_Atmega128rfa1_8Mhz_Gcc.a(halEeprom.o)
 .text          0x00000000        0x0 ./../../../../BitCloud/lib/libHAL_RcbAtm128rfa1_Atmega128rfa1_8Mhz_Gcc.a(halSleep.o)
 .data          0x00000000        0x0 ./../../../../BitCloud/lib/libHAL_RcbAtm128rfa1_Atmega128rfa1_8Mhz_Gcc.a(halSleep.o)
 .text.HAL_IdleMode
                0x00000000        0xa ./../../../../BitCloud/lib/libHAL_RcbAtm128rfa1_Atmega128rfa1_8Mhz_Gcc.a(halSleep.o)
 .text          0x00000000        0x0 ./../../../../BitCloud/lib/libHAL_RcbAtm128rfa1_Atmega128rfa1_8Mhz_Gcc.a(halAdc.o)
 .data          0x00000000        0x0 ./../../../../BitCloud/lib/libHAL_RcbAtm128rfa1_Atmega128rfa1_8Mhz_Gcc.a(halAdc.o)
 .bss           0x00000000        0x0 ./../../../../BitCloud/lib/libHAL_RcbAtm128rfa1_Atmega128rfa1_8Mhz_Gcc.a(halAdc.o)
 .text.halOpenAdc
                0x00000000       0x56 ./../../../../BitCloud/lib/libHAL_RcbAtm128rfa1_Atmega128rfa1_8Mhz_Gcc.a(halAdc.o)
 .text.halStartAdc
                0x00000000       0xa6 ./../../../../BitCloud/lib/libHAL_RcbAtm128rfa1_Atmega128rfa1_8Mhz_Gcc.a(halAdc.o)
 .text.halCloseAdc
                0x00000000        0xe ./../../../../BitCloud/lib/libHAL_RcbAtm128rfa1_Atmega128rfa1_8Mhz_Gcc.a(halAdc.o)
 .progmem.data  0x00000000        0x5 ./../../../../BitCloud/lib/libHAL_RcbAtm128rfa1_Atmega128rfa1_8Mhz_Gcc.a(halAdc.o)
 .text          0x00000000        0x0 ./../../../../BitCloud/lib/libHAL_RcbAtm128rfa1_Atmega128rfa1_8Mhz_Gcc.a(halSpi.o)
 .data          0x00000000        0x0 ./../../../../BitCloud/lib/libHAL_RcbAtm128rfa1_Atmega128rfa1_8Mhz_Gcc.a(halSpi.o)
 .text.halSetUsartSpiConfig
                0x00000000       0x98 ./../../../../BitCloud/lib/libHAL_RcbAtm128rfa1_Atmega128rfa1_8Mhz_Gcc.a(halSpi.o)
 .text.halClearUsartSpi
                0x00000000       0x16 ./../../../../BitCloud/lib/libHAL_RcbAtm128rfa1_Atmega128rfa1_8Mhz_Gcc.a(halSpi.o)
 .text.halSetSlaveSpiConfig
                0x00000000       0x58 ./../../../../BitCloud/lib/libHAL_RcbAtm128rfa1_Atmega128rfa1_8Mhz_Gcc.a(halSpi.o)
 .text.halSyncUsartSpiWriteData
                0x00000000       0x3c ./../../../../BitCloud/lib/libHAL_RcbAtm128rfa1_Atmega128rfa1_8Mhz_Gcc.a(halSpi.o)
 .text.halSyncUsartSpiReadData
                0x00000000       0x3c ./../../../../BitCloud/lib/libHAL_RcbAtm128rfa1_Atmega128rfa1_8Mhz_Gcc.a(halSpi.o)
 .text          0x00000000        0x0 ./../../../../BitCloud/lib/libHAL_RcbAtm128rfa1_Atmega128rfa1_8Mhz_Gcc.a(calibration.o)
 .data          0x00000000        0x0 ./../../../../BitCloud/lib/libHAL_RcbAtm128rfa1_Atmega128rfa1_8Mhz_Gcc.a(calibration.o)
 .bss           0x00000000        0x0 ./../../../../BitCloud/lib/libHAL_RcbAtm128rfa1_Atmega128rfa1_8Mhz_Gcc.a(calibration.o)
 .data          0x00000000        0x0 ./../../../../BitCloud/lib/libHAL_RcbAtm128rfa1_Atmega128rfa1_8Mhz_Gcc.a(halW1.o)
 .bss           0x00000000        0x0 ./../../../../BitCloud/lib/libHAL_RcbAtm128rfa1_Atmega128rfa1_8Mhz_Gcc.a(halW1.o)
 .data          0x00000000        0x0 ./../../../../BitCloud/lib/libHAL_RcbAtm128rfa1_Atmega128rfa1_8Mhz_Gcc.a(halCalibration.o)
 .bss           0x00000000        0x0 ./../../../../BitCloud/lib/libHAL_RcbAtm128rfa1_Atmega128rfa1_8Mhz_Gcc.a(halCalibration.o)
 .text          0x00000000        0x0 ./../../../../BitCloud/lib/libHAL_RcbAtm128rfa1_Atmega128rfa1_8Mhz_Gcc.a(sleepTimer.o)
 .data          0x00000000        0x0 ./../../../../BitCloud/lib/libHAL_RcbAtm128rfa1_Atmega128rfa1_8Mhz_Gcc.a(sleepTimer.o)
 .bss           0x00000000        0x0 ./../../../../BitCloud/lib/libHAL_RcbAtm128rfa1_Atmega128rfa1_8Mhz_Gcc.a(sleepTimer.o)
 .text.HAL_StopSleepTimer
                0x00000000       0x24 ./../../../../BitCloud/lib/libHAL_RcbAtm128rfa1_Atmega128rfa1_8Mhz_Gcc.a(sleepTimer.o)
 .text          0x00000000        0x0 ./../../../../BitCloud/lib/libHAL_RcbAtm128rfa1_Atmega128rfa1_8Mhz_Gcc.a(sleep.o)
 .data          0x00000000        0x0 ./../../../../BitCloud/lib/libHAL_RcbAtm128rfa1_Atmega128rfa1_8Mhz_Gcc.a(sleep.o)
 .text          0x00000000        0x0 ./../../../../BitCloud/lib/libHAL_RcbAtm128rfa1_Atmega128rfa1_8Mhz_Gcc.a(halClkCtrl.o)
 .data          0x00000000        0x0 ./../../../../BitCloud/lib/libHAL_RcbAtm128rfa1_Atmega128rfa1_8Mhz_Gcc.a(halClkCtrl.o)
 .text.HAL_ReadFreq
                0x00000000        0xa ./../../../../BitCloud/lib/libHAL_RcbAtm128rfa1_Atmega128rfa1_8Mhz_Gcc.a(halClkCtrl.o)
 .text          0x00000000        0x0 ./../../../../BitCloud/lib/libBc_EndDevice_Atmega128rfa1_Atmega128rfa1_Gcc.a(aps.o)
 .data          0x00000000        0x0 ./../../../../BitCloud/lib/libBc_EndDevice_Atmega128rfa1_Atmega128rfa1_Gcc.a(aps.o)
 .text.APS_DeactivateBindRecords
                0x00000000       0x5a ./../../../../BitCloud/lib/libBc_EndDevice_Atmega128rfa1_Atmega128rfa1_Gcc.a(aps.o)
 .text.APS_ActivateBindRecords
                0x00000000       0x5a ./../../../../BitCloud/lib/libBc_EndDevice_Atmega128rfa1_Atmega128rfa1_Gcc.a(aps.o)
 .text.APS_NextBindingEntry
                0x00000000       0x46 ./../../../../BitCloud/lib/libBc_EndDevice_Atmega128rfa1_Atmega128rfa1_Gcc.a(aps.o)
 .text.APS_UnregisterEndpointReq
                0x00000000       0x2c ./../../../../BitCloud/lib/libBc_EndDevice_Atmega128rfa1_Atmega128rfa1_Gcc.a(aps.o)
 .text.apsSetNoIndicationFlag
                0x00000000       0x42 ./../../../../BitCloud/lib/libBc_EndDevice_Atmega128rfa1_Atmega128rfa1_Gcc.a(aps.o)
 .text.APS_StopEndpointIndication
                0x00000000        0x8 ./../../../../BitCloud/lib/libBc_EndDevice_Atmega128rfa1_Atmega128rfa1_Gcc.a(aps.o)
 .text.APS_ResumeEndpointIndication
                0x00000000        0x8 ./../../../../BitCloud/lib/libBc_EndDevice_Atmega128rfa1_Atmega128rfa1_Gcc.a(aps.o)
 .text.APS_AddGroupReq
                0x00000000       0x22 ./../../../../BitCloud/lib/libBc_EndDevice_Atmega128rfa1_Atmega128rfa1_Gcc.a(aps.o)
 .text.APS_RemoveGroupReq
                0x00000000       0x22 ./../../../../BitCloud/lib/libBc_EndDevice_Atmega128rfa1_Atmega128rfa1_Gcc.a(aps.o)
 .text.APS_RemoveAllGroupsReq
                0x00000000       0x1e ./../../../../BitCloud/lib/libBc_EndDevice_Atmega128rfa1_Atmega128rfa1_Gcc.a(aps.o)
 .text.APS_IsStarted
                0x00000000       0x16 ./../../../../BitCloud/lib/libBc_EndDevice_Atmega128rfa1_Atmega128rfa1_Gcc.a(aps.o)
 .text          0x00000000        0x0 ./../../../../BitCloud/lib/libBc_EndDevice_Atmega128rfa1_Atmega128rfa1_Gcc.a(macenvPib.o)
 .data          0x00000000        0x0 ./../../../../BitCloud/lib/libBc_EndDevice_Atmega128rfa1_Atmega128rfa1_Gcc.a(macenvPib.o)
 .bss           0x00000000        0x0 ./../../../../BitCloud/lib/libBc_EndDevice_Atmega128rfa1_Atmega128rfa1_Gcc.a(macenvPib.o)
 .text          0x00000000        0x0 ./../../../../BitCloud/lib/libBc_EndDevice_Atmega128rfa1_Atmega128rfa1_Gcc.a(nwk.o)
 .bss           0x00000000       0x12 ./../../../../BitCloud/lib/libBc_EndDevice_Atmega128rfa1_Atmega128rfa1_Gcc.a(nwk.o)
 .text.nwkAddressMacSetConf
                0x00000000       0x5a ./../../../../BitCloud/lib/libBc_EndDevice_Atmega128rfa1_Atmega128rfa1_Gcc.a(nwk.o)
 .text.NWK_SetShortAddr
                0x00000000       0x52 ./../../../../BitCloud/lib/libBc_EndDevice_Atmega128rfa1_Atmega128rfa1_Gcc.a(nwk.o)
 .text.NWK_AddGroup
                0x00000000       0x36 ./../../../../BitCloud/lib/libBc_EndDevice_Atmega128rfa1_Atmega128rfa1_Gcc.a(nwk.o)
 .text.NWK_RemoveGroup
                0x00000000       0x58 ./../../../../BitCloud/lib/libBc_EndDevice_Atmega128rfa1_Atmega128rfa1_Gcc.a(nwk.o)
 .text.NWK_RemoveAllGroups
                0x00000000       0x42 ./../../../../BitCloud/lib/libBc_EndDevice_Atmega128rfa1_Atmega128rfa1_Gcc.a(nwk.o)
 .text.NWK_GroupCapacity
                0x00000000       0x24 ./../../../../BitCloud/lib/libBc_EndDevice_Atmega128rfa1_Atmega128rfa1_Gcc.a(nwk.o)
 .text.NWK_NextGroup
                0x00000000       0x32 ./../../../../BitCloud/lib/libBc_EndDevice_Atmega128rfa1_Atmega128rfa1_Gcc.a(nwk.o)
 .text.NWK_GetUpdateId
                0x00000000        0x6 ./../../../../BitCloud/lib/libBc_EndDevice_Atmega128rfa1_Atmega128rfa1_Gcc.a(nwk.o)
 .text.NWK_SetSymLink
                0x00000000        0x6 ./../../../../BitCloud/lib/libBc_EndDevice_Atmega128rfa1_Atmega128rfa1_Gcc.a(nwk.o)
 .text.NWK_GetProtocolVersion
                0x00000000        0x6 ./../../../../BitCloud/lib/libBc_EndDevice_Atmega128rfa1_Atmega128rfa1_Gcc.a(nwk.o)
 .text.NWK_FindAnyRouteAtFirstTime
                0x00000000        0x6 ./../../../../BitCloud/lib/libBc_EndDevice_Atmega128rfa1_Atmega128rfa1_Gcc.a(nwk.o)
 .text.NWK_GetNeighborsLqi
                0x00000000       0x3e ./../../../../BitCloud/lib/libBc_EndDevice_Atmega128rfa1_Atmega128rfa1_Gcc.a(nwk.o)
 .text.NWK_GetNeighborsRssi
                0x00000000       0x3e ./../../../../BitCloud/lib/libBc_EndDevice_Atmega128rfa1_Atmega128rfa1_Gcc.a(nwk.o)
 .text.MAC_OrphanInd
                0x00000000        0x2 ./../../../../BitCloud/lib/libBc_EndDevice_Atmega128rfa1_Atmega128rfa1_Gcc.a(nwk.o)
 .text.NWK_GetNextHop
                0x00000000       0x2e ./../../../../BitCloud/lib/libBc_EndDevice_Atmega128rfa1_Atmega128rfa1_Gcc.a(nwk.o)
 .text.MAC_PollInd
                0x00000000        0x2 ./../../../../BitCloud/lib/libBc_EndDevice_Atmega128rfa1_Atmega128rfa1_Gcc.a(nwk.o)
 .text          0x00000000        0x0 ./../../../../BitCloud/lib/libBc_EndDevice_Atmega128rfa1_Atmega128rfa1_Gcc.a(phyRxTxIndicator.o)
 .data          0x00000000        0x0 ./../../../../BitCloud/lib/libBc_EndDevice_Atmega128rfa1_Atmega128rfa1_Gcc.a(phyRxTxIndicator.o)
 .bss           0x00000000        0x0 ./../../../../BitCloud/lib/libBc_EndDevice_Atmega128rfa1_Atmega128rfa1_Gcc.a(phyRxTxIndicator.o)
 .text          0x00000000        0x0 ./../../../../BitCloud/lib/libBc_EndDevice_Atmega128rfa1_Atmega128rfa1_Gcc.a(phyStateMachine.o)
 .data          0x00000000        0x0 ./../../../../BitCloud/lib/libBc_EndDevice_Atmega128rfa1_Atmega128rfa1_Gcc.a(phyStateMachine.o)
 .text          0x00000000        0x0 ./../../../../BitCloud/lib/libBc_EndDevice_Atmega128rfa1_Atmega128rfa1_Gcc.a(queue.o)
 .data          0x00000000        0x0 ./../../../../BitCloud/lib/libBc_EndDevice_Atmega128rfa1_Atmega128rfa1_Gcc.a(queue.o)
 .bss           0x00000000        0x0 ./../../../../BitCloud/lib/libBc_EndDevice_Atmega128rfa1_Atmega128rfa1_Gcc.a(queue.o)
 .text          0x00000000        0x0 ./../../../../BitCloud/lib/libBc_EndDevice_Atmega128rfa1_Atmega128rfa1_Gcc.a(sysDuplicateTable.o)
 .data          0x00000000        0x0 ./../../../../BitCloud/lib/libBc_EndDevice_Atmega128rfa1_Atmega128rfa1_Gcc.a(sysDuplicateTable.o)
 .bss           0x00000000        0x0 ./../../../../BitCloud/lib/libBc_EndDevice_Atmega128rfa1_Atmega128rfa1_Gcc.a(sysDuplicateTable.o)
 .text          0x00000000        0x0 ./../../../../BitCloud/lib/libBc_EndDevice_Atmega128rfa1_Atmega128rfa1_Gcc.a(sysEvents.o)
 .data          0x00000000        0x0 ./../../../../BitCloud/lib/libBc_EndDevice_Atmega128rfa1_Atmega128rfa1_Gcc.a(sysEvents.o)
 .text.SYS_UnsubscribeFromEvent
                0x00000000       0x7c ./../../../../BitCloud/lib/libBc_EndDevice_Atmega128rfa1_Atmega128rfa1_Gcc.a(sysEvents.o)
 .text          0x00000000        0x0 ./../../../../BitCloud/lib/libBc_EndDevice_Atmega128rfa1_Atmega128rfa1_Gcc.a(sysTimer.o)
 .data          0x00000000        0x0 ./../../../../BitCloud/lib/libBc_EndDevice_Atmega128rfa1_Atmega128rfa1_Gcc.a(sysTimer.o)
 .bss           0x00000000        0x0 ./../../../../BitCloud/lib/libBc_EndDevice_Atmega128rfa1_Atmega128rfa1_Gcc.a(sysTimer.o)
 .text          0x00000000        0x0 ./../../../../BitCloud/lib/libBc_EndDevice_Atmega128rfa1_Atmega128rfa1_Gcc.a(taskManager.o)
 .text          0x00000000        0x0 ./../../../../BitCloud/lib/libBc_EndDevice_Atmega128rfa1_Atmega128rfa1_Gcc.a(zdo.o)
 .bss           0x00000000        0x0 ./../../../../BitCloud/lib/libBc_EndDevice_Atmega128rfa1_Atmega128rfa1_Gcc.a(zdo.o)
 .text.setTxPowerConf
                0x00000000       0x30 ./../../../../BitCloud/lib/libBc_EndDevice_Atmega128rfa1_Atmega128rfa1_Gcc.a(zdo.o)
 .text.ZDO_NotifyGeneral
                0x00000000        0x6 ./../../../../BitCloud/lib/libBc_EndDevice_Atmega128rfa1_Atmega128rfa1_Gcc.a(zdo.o)
 .text.ZDO_GetLqiRssi
                0x00000000       0x36 ./../../../../BitCloud/lib/libBc_EndDevice_Atmega128rfa1_Atmega128rfa1_Gcc.a(zdo.o)
 .text.ZDO_GetParentAddr
                0x00000000       0x62 ./../../../../BitCloud/lib/libBc_EndDevice_Atmega128rfa1_Atmega128rfa1_Gcc.a(zdo.o)
 .text.ZDO_GetChildrenAddr
                0x00000000       0xd0 ./../../../../BitCloud/lib/libBc_EndDevice_Atmega128rfa1_Atmega128rfa1_Gcc.a(zdo.o)
 .text.ZDO_SetTxPowerReq
                0x00000000       0x4c ./../../../../BitCloud/lib/libBc_EndDevice_Atmega128rfa1_Atmega128rfa1_Gcc.a(zdo.o)
 .text.ZDO_GetNeibAmount
                0x00000000       0x66 ./../../../../BitCloud/lib/libBc_EndDevice_Atmega128rfa1_Atmega128rfa1_Gcc.a(zdo.o)
 .text.ZDO_GetNeibTable
                0x00000000      0x176 ./../../../../BitCloud/lib/libBc_EndDevice_Atmega128rfa1_Atmega128rfa1_Gcc.a(zdo.o)
 .text.ZDO_SleepReq
                0x00000000       0x3a ./../../../../BitCloud/lib/libBc_EndDevice_Atmega128rfa1_Atmega128rfa1_Gcc.a(zdo.o)
 .text.zdoResetNetworkConf
                0x00000000       0x3c ./../../../../BitCloud/lib/libBc_EndDevice_Atmega128rfa1_Atmega128rfa1_Gcc.a(zdo.o)
 .text.ZDO_SoftwareResetReq
                0x00000000       0x18 ./../../../../BitCloud/lib/libBc_EndDevice_Atmega128rfa1_Atmega128rfa1_Gcc.a(zdo.o)
 .text.ZDO_ResetNetworkReq
                0x00000000       0x2a ./../../../../BitCloud/lib/libBc_EndDevice_Atmega128rfa1_Atmega128rfa1_Gcc.a(zdo.o)
 .text          0x00000000        0x0 ./../../../../BitCloud/lib/libBc_EndDevice_Atmega128rfa1_Atmega128rfa1_Gcc.a(bcSysSleep.o)
 .data          0x00000000        0x0 ./../../../../BitCloud/lib/libBc_EndDevice_Atmega128rfa1_Atmega128rfa1_Gcc.a(bcSysSleep.o)
 .bss           0x00000000        0x0 ./../../../../BitCloud/lib/libBc_EndDevice_Atmega128rfa1_Atmega128rfa1_Gcc.a(bcSysSleep.o)
 .text          0x00000000        0x0 ./../../../../BitCloud/lib/libBc_EndDevice_Atmega128rfa1_Atmega128rfa1_Gcc.a(macMem.o)
 .data          0x00000000        0x0 ./../../../../BitCloud/lib/libBc_EndDevice_Atmega128rfa1_Atmega128rfa1_Gcc.a(macMem.o)
 .bss           0x00000000        0x0 ./../../../../BitCloud/lib/libBc_EndDevice_Atmega128rfa1_Atmega128rfa1_Gcc.a(macMem.o)
 .text          0x00000000        0x0 ./../../../../BitCloud/lib/libBc_EndDevice_Atmega128rfa1_Atmega128rfa1_Gcc.a(machwdManager.o)
 .data          0x00000000        0x0 ./../../../../BitCloud/lib/libBc_EndDevice_Atmega128rfa1_Atmega128rfa1_Gcc.a(machwdManager.o)
 .text.RF_RandomSeqReq
                0x00000000        0xc ./../../../../BitCloud/lib/libBc_EndDevice_Atmega128rfa1_Atmega128rfa1_Gcc.a(machwdManager.o)
 .text.RF_CalibrationReq
                0x00000000        0xc ./../../../../BitCloud/lib/libBc_EndDevice_Atmega128rfa1_Atmega128rfa1_Gcc.a(machwdManager.o)
 .text.RF_RegWriteReq
                0x00000000        0xc ./../../../../BitCloud/lib/libBc_EndDevice_Atmega128rfa1_Atmega128rfa1_Gcc.a(machwdManager.o)
 .text.RF_RegReadReq
                0x00000000        0xc ./../../../../BitCloud/lib/libBc_EndDevice_Atmega128rfa1_Atmega128rfa1_Gcc.a(machwdManager.o)
 .text          0x00000000        0x0 ./../../../../BitCloud/lib/libBc_EndDevice_Atmega128rfa1_Atmega128rfa1_Gcc.a(machwdRegAccessHandler.o)
 .data          0x00000000        0x0 ./../../../../BitCloud/lib/libBc_EndDevice_Atmega128rfa1_Atmega128rfa1_Gcc.a(machwdRegAccessHandler.o)
 .text.machwdResetRegAccessHandler
                0x00000000        0x6 ./../../../../BitCloud/lib/libBc_EndDevice_Atmega128rfa1_Atmega128rfa1_Gcc.a(machwdRegAccessHandler.o)
 .text          0x00000000        0x0 ./../../../../BitCloud/lib/libBc_EndDevice_Atmega128rfa1_Atmega128rfa1_Gcc.a(machwdResetHandler.o)
 .data          0x00000000        0x0 ./../../../../BitCloud/lib/libBc_EndDevice_Atmega128rfa1_Atmega128rfa1_Gcc.a(machwdResetHandler.o)
 .bss           0x00000000        0x0 ./../../../../BitCloud/lib/libBc_EndDevice_Atmega128rfa1_Atmega128rfa1_Gcc.a(machwdResetHandler.o)
 .text          0x00000000        0x0 ./../../../../BitCloud/lib/libBc_EndDevice_Atmega128rfa1_Atmega128rfa1_Gcc.a(machwdRndHandler.o)
 .data          0x00000000        0x0 ./../../../../BitCloud/lib/libBc_EndDevice_Atmega128rfa1_Atmega128rfa1_Gcc.a(machwdRndHandler.o)
 .text          0x00000000        0x0 ./../../../../BitCloud/lib/libBc_EndDevice_Atmega128rfa1_Atmega128rfa1_Gcc.a(machwdRxBuffer.o)
 .data          0x00000000        0x0 ./../../../../BitCloud/lib/libBc_EndDevice_Atmega128rfa1_Atmega128rfa1_Gcc.a(machwdRxBuffer.o)
 .bss           0x00000000        0x0 ./../../../../BitCloud/lib/libBc_EndDevice_Atmega128rfa1_Atmega128rfa1_Gcc.a(machwdRxBuffer.o)
 .text          0x00000000        0x0 ./../../../../BitCloud/lib/libBc_EndDevice_Atmega128rfa1_Atmega128rfa1_Gcc.a(machwdRxFrameHandler.o)
 .data          0x00000000        0x0 ./../../../../BitCloud/lib/libBc_EndDevice_Atmega128rfa1_Atmega128rfa1_Gcc.a(machwdRxFrameHandler.o)
 .bss           0x00000000        0x0 ./../../../../BitCloud/lib/libBc_EndDevice_Atmega128rfa1_Atmega128rfa1_Gcc.a(machwdRxFrameHandler.o)
 .text          0x00000000        0x0 ./../../../../BitCloud/lib/libBc_EndDevice_Atmega128rfa1_Atmega128rfa1_Gcc.a(machwdSetHandler.o)
 .data          0x00000000        0x0 ./../../../../BitCloud/lib/libBc_EndDevice_Atmega128rfa1_Atmega128rfa1_Gcc.a(machwdSetHandler.o)
 .text.machwdIsBeaconRxMode
                0x00000000        0x6 ./../../../../BitCloud/lib/libBc_EndDevice_Atmega128rfa1_Atmega128rfa1_Gcc.a(machwdSetHandler.o)
 .text          0x00000000        0x0 ./../../../../BitCloud/lib/libBc_EndDevice_Atmega128rfa1_Atmega128rfa1_Gcc.a(machwdTrxCtrl.o)
 .bss           0x00000000        0x0 ./../../../../BitCloud/lib/libBc_EndDevice_Atmega128rfa1_Atmega128rfa1_Gcc.a(machwdTrxCtrl.o)
 .text          0x00000000        0x0 ./../../../../BitCloud/lib/libBc_EndDevice_Atmega128rfa1_Atmega128rfa1_Gcc.a(machwdTrxHandler.o)
 .data          0x00000000        0x0 ./../../../../BitCloud/lib/libBc_EndDevice_Atmega128rfa1_Atmega128rfa1_Gcc.a(machwdTrxHandler.o)
 .text          0x00000000        0x0 ./../../../../BitCloud/lib/libBc_EndDevice_Atmega128rfa1_Atmega128rfa1_Gcc.a(machwdTxFrameHandler.o)
 .data          0x00000000        0x0 ./../../../../BitCloud/lib/libBc_EndDevice_Atmega128rfa1_Atmega128rfa1_Gcc.a(machwdTxFrameHandler.o)
 .text          0x00000000        0x0 ./../../../../BitCloud/lib/libBc_EndDevice_Atmega128rfa1_Atmega128rfa1_Gcc.a(machwiManager.o)
 .data          0x00000000        0x0 ./../../../../BitCloud/lib/libBc_EndDevice_Atmega128rfa1_Atmega128rfa1_Gcc.a(machwiManager.o)
 .bss           0x00000000        0x0 ./../../../../BitCloud/lib/libBc_EndDevice_Atmega128rfa1_Atmega128rfa1_Gcc.a(machwiManager.o)
 .text          0x00000000        0x0 ./../../../../BitCloud/lib/libBc_EndDevice_Atmega128rfa1_Atmega128rfa1_Gcc.a(machwiPanServer.o)
 .data          0x00000000        0x0 ./../../../../BitCloud/lib/libBc_EndDevice_Atmega128rfa1_Atmega128rfa1_Gcc.a(machwiPanServer.o)
 .bss           0x00000000        0x0 ./../../../../BitCloud/lib/libBc_EndDevice_Atmega128rfa1_Atmega128rfa1_Gcc.a(machwiPanServer.o)
 .text          0x00000000        0x0 ./../../../../BitCloud/lib/libBc_EndDevice_Atmega128rfa1_Atmega128rfa1_Gcc.a(machwiPollHandler.o)
 .data          0x00000000        0x0 ./../../../../BitCloud/lib/libBc_EndDevice_Atmega128rfa1_Atmega128rfa1_Gcc.a(machwiPollHandler.o)
 .bss           0x00000000        0x0 ./../../../../BitCloud/lib/libBc_EndDevice_Atmega128rfa1_Atmega128rfa1_Gcc.a(machwiPollHandler.o)
 .text          0x00000000        0x0 ./../../../../BitCloud/lib/libBc_EndDevice_Atmega128rfa1_Atmega128rfa1_Gcc.a(machwiResetHandler.o)
 .data          0x00000000        0x0 ./../../../../BitCloud/lib/libBc_EndDevice_Atmega128rfa1_Atmega128rfa1_Gcc.a(machwiResetHandler.o)
 .bss           0x00000000        0x0 ./../../../../BitCloud/lib/libBc_EndDevice_Atmega128rfa1_Atmega128rfa1_Gcc.a(machwiResetHandler.o)
 .text          0x00000000        0x0 ./../../../../BitCloud/lib/libBc_EndDevice_Atmega128rfa1_Atmega128rfa1_Gcc.a(machwiRxEnableHandler.o)
 .data          0x00000000        0x0 ./../../../../BitCloud/lib/libBc_EndDevice_Atmega128rfa1_Atmega128rfa1_Gcc.a(machwiRxEnableHandler.o)
 .bss           0x00000000        0x0 ./../../../../BitCloud/lib/libBc_EndDevice_Atmega128rfa1_Atmega128rfa1_Gcc.a(machwiRxEnableHandler.o)
 .text          0x00000000        0x0 ./../../../../BitCloud/lib/libBc_EndDevice_Atmega128rfa1_Atmega128rfa1_Gcc.a(machwiScanHandler.o)
 .data          0x00000000        0x0 ./../../../../BitCloud/lib/libBc_EndDevice_Atmega128rfa1_Atmega128rfa1_Gcc.a(machwiScanHandler.o)
 .text          0x00000000        0x0 ./../../../../BitCloud/lib/libBc_EndDevice_Atmega128rfa1_Atmega128rfa1_Gcc.a(machwiSetGetHandler.o)
 .bss           0x00000000        0x0 ./../../../../BitCloud/lib/libBc_EndDevice_Atmega128rfa1_Atmega128rfa1_Gcc.a(machwiSetGetHandler.o)
 .text          0x00000000        0x0 ./../../../../BitCloud/lib/libBc_EndDevice_Atmega128rfa1_Atmega128rfa1_Gcc.a(machwiSwitchRxCtrl.o)
 .data          0x00000000        0x0 ./../../../../BitCloud/lib/libBc_EndDevice_Atmega128rfa1_Atmega128rfa1_Gcc.a(machwiSwitchRxCtrl.o)
 .bss           0x00000000        0x0 ./../../../../BitCloud/lib/libBc_EndDevice_Atmega128rfa1_Atmega128rfa1_Gcc.a(machwiSwitchRxCtrl.o)
 .text          0x00000000        0x0 ./../../../../BitCloud/lib/libBc_EndDevice_Atmega128rfa1_Atmega128rfa1_Gcc.a(phyInit.o)
 .data          0x00000000        0x0 ./../../../../BitCloud/lib/libBc_EndDevice_Atmega128rfa1_Atmega128rfa1_Gcc.a(phyInit.o)
 .bss           0x00000000        0x0 ./../../../../BitCloud/lib/libBc_EndDevice_Atmega128rfa1_Atmega128rfa1_Gcc.a(phyInit.o)
 .text          0x00000000        0x0 ./../../../../BitCloud/lib/libBc_EndDevice_Atmega128rfa1_Atmega128rfa1_Gcc.a(phyRegAccess.o)
 .data          0x00000000        0x0 ./../../../../BitCloud/lib/libBc_EndDevice_Atmega128rfa1_Atmega128rfa1_Gcc.a(phyRegAccess.o)
 .bss           0x00000000        0x0 ./../../../../BitCloud/lib/libBc_EndDevice_Atmega128rfa1_Atmega128rfa1_Gcc.a(phyRegAccess.o)
 .text          0x00000000        0x0 ./../../../../BitCloud/lib/libBc_EndDevice_Atmega128rfa1_Atmega128rfa1_Gcc.a(phyReset.o)
 .data          0x00000000        0x0 ./../../../../BitCloud/lib/libBc_EndDevice_Atmega128rfa1_Atmega128rfa1_Gcc.a(phyReset.o)
 .bss           0x00000000        0x0 ./../../../../BitCloud/lib/libBc_EndDevice_Atmega128rfa1_Atmega128rfa1_Gcc.a(phyReset.o)
 .text          0x00000000        0x0 ./../../../../BitCloud/lib/libBc_EndDevice_Atmega128rfa1_Atmega128rfa1_Gcc.a(phyRfIrqDispatcher.o)
 .text          0x00000000        0x0 ./../../../../BitCloud/lib/libBc_EndDevice_Atmega128rfa1_Atmega128rfa1_Gcc.a(phyRnd.o)
 .data          0x00000000        0x0 ./../../../../BitCloud/lib/libBc_EndDevice_Atmega128rfa1_Atmega128rfa1_Gcc.a(phyRnd.o)
 .bss           0x00000000        0x0 ./../../../../BitCloud/lib/libBc_EndDevice_Atmega128rfa1_Atmega128rfa1_Gcc.a(phyRnd.o)
 .text          0x00000000        0x0 ./../../../../BitCloud/lib/libBc_EndDevice_Atmega128rfa1_Atmega128rfa1_Gcc.a(phyRxFrame.o)
 .data          0x00000000        0x0 ./../../../../BitCloud/lib/libBc_EndDevice_Atmega128rfa1_Atmega128rfa1_Gcc.a(phyRxFrame.o)
 .bss           0x00000000        0x0 ./../../../../BitCloud/lib/libBc_EndDevice_Atmega128rfa1_Atmega128rfa1_Gcc.a(phyRxFrame.o)
 .text          0x00000000        0x0 ./../../../../BitCloud/lib/libBc_EndDevice_Atmega128rfa1_Atmega128rfa1_Gcc.a(phySet.o)
 .data          0x00000000        0x0 ./../../../../BitCloud/lib/libBc_EndDevice_Atmega128rfa1_Atmega128rfa1_Gcc.a(phySet.o)
 .text          0x00000000        0x0 ./../../../../BitCloud/lib/libBc_EndDevice_Atmega128rfa1_Atmega128rfa1_Gcc.a(phySetTrxState.o)
 .data          0x00000000        0x0 ./../../../../BitCloud/lib/libBc_EndDevice_Atmega128rfa1_Atmega128rfa1_Gcc.a(phySetTrxState.o)
 .bss           0x00000000        0x0 ./../../../../BitCloud/lib/libBc_EndDevice_Atmega128rfa1_Atmega128rfa1_Gcc.a(phySetTrxState.o)
 COMMON         0x00000000        0x1 ./../../../../BitCloud/lib/libBc_EndDevice_Atmega128rfa1_Atmega128rfa1_Gcc.a(phySetTrxState.o)
 .text          0x00000000        0x0 ./../../../../BitCloud/lib/libBc_EndDevice_Atmega128rfa1_Atmega128rfa1_Gcc.a(phyTxFrame.o)
 .data          0x00000000        0x0 ./../../../../BitCloud/lib/libBc_EndDevice_Atmega128rfa1_Atmega128rfa1_Gcc.a(phyTxFrame.o)
 .bss           0x00000000        0x0 ./../../../../BitCloud/lib/libBc_EndDevice_Atmega128rfa1_Atmega128rfa1_Gcc.a(phyTxFrame.o)
 .text          0x00000000        0x0 ./../../../../BitCloud/lib/libBc_EndDevice_Atmega128rfa1_Atmega128rfa1_Gcc.a(machwdCalibHandler.o)
 .data          0x00000000        0x0 ./../../../../BitCloud/lib/libBc_EndDevice_Atmega128rfa1_Atmega128rfa1_Gcc.a(machwdCalibHandler.o)
 .text          0x00000000        0x0 ./../../../../BitCloud/lib/libBc_EndDevice_Atmega128rfa1_Atmega128rfa1_Gcc.a(machwdEdHandler.o)
 .data          0x00000000        0x0 ./../../../../BitCloud/lib/libBc_EndDevice_Atmega128rfa1_Atmega128rfa1_Gcc.a(machwdEdHandler.o)
 .text          0x00000000        0x0 ./../../../../BitCloud/lib/libBc_EndDevice_Atmega128rfa1_Atmega128rfa1_Gcc.a(machwdFrameRoutine.o)
 .bss           0x00000000        0x0 ./../../../../BitCloud/lib/libBc_EndDevice_Atmega128rfa1_Atmega128rfa1_Gcc.a(machwdFrameRoutine.o)
 .text          0x00000000        0x0 ./../../../../BitCloud/lib/libBc_EndDevice_Atmega128rfa1_Atmega128rfa1_Gcc.a(machwdHandlerCtrl.o)
 .data          0x00000000        0x0 ./../../../../BitCloud/lib/libBc_EndDevice_Atmega128rfa1_Atmega128rfa1_Gcc.a(machwdHandlerCtrl.o)
 .text          0x00000000        0x0 ./../../../../BitCloud/lib/libBc_EndDevice_Atmega128rfa1_Atmega128rfa1_Gcc.a(machwiAssociateHandler.o)
 .data          0x00000000        0x0 ./../../../../BitCloud/lib/libBc_EndDevice_Atmega128rfa1_Atmega128rfa1_Gcc.a(machwiAssociateHandler.o)
 .bss           0x00000000        0x0 ./../../../../BitCloud/lib/libBc_EndDevice_Atmega128rfa1_Atmega128rfa1_Gcc.a(machwiAssociateHandler.o)
 .text          0x00000000        0x0 ./../../../../BitCloud/lib/libBc_EndDevice_Atmega128rfa1_Atmega128rfa1_Gcc.a(machwiDataHandler.o)
 .bss           0x00000000        0x0 ./../../../../BitCloud/lib/libBc_EndDevice_Atmega128rfa1_Atmega128rfa1_Gcc.a(machwiDataHandler.o)
 .text          0x00000000        0x0 ./../../../../BitCloud/lib/libBc_EndDevice_Atmega128rfa1_Atmega128rfa1_Gcc.a(phyCalib.o)
 .data          0x00000000        0x0 ./../../../../BitCloud/lib/libBc_EndDevice_Atmega128rfa1_Atmega128rfa1_Gcc.a(phyCalib.o)
 .bss           0x00000000        0x0 ./../../../../BitCloud/lib/libBc_EndDevice_Atmega128rfa1_Atmega128rfa1_Gcc.a(phyCalib.o)
 .text          0x00000000        0x0 ./../../../../BitCloud/lib/libBc_EndDevice_Atmega128rfa1_Atmega128rfa1_Gcc.a(phyEd.o)
 .data          0x00000000        0x0 ./../../../../BitCloud/lib/libBc_EndDevice_Atmega128rfa1_Atmega128rfa1_Gcc.a(phyEd.o)
 .bss           0x00000000        0x0 ./../../../../BitCloud/lib/libBc_EndDevice_Atmega128rfa1_Atmega128rfa1_Gcc.a(phyEd.o)
 .text          0x00000000        0x0 ./../../../../BitCloud/lib/libBc_EndDevice_Atmega128rfa1_Atmega128rfa1_Gcc.a(phyRtimerIrqDispatcher.o)
 .data          0x00000000        0x0 ./../../../../BitCloud/lib/libBc_EndDevice_Atmega128rfa1_Atmega128rfa1_Gcc.a(phyRtimerIrqDispatcher.o)
 .bss           0x00000000        0x0 ./../../../../BitCloud/lib/libBc_EndDevice_Atmega128rfa1_Atmega128rfa1_Gcc.a(phyRtimerIrqDispatcher.o)
 .text          0x00000000        0x0 ./../../../../BitCloud/lib/WdtInitatmega128rfa1_Gcc.o
 .data          0x00000000        0x0 ./../../../../BitCloud/lib/WdtInitatmega128rfa1_Gcc.o
 .bss           0x00000000        0x0 ./../../../../BitCloud/lib/WdtInitatmega128rfa1_Gcc.o
 .text          0x00000000        0x0 ./../../../../BitCloud/lib/libHAL_RcbAtm128rfa1_Atmega128rfa1_8Mhz_Gcc.a(halDelay.o)
 .data          0x00000000        0x0 ./../../../../BitCloud/lib/libHAL_RcbAtm128rfa1_Atmega128rfa1_8Mhz_Gcc.a(halDelay.o)
 .bss           0x00000000        0x0 ./../../../../BitCloud/lib/libHAL_RcbAtm128rfa1_Atmega128rfa1_8Mhz_Gcc.a(halDelay.o)
 .text          0x00000000        0x0 ./../../../../BitCloud/lib/libHAL_RcbAtm128rfa1_Atmega128rfa1_8Mhz_Gcc.a(halInit.o)
 .data          0x00000000        0x0 ./../../../../BitCloud/lib/libHAL_RcbAtm128rfa1_Atmega128rfa1_8Mhz_Gcc.a(halInit.o)
 .bss           0x00000000        0x0 ./../../../../BitCloud/lib/libHAL_RcbAtm128rfa1_Atmega128rfa1_8Mhz_Gcc.a(halInit.o)
 .text          0x00000000        0x0 ./../../../../BitCloud/lib/libHAL_RcbAtm128rfa1_Atmega128rfa1_8Mhz_Gcc.a(halRfCtrl.o)
 .data          0x00000000        0x0 ./../../../../BitCloud/lib/libHAL_RcbAtm128rfa1_Atmega128rfa1_8Mhz_Gcc.a(halRfCtrl.o)
 .bss           0x00000000        0x0 ./../../../../BitCloud/lib/libHAL_RcbAtm128rfa1_Atmega128rfa1_8Mhz_Gcc.a(halRfCtrl.o)
 .text          0x00000000        0x0 ./../../../../BitCloud/lib/libHAL_RcbAtm128rfa1_Atmega128rfa1_8Mhz_Gcc.a(halUid.o)
 .data          0x00000000        0x0 ./../../../../BitCloud/lib/libHAL_RcbAtm128rfa1_Atmega128rfa1_8Mhz_Gcc.a(halUid.o)
 .text          0x00000000        0x0 ./../../../../BitCloud/lib/libHAL_RcbAtm128rfa1_Atmega128rfa1_8Mhz_Gcc.a(halMacIsr.o)
 .data          0x00000000        0x0 ./../../../../BitCloud/lib/libHAL_RcbAtm128rfa1_Atmega128rfa1_8Mhz_Gcc.a(halMacIsr.o)
 .bss           0x00000000        0x0 ./../../../../BitCloud/lib/libHAL_RcbAtm128rfa1_Atmega128rfa1_8Mhz_Gcc.a(halMacIsr.o)
 .text          0x00000000        0x0 d:/program files/atmel/avr studio 5.1/extensions/atmel/avrgcc/3.3.1.27/avrtoolchain/bin/../lib/gcc/avr/4.5.1/avr51\libgcc.a(_mulsi3.o)
 .data          0x00000000        0x0 d:/program files/atmel/avr studio 5.1/extensions/atmel/avrgcc/3.3.1.27/avrtoolchain/bin/../lib/gcc/avr/4.5.1/avr51\libgcc.a(_mulsi3.o)
 .bss           0x00000000        0x0 d:/program files/atmel/avr studio 5.1/extensions/atmel/avrgcc/3.3.1.27/avrtoolchain/bin/../lib/gcc/avr/4.5.1/avr51\libgcc.a(_mulsi3.o)
 .text          0x00000000        0x0 d:/program files/atmel/avr studio 5.1/extensions/atmel/avrgcc/3.3.1.27/avrtoolchain/bin/../lib/gcc/avr/4.5.1/avr51\libgcc.a(_udivmodqi4.o)
 .data          0x00000000        0x0 d:/program files/atmel/avr studio 5.1/extensions/atmel/avrgcc/3.3.1.27/avrtoolchain/bin/../lib/gcc/avr/4.5.1/avr51\libgcc.a(_udivmodqi4.o)
 .bss           0x00000000        0x0 d:/program files/atmel/avr studio 5.1/extensions/atmel/avrgcc/3.3.1.27/avrtoolchain/bin/../lib/gcc/avr/4.5.1/avr51\libgcc.a(_udivmodqi4.o)
 .text          0x00000000        0x0 d:/program files/atmel/avr studio 5.1/extensions/atmel/avrgcc/3.3.1.27/avrtoolchain/bin/../lib/gcc/avr/4.5.1/avr51\libgcc.a(_udivmodhi4.o)
 .data          0x00000000        0x0 d:/program files/atmel/avr studio 5.1/extensions/atmel/avrgcc/3.3.1.27/avrtoolchain/bin/../lib/gcc/avr/4.5.1/avr51\libgcc.a(_udivmodhi4.o)
 .bss           0x00000000        0x0 d:/program files/atmel/avr studio 5.1/extensions/atmel/avrgcc/3.3.1.27/avrtoolchain/bin/../lib/gcc/avr/4.5.1/avr51\libgcc.a(_udivmodhi4.o)
 .text          0x00000000        0x0 d:/program files/atmel/avr studio 5.1/extensions/atmel/avrgcc/3.3.1.27/avrtoolchain/bin/../lib/gcc/avr/4.5.1/avr51\libgcc.a(_udivmodsi4.o)
 .data          0x00000000        0x0 d:/program files/atmel/avr studio 5.1/extensions/atmel/avrgcc/3.3.1.27/avrtoolchain/bin/../lib/gcc/avr/4.5.1/avr51\libgcc.a(_udivmodsi4.o)
 .bss           0x00000000        0x0 d:/program files/atmel/avr studio 5.1/extensions/atmel/avrgcc/3.3.1.27/avrtoolchain/bin/../lib/gcc/avr/4.5.1/avr51\libgcc.a(_udivmodsi4.o)
 .text          0x00000000        0x0 d:/program files/atmel/avr studio 5.1/extensions/atmel/avrgcc/3.3.1.27/avrtoolchain/bin/../lib/gcc/avr/4.5.1/avr51\libgcc.a(_prologue.o)
 .data          0x00000000        0x0 d:/program files/atmel/avr studio 5.1/extensions/atmel/avrgcc/3.3.1.27/avrtoolchain/bin/../lib/gcc/avr/4.5.1/avr51\libgcc.a(_prologue.o)
 .bss           0x00000000        0x0 d:/program files/atmel/avr studio 5.1/extensions/atmel/avrgcc/3.3.1.27/avrtoolchain/bin/../lib/gcc/avr/4.5.1/avr51\libgcc.a(_prologue.o)
 .text          0x00000000        0x0 d:/program files/atmel/avr studio 5.1/extensions/atmel/avrgcc/3.3.1.27/avrtoolchain/bin/../lib/gcc/avr/4.5.1/avr51\libgcc.a(_epilogue.o)
 .data          0x00000000        0x0 d:/program files/atmel/avr studio 5.1/extensions/atmel/avrgcc/3.3.1.27/avrtoolchain/bin/../lib/gcc/avr/4.5.1/avr51\libgcc.a(_epilogue.o)
 .bss           0x00000000        0x0 d:/program files/atmel/avr studio 5.1/extensions/atmel/avrgcc/3.3.1.27/avrtoolchain/bin/../lib/gcc/avr/4.5.1/avr51\libgcc.a(_epilogue.o)
 .text          0x00000000        0x0 d:/program files/atmel/avr studio 5.1/extensions/atmel/avrgcc/3.3.1.27/avrtoolchain/bin/../lib/gcc/avr/4.5.1/avr51\libgcc.a(_exit.o)
 .data          0x00000000        0x0 d:/program files/atmel/avr studio 5.1/extensions/atmel/avrgcc/3.3.1.27/avrtoolchain/bin/../lib/gcc/avr/4.5.1/avr51\libgcc.a(_exit.o)
 .bss           0x00000000        0x0 d:/program files/atmel/avr studio 5.1/extensions/atmel/avrgcc/3.3.1.27/avrtoolchain/bin/../lib/gcc/avr/4.5.1/avr51\libgcc.a(_exit.o)
 .text.libgcc   0x00000000        0x0 d:/program files/atmel/avr studio 5.1/extensions/atmel/avrgcc/3.3.1.27/avrtoolchain/bin/../lib/gcc/avr/4.5.1/avr51\libgcc.a(_exit.o)
 .fini9         0x00000000        0x0 d:/program files/atmel/avr studio 5.1/extensions/atmel/avrgcc/3.3.1.27/avrtoolchain/bin/../lib/gcc/avr/4.5.1/avr51\libgcc.a(_exit.o)
 .fini0         0x00000000        0x4 d:/program files/atmel/avr studio 5.1/extensions/atmel/avrgcc/3.3.1.27/avrtoolchain/bin/../lib/gcc/avr/4.5.1/avr51\libgcc.a(_exit.o)
 .text          0x00000000        0x0 d:/program files/atmel/avr studio 5.1/extensions/atmel/avrgcc/3.3.1.27/avrtoolchain/bin/../lib/gcc/avr/4.5.1/avr51\libgcc.a(_tablejump.o)
 .data          0x00000000        0x0 d:/program files/atmel/avr studio 5.1/extensions/atmel/avrgcc/3.3.1.27/avrtoolchain/bin/../lib/gcc/avr/4.5.1/avr51\libgcc.a(_tablejump.o)
 .bss           0x00000000        0x0 d:/program files/atmel/avr studio 5.1/extensions/atmel/avrgcc/3.3.1.27/avrtoolchain/bin/../lib/gcc/avr/4.5.1/avr51\libgcc.a(_tablejump.o)
 .text          0x00000000        0x0 d:/program files/atmel/avr studio 5.1/extensions/atmel/avrgcc/3.3.1.27/avrtoolchain/bin/../lib/gcc/avr/4.5.1/avr51\libgcc.a(_copy_data.o)
 .data          0x00000000        0x0 d:/program files/atmel/avr studio 5.1/extensions/atmel/avrgcc/3.3.1.27/avrtoolchain/bin/../lib/gcc/avr/4.5.1/avr51\libgcc.a(_copy_data.o)
 .bss           0x00000000        0x0 d:/program files/atmel/avr studio 5.1/extensions/atmel/avrgcc/3.3.1.27/avrtoolchain/bin/../lib/gcc/avr/4.5.1/avr51\libgcc.a(_copy_data.o)
 .text.libgcc   0x00000000        0x0 d:/program files/atmel/avr studio 5.1/extensions/atmel/avrgcc/3.3.1.27/avrtoolchain/bin/../lib/gcc/avr/4.5.1/avr51\libgcc.a(_copy_data.o)
 .text          0x00000000        0x0 d:/program files/atmel/avr studio 5.1/extensions/atmel/avrgcc/3.3.1.27/avrtoolchain/bin/../lib/gcc/avr/4.5.1/avr51\libgcc.a(_clear_bss.o)
 .data          0x00000000        0x0 d:/program files/atmel/avr studio 5.1/extensions/atmel/avrgcc/3.3.1.27/avrtoolchain/bin/../lib/gcc/avr/4.5.1/avr51\libgcc.a(_clear_bss.o)
 .bss           0x00000000        0x0 d:/program files/atmel/avr studio 5.1/extensions/atmel/avrgcc/3.3.1.27/avrtoolchain/bin/../lib/gcc/avr/4.5.1/avr51\libgcc.a(_clear_bss.o)
 .text.libgcc   0x00000000        0x0 d:/program files/atmel/avr studio 5.1/extensions/atmel/avrgcc/3.3.1.27/avrtoolchain/bin/../lib/gcc/avr/4.5.1/avr51\libgcc.a(_clear_bss.o)
 .data          0x00000000        0x0 d:/program files/atmel/avr studio 5.1/extensions/atmel/avrgcc/3.3.1.27/avrtoolchain/bin/../lib/gcc/avr/4.5.1/avr51\libgcc.a(_ashldi3.o)
 .bss           0x00000000        0x0 d:/program files/atmel/avr studio 5.1/extensions/atmel/avrgcc/3.3.1.27/avrtoolchain/bin/../lib/gcc/avr/4.5.1/avr51\libgcc.a(_ashldi3.o)
 .text          0x00000000        0x0 d:/program files/atmel/avr studio 5.1/extensions/atmel/avrgcc/3.3.1.27/avrtoolchain/bin/../lib/gcc/avr/4.5.1/../../../../avr/lib/avr51\libc.a(rand.o)
 .bss           0x00000000        0x0 d:/program files/atmel/avr studio 5.1/extensions/atmel/avrgcc/3.3.1.27/avrtoolchain/bin/../lib/gcc/avr/4.5.1/../../../../avr/lib/avr51\libc.a(rand.o)
 .text          0x00000000        0x0 d:/program files/atmel/avr studio 5.1/extensions/atmel/avrgcc/3.3.1.27/avrtoolchain/bin/../lib/gcc/avr/4.5.1/../../../../avr/lib/avr51\libc.a(memcpy_P.o)
 .data          0x00000000        0x0 d:/program files/atmel/avr studio 5.1/extensions/atmel/avrgcc/3.3.1.27/avrtoolchain/bin/../lib/gcc/avr/4.5.1/../../../../avr/lib/avr51\libc.a(memcpy_P.o)
 .bss           0x00000000        0x0 d:/program files/atmel/avr studio 5.1/extensions/atmel/avrgcc/3.3.1.27/avrtoolchain/bin/../lib/gcc/avr/4.5.1/../../../../avr/lib/avr51\libc.a(memcpy_P.o)
 .text          0x00000000        0x0 d:/program files/atmel/avr studio 5.1/extensions/atmel/avrgcc/3.3.1.27/avrtoolchain/bin/../lib/gcc/avr/4.5.1/../../../../avr/lib/avr51\libc.a(memcmp.o)
 .data          0x00000000        0x0 d:/program files/atmel/avr studio 5.1/extensions/atmel/avrgcc/3.3.1.27/avrtoolchain/bin/../lib/gcc/avr/4.5.1/../../../../avr/lib/avr51\libc.a(memcmp.o)
 .bss           0x00000000        0x0 d:/program files/atmel/avr studio 5.1/extensions/atmel/avrgcc/3.3.1.27/avrtoolchain/bin/../lib/gcc/avr/4.5.1/../../../../avr/lib/avr51\libc.a(memcmp.o)
 .text          0x00000000        0x0 d:/program files/atmel/avr studio 5.1/extensions/atmel/avrgcc/3.3.1.27/avrtoolchain/bin/../lib/gcc/avr/4.5.1/../../../../avr/lib/avr51\libc.a(memcpy.o)
 .data          0x00000000        0x0 d:/program files/atmel/avr studio 5.1/extensions/atmel/avrgcc/3.3.1.27/avrtoolchain/bin/../lib/gcc/avr/4.5.1/../../../../avr/lib/avr51\libc.a(memcpy.o)
 .bss           0x00000000        0x0 d:/program files/atmel/avr studio 5.1/extensions/atmel/avrgcc/3.3.1.27/avrtoolchain/bin/../lib/gcc/avr/4.5.1/../../../../avr/lib/avr51\libc.a(memcpy.o)
 .text          0x00000000        0x0 d:/program files/atmel/avr studio 5.1/extensions/atmel/avrgcc/3.3.1.27/avrtoolchain/bin/../lib/gcc/avr/4.5.1/../../../../avr/lib/avr51\libc.a(memmove.o)
 .data          0x00000000        0x0 d:/program files/atmel/avr studio 5.1/extensions/atmel/avrgcc/3.3.1.27/avrtoolchain/bin/../lib/gcc/avr/4.5.1/../../../../avr/lib/avr51\libc.a(memmove.o)
 .bss           0x00000000        0x0 d:/program files/atmel/avr studio 5.1/extensions/atmel/avrgcc/3.3.1.27/avrtoolchain/bin/../lib/gcc/avr/4.5.1/../../../../avr/lib/avr51\libc.a(memmove.o)
 .text          0x00000000        0x0 d:/program files/atmel/avr studio 5.1/extensions/atmel/avrgcc/3.3.1.27/avrtoolchain/bin/../lib/gcc/avr/4.5.1/../../../../avr/lib/avr51\libc.a(memset.o)
 .data          0x00000000        0x0 d:/program files/atmel/avr studio 5.1/extensions/atmel/avrgcc/3.3.1.27/avrtoolchain/bin/../lib/gcc/avr/4.5.1/../../../../avr/lib/avr51\libc.a(memset.o)
 .bss           0x00000000        0x0 d:/program files/atmel/avr studio 5.1/extensions/atmel/avrgcc/3.3.1.27/avrtoolchain/bin/../lib/gcc/avr/4.5.1/../../../../avr/lib/avr51\libc.a(memset.o)
 .text          0x00000000        0x0 d:/program files/atmel/avr studio 5.1/extensions/atmel/avrgcc/3.3.1.27/avrtoolchain/bin/../lib/gcc/avr/4.5.1/../../../../avr/lib/avr51\libc.a(strcpy.o)
 .data          0x00000000        0x0 d:/program files/atmel/avr studio 5.1/extensions/atmel/avrgcc/3.3.1.27/avrtoolchain/bin/../lib/gcc/avr/4.5.1/../../../../avr/lib/avr51\libc.a(strcpy.o)
 .bss           0x00000000        0x0 d:/program files/atmel/avr studio 5.1/extensions/atmel/avrgcc/3.3.1.27/avrtoolchain/bin/../lib/gcc/avr/4.5.1/../../../../avr/lib/avr51\libc.a(strcpy.o)
 .text          0x00000000        0x0 d:/program files/atmel/avr studio 5.1/extensions/atmel/avrgcc/3.3.1.27/avrtoolchain/bin/../lib/gcc/avr/4.5.1/avr51\libgcc.a(_divmodsi4.o)
 .data          0x00000000        0x0 d:/program files/atmel/avr studio 5.1/extensions/atmel/avrgcc/3.3.1.27/avrtoolchain/bin/../lib/gcc/avr/4.5.1/avr51\libgcc.a(_divmodsi4.o)
 .bss           0x00000000        0x0 d:/program files/atmel/avr studio 5.1/extensions/atmel/avrgcc/3.3.1.27/avrtoolchain/bin/../lib/gcc/avr/4.5.1/avr51\libgcc.a(_divmodsi4.o)

Memory Configuration

Name             Origin             Length             Attributes
text             0x00000000         0x00020000         xr
data             0x00800190         0x00003e0c         rw !x
eeprom           0x00810000         0x00001000         rw !x
*default*        0x00000000         0xffffffff

Linker script and memory map

Address of section .data set to 0x800200
LOAD d:/program files/atmel/avr studio 5.1/extensions/atmel/avrgcc/3.3.1.27/avrtoolchain/bin/../lib/gcc/avr/4.5.1/../../../../avr/lib/avr51/crtm128rfa1.o

.text           0x00000000    0x11a5a
                0x00000000                PROVIDE (__text_start, .)
 *(.vectors)
 .vectors       0x00000000      0x120 d:/program files/atmel/avr studio 5.1/extensions/atmel/avrgcc/3.3.1.27/avrtoolchain/bin/../lib/gcc/avr/4.5.1/../../../../avr/lib/avr51/crtm128rfa1.o
                0x00000000                __vector_default
                0x00000000                __vectors
 *(.vectors)
                0x00000120                PROVIDE (__pds_ff_start, .)
 *(.pds_ff)
 .pds_ff        0x00000120       0x8a EndDevice_Rcb_Atmega128rfa1_8Mhz_Gcc/Obj/csPersistentMem.o
                0x00000120                csGeneralFileDescriptors
                0x00000180                csExtendedFileDescriptors
                0x00000198                csNeighborTableFileDescriptor
                0x0000019e                csGroupTableFileDescriptor
                0x000001a4                csBindingTableFileDescriptor
                0x000001aa                PROVIDE (__pds_ff_end, .)
                0x000001aa                PROVIDE (__pds_fd_start, .)
 *(.pds_fd)
 .pds_fd        0x000001aa       0x24 EndDevice_Rcb_Atmega128rfa1_8Mhz_Gcc/Obj/csPersistentMem.o
                0x000001aa                csGeneralParamsDirDescr
                0x000001b0                csExtendedParamsDirDescr
                0x000001b6                csNwkSecurityTablesDirDescr
                0x000001bc                BCSystemDirDescr
                0x000001c2                BCExtGenParamsDirDescr
                0x000001c8                BCRejoinParamsDirDescr
                0x000001ce                PROVIDE (__pds_fd_end, .)
 *(.progmem.gcc*)
 .progmem.gcc_sw_table
                0x000001ce      0x108 ./../../../../BitCloud/lib/libBc_EndDevice_Atmega128rfa1_Atmega128rfa1_Gcc.a(macenvPib.o)
 .progmem.gcc_sw_table
                0x000002d6       0x1e ./../../../../BitCloud/lib/libBc_EndDevice_Atmega128rfa1_Atmega128rfa1_Gcc.a(nwk.o)
 .progmem.gcc_sw_table
                0x000002f4       0x58 ./../../../../BitCloud/lib/libBc_EndDevice_Atmega128rfa1_Atmega128rfa1_Gcc.a(zdo.o)
 .progmem.gcc_sw_table
                0x0000034c       0x28 ./../../../../BitCloud/lib/libBc_EndDevice_Atmega128rfa1_Atmega128rfa1_Gcc.a(machwdManager.o)
 .progmem.gcc_sw_table
                0x00000374       0x28 ./../../../../BitCloud/lib/libBc_EndDevice_Atmega128rfa1_Atmega128rfa1_Gcc.a(machwiManager.o)
 .progmem.gcc_sw_table
                0x0000039c       0x20 ./../../../../BitCloud/lib/libBc_EndDevice_Atmega128rfa1_Atmega128rfa1_Gcc.a(machwiScanHandler.o)
 *(.progmem*)
 .progmem.data  0x000003bc       0xa4 EndDevice_Rcb_Atmega128rfa1_8Mhz_Gcc/Obj/csPersistentMem.o
                0x000003bc                CsGeneralMemoryIdsTable
                0x000003dc                CsExtendedMemoryIdsTable
                0x000003e4                CsNwkSecurityMemoryIdsTable
                0x000003e8                BCSystemMemoryIdsTable
                0x00000416                BCExtGenParamsMemoryIdsTable
                0x0000043e                BCRejoinParamsMemoryIdsTable
 .progmem.data  0x00000460      0x25e EndDevice_Rcb_Atmega128rfa1_8Mhz_Gcc/Obj/csMem.o
                0x00000460                defaultNIB
                0x000004e6                defaultZIB
                0x00000515                defaultAIB
                0x00000517                defaultSIB
                0x00000553                csReadOnlyItems
                0x00000572                csMemoryItems
 .progmem.data  0x000006be        0xc ./../../../../BitCloud/lib/libHAL_RcbAtm128rfa1_Atmega128rfa1_8Mhz_Gcc.a(usart.o)
 .progmem.data  0x000006ca       0x10 ./../../../../BitCloud/lib/libBc_EndDevice_Atmega128rfa1_Atmega128rfa1_Gcc.a(aps.o)
 .progmem.data  0x000006da      0x132 ./../../../../BitCloud/lib/libBc_EndDevice_Atmega128rfa1_Atmega128rfa1_Gcc.a(nwk.o)
                0x0000080c                . = ALIGN (0x2)
 *(.trampolines*)
 .trampolines   0x0000080c        0x0 linker stubs
 *(.jumptables*)
 *(.lowtext*)
 *(.init0)
 .init0         0x0000080c        0x0 d:/program files/atmel/avr studio 5.1/extensions/atmel/avrgcc/3.3.1.27/avrtoolchain/bin/../lib/gcc/avr/4.5.1/../../../../avr/lib/avr51/crtm128rfa1.o
                0x0000080c                __init
 .init0         0x0000080c       0x30 ./../../../../BitCloud/lib/WdtInitatmega128rfa1_Gcc.o
                0x0000080c                halWdtInit
 *(.init0)
 *(.init1)
 *(.init1)
 *(.init2)
 .init2         0x0000083c        0xc d:/program files/atmel/avr studio 5.1/extensions/atmel/avrgcc/3.3.1.27/avrtoolchain/bin/../lib/gcc/avr/4.5.1/../../../../avr/lib/avr51/crtm128rfa1.o
 *(.init2)
 *(.init3)
 *(.init3)
 *(.init4)
 .init4         0x00000848       0x1a d:/program files/atmel/avr studio 5.1/extensions/atmel/avrgcc/3.3.1.27/avrtoolchain/bin/../lib/gcc/avr/4.5.1/avr51\libgcc.a(_copy_data.o)
                0x00000848                __do_copy_data
 .init4         0x00000862       0x10 d:/program files/atmel/avr studio 5.1/extensions/atmel/avrgcc/3.3.1.27/avrtoolchain/bin/../lib/gcc/avr/4.5.1/avr51\libgcc.a(_clear_bss.o)
                0x00000862                __do_clear_bss
 *(.init4)
 *(.init5)
 *(.init5)
 *(.init6)
 *(.init6)
 *(.init7)
 *(.init7)
 *(.init8)
 *(.init8)
 *(.text.main)
 .text.main     0x00000872        0xa EndDevice_Rcb_Atmega128rfa1_8Mhz_Gcc/Obj/blink.o
                0x00000872                main
 *(.text.main)
 *(.text)
 .text          0x0000087c        0x4 d:/program files/atmel/avr studio 5.1/extensions/atmel/avrgcc/3.3.1.27/avrtoolchain/bin/../lib/gcc/avr/4.5.1/../../../../avr/lib/avr51/crtm128rfa1.o
                0x0000087c                __vector_22
                0x0000087c                __vector_28
                0x0000087c                __vector_67
                0x0000087c                __vector_32
                0x0000087c                __vector_71
                0x0000087c                __vector_34
                0x0000087c                __vector_62
                0x0000087c                __vector_12
                0x0000087c                __vector_55
                0x0000087c                __vector_69
                0x0000087c                __vector_46
                0x0000087c                __bad_interrupt
                0x0000087c                __vector_31
                0x0000087c                __vector_35
                0x0000087c                __vector_23
                0x0000087c                __vector_68
                0x0000087c                __vector_45
                0x0000087c                __vector_61
                0x0000087c                __vector_11
                0x0000087c                __vector_54
                0x0000087c                __vector_17
                0x0000087c                __vector_19
                0x0000087c                __vector_56
                0x0000087c                __vector_49
                0x0000087c                __vector_41
                0x0000087c                __vector_64
                0x0000087c                __vector_33
                0x0000087c                __vector_47
                0x0000087c                __vector_52
                0x0000087c                __vector_44
                0x0000087c                __vector_51
                0x0000087c                __vector_9
                0x0000087c                __vector_21
                0x0000087c                __vector_66
                0x0000087c                __vector_58
                0x0000087c                __vector_70
                0x0000087c                __vector_40
                0x0000087c                __vector_48
                0x0000087c                __vector_14
                0x0000087c                __vector_57
                0x0000087c                __vector_53
                0x0000087c                __vector_10
                0x0000087c                __vector_50
                0x0000087c                __vector_16
                0x0000087c                __vector_59
                0x0000087c                __vector_18
                0x0000087c                __vector_20
                0x0000087c                __vector_65
 .text          0x00000880       0xce ./../../../../BitCloud/lib/libHAL_RcbAtm128rfa1_Atmega128rfa1_8Mhz_Gcc.a(halW1.o)
                0x00000880                halResetW1
                0x000008b4                halReadW1Bit
                0x000008e4                halReadW1
                0x00000900                halWriteW1bit
                0x0000092c                halWriteW1
                0x0000093e                __delay_us
 .text          0x0000094e       0x3a ./../../../../BitCloud/lib/libHAL_RcbAtm128rfa1_Atmega128rfa1_8Mhz_Gcc.a(halCalibration.o)
                0x0000094e                halMeasurement
 .text          0x00000988       0xe2 d:/program files/atmel/avr studio 5.1/extensions/atmel/avrgcc/3.3.1.27/avrtoolchain/bin/../lib/gcc/avr/4.5.1/avr51\libgcc.a(_ashldi3.o)
                0x00000988                __ashldi3
 *(.text.*)
 .text.APS_DataInd
                0x00000a6a        0x2 EndDevice_Rcb_Atmega128rfa1_8Mhz_Gcc/Obj/blink.o
 .text.ZDO_WakeUpConf
                0x00000a6c       0x2c EndDevice_Rcb_Atmega128rfa1_8Mhz_Gcc/Obj/blink.o
 .text.ZDO_StartNetworkConf
                0x00000a98       0xa2 EndDevice_Rcb_Atmega128rfa1_8Mhz_Gcc/Obj/blink.o
 .text.APS_DataInd2
                0x00000b3a        0x8 EndDevice_Rcb_Atmega128rfa1_8Mhz_Gcc/Obj/blink.o
 .text.APS_DataConf
                0x00000b42        0x8 EndDevice_Rcb_Atmega128rfa1_8Mhz_Gcc/Obj/blink.o
 .text.Timer_Handler
                0x00000b4a       0x94 EndDevice_Rcb_Atmega128rfa1_8Mhz_Gcc/Obj/blink.o
 .text.Timer_Handler2
                0x00000bde       0x2c EndDevice_Rcb_Atmega128rfa1_8Mhz_Gcc/Obj/blink.o
 .text.check_state
                0x00000c0a       0x32 EndDevice_Rcb_Atmega128rfa1_8Mhz_Gcc/Obj/blink.o
                0x00000c0a                check_state
 .text.APL_TaskHandler
                0x00000c3c      0x198 EndDevice_Rcb_Atmega128rfa1_8Mhz_Gcc/Obj/blink.o
                0x00000c3c                APL_TaskHandler
 .text.ZDO_MgmtNwkUpdateNotf
                0x00000dd4       0xa2 EndDevice_Rcb_Atmega128rfa1_8Mhz_Gcc/Obj/blink.o
                0x00000dd4                ZDO_MgmtNwkUpdateNotf
 .text.ZDO_WakeUpInd
                0x00000e76       0x2c EndDevice_Rcb_Atmega128rfa1_8Mhz_Gcc/Obj/blink.o
                0x00000e76                ZDO_WakeUpInd
 .text.ZDO_BindIndication
                0x00000ea2        0x2 EndDevice_Rcb_Atmega128rfa1_8Mhz_Gcc/Obj/blink.o
                0x00000ea2                ZDO_BindIndication
 .text.ZDO_UnbindIndication
                0x00000ea4        0x2 EndDevice_Rcb_Atmega128rfa1_8Mhz_Gcc/Obj/blink.o
                0x00000ea4                ZDO_UnbindIndication
 .text.pdsDummyCallback
                0x00000ea6        0x2 EndDevice_Rcb_Atmega128rfa1_8Mhz_Gcc/Obj/pdsWriteData.o
                0x00000ea6                pdsDummyCallback
 .text.pdsAddDataForCommitment
                0x00000ea8       0x70 EndDevice_Rcb_Atmega128rfa1_8Mhz_Gcc/Obj/pdsWriteData.o
                0x00000ea8                pdsAddDataForCommitment
 .text.pdsWaitMemoryFree
                0x00000f18       0x10 EndDevice_Rcb_Atmega128rfa1_8Mhz_Gcc/Obj/pdsWriteData.o
                0x00000f18                pdsWaitMemoryFree
 .text.pdsRead  0x00000f28       0x3e EndDevice_Rcb_Atmega128rfa1_8Mhz_Gcc/Obj/pdsWriteData.o
                0x00000f28                pdsRead
 .text.pdsWrite
                0x00000f66       0x3e EndDevice_Rcb_Atmega128rfa1_8Mhz_Gcc/Obj/pdsWriteData.o
                0x00000f66                pdsWrite
 .text.pdsStartCommitment
                0x00000fa4      0x1e6 EndDevice_Rcb_Atmega128rfa1_8Mhz_Gcc/Obj/pdsWriteData.o
                0x00000fa4                pdsStartCommitment
 .text.pdsMemMaskIsAnyBitSet
                0x0000118a       0x1c EndDevice_Rcb_Atmega128rfa1_8Mhz_Gcc/Obj/pdsDataServer.o
 .text.pdsInitMemMask
                0x000011a6       0x3c EndDevice_Rcb_Atmega128rfa1_8Mhz_Gcc/Obj/pdsDataServer.o
 .text.pdsGetMemoryAllowed
                0x000011e2       0x38 EndDevice_Rcb_Atmega128rfa1_8Mhz_Gcc/Obj/pdsDataServer.o
 .text.PDS_Store
                0x0000121a       0x14 EndDevice_Rcb_Atmega128rfa1_8Mhz_Gcc/Obj/pdsDataServer.o
                0x0000121a                PDS_Store
 .text.PDS_IsMemoryRestored
                0x0000122e       0x54 EndDevice_Rcb_Atmega128rfa1_8Mhz_Gcc/Obj/pdsDataServer.o
                0x0000122e                PDS_IsMemoryRestored
 .text.PDS_Init
                0x00001282      0x226 EndDevice_Rcb_Atmega128rfa1_8Mhz_Gcc/Obj/pdsInit.o
                0x00001282                PDS_Init
 .text.pdsTimerFired
                0x000014a8        0xe EndDevice_Rcb_Atmega128rfa1_8Mhz_Gcc/Obj/pdsTimer.o
 .text.pdsTimerInit
                0x000014b6       0x12 EndDevice_Rcb_Atmega128rfa1_8Mhz_Gcc/Obj/pdsTimer.o
                0x000014b6                pdsTimerInit
 .text.pdsGetFileDescrRec
                0x000014c8       0x66 EndDevice_Rcb_Atmega128rfa1_8Mhz_Gcc/Obj/pdsMemAccess.o
                0x000014c8                pdsGetFileDescrRec
 .text.pdsGetFileOffset
                0x0000152e      0x112 EndDevice_Rcb_Atmega128rfa1_8Mhz_Gcc/Obj/pdsMemAccess.o
                0x0000152e                pdsGetFileOffset
 .text.pdsPrepareMemoryAccess
                0x00001640       0xc0 EndDevice_Rcb_Atmega128rfa1_8Mhz_Gcc/Obj/pdsMemAccess.o
                0x00001640                pdsPrepareMemoryAccess
 .text.pdsExpandMemoryMask
                0x00001700      0x162 EndDevice_Rcb_Atmega128rfa1_8Mhz_Gcc/Obj/pdsMemAccess.o
                0x00001700                pdsExpandMemoryMask
 .text.pdsPrepareAccessContext
                0x00001862       0x40 EndDevice_Rcb_Atmega128rfa1_8Mhz_Gcc/Obj/pdsMemAccess.o
                0x00001862                pdsPrepareAccessContext
 .text.pdsCalculateRAMDataCrc
                0x000018a2       0x1c EndDevice_Rcb_Atmega128rfa1_8Mhz_Gcc/Obj/pdsCrcService.o
                0x000018a2                pdsCalculateRAMDataCrc
 .text.pdsCheckFile
                0x000018be       0xc8 EndDevice_Rcb_Atmega128rfa1_8Mhz_Gcc/Obj/pdsCrcService.o
                0x000018be                pdsCheckFile
 .text.pdsCheckStorage
                0x00001986       0x8e EndDevice_Rcb_Atmega128rfa1_8Mhz_Gcc/Obj/pdsCrcService.o
                0x00001986                pdsCheckStorage
 .text.BSP_OpenLeds
                0x00001a14        0x8 EndDevice_Rcb_Atmega128rfa1_8Mhz_Gcc/Obj/leds.o
                0x00001a14                BSP_OpenLeds
 .text.BSP_OnLed
                0x00001a1c       0x20 EndDevice_Rcb_Atmega128rfa1_8Mhz_Gcc/Obj/leds.o
                0x00001a1c                BSP_OnLed
 .text.BSP_OffLed
                0x00001a3c       0x20 EndDevice_Rcb_Atmega128rfa1_8Mhz_Gcc/Obj/leds.o
                0x00001a3c                BSP_OffLed
 .text.BSP_ToggleLed
                0x00001a5c       0x1e EndDevice_Rcb_Atmega128rfa1_8Mhz_Gcc/Obj/leds.o
                0x00001a5c                BSP_ToggleLed
 .text.BSP_TaskHandler
                0x00001a7a       0x7a EndDevice_Rcb_Atmega128rfa1_8Mhz_Gcc/Obj/bspTaskManager.o
                0x00001a7a                BSP_TaskHandler
 .text.bspButtonsHandler
                0x00001af4       0x88 EndDevice_Rcb_Atmega128rfa1_8Mhz_Gcc/Obj/buttons.o
                0x00001af4                bspButtonsHandler
 .text.bspTemperatureSensorHandler
                0x00001b7c       0x12 EndDevice_Rcb_Atmega128rfa1_8Mhz_Gcc/Obj/fakeBSP.o
                0x00001b7c                bspTemperatureSensorHandler
 .text.bspLightSensorHandler
                0x00001b8e       0x12 EndDevice_Rcb_Atmega128rfa1_8Mhz_Gcc/Obj/fakeBSP.o
                0x00001b8e                bspLightSensorHandler
 .text.bspEmptyBatteryHandler
                0x00001ba0       0x10 EndDevice_Rcb_Atmega128rfa1_8Mhz_Gcc/Obj/fakeBSP.o
                0x00001ba0                bspEmptyBatteryHandler
 .text.csSetToDefault
                0x00001bb0       0x80 EndDevice_Rcb_Atmega128rfa1_8Mhz_Gcc/Obj/csMem.o
                0x00001bb0                csSetToDefault
 .text.csGetItem
                0x00001c30       0x38 EndDevice_Rcb_Atmega128rfa1_8Mhz_Gcc/Obj/configServer.o
 .text.CS_Init  0x00001c68        0xa EndDevice_Rcb_Atmega128rfa1_8Mhz_Gcc/Obj/configServer.o
                0x00001c68                CS_Init
 .text.CS_ReadParameter
                0x00001c72       0x36 EndDevice_Rcb_Atmega128rfa1_8Mhz_Gcc/Obj/configServer.o
                0x00001c72                CS_ReadParameter
 .text.CS_WriteParameter
                0x00001ca8       0x34 EndDevice_Rcb_Atmega128rfa1_8Mhz_Gcc/Obj/configServer.o
                0x00001ca8                CS_WriteParameter
 .text.CS_GetMemory
                0x00001cdc       0x18 EndDevice_Rcb_Atmega128rfa1_8Mhz_Gcc/Obj/configServer.o
                0x00001cdc                CS_GetMemory
 .text.halAppTimerHandler
                0x00001cf4       0x8a ./../../../../BitCloud/lib/libHAL_RcbAtm128rfa1_Atmega128rfa1_8Mhz_Gcc.a(appTimer.o)
                0x00001cf4                halAppTimerHandler
 .text.HAL_StartAppTimer
                0x00001d7e       0x58 ./../../../../BitCloud/lib/libHAL_RcbAtm128rfa1_Atmega128rfa1_8Mhz_Gcc.a(appTimer.o)
                0x00001d7e                HAL_StartAppTimer
 .text.HAL_StopAppTimer
                0x00001dd6       0x4a ./../../../../BitCloud/lib/libHAL_RcbAtm128rfa1_Atmega128rfa1_8Mhz_Gcc.a(appTimer.o)
                0x00001dd6                HAL_StopAppTimer
 .text.HAL_GetSystemTime
                0x00001e20       0x4e ./../../../../BitCloud/lib/libHAL_RcbAtm128rfa1_Atmega128rfa1_8Mhz_Gcc.a(appTimer.o)
                0x00001e20                HAL_GetSystemTime
 .text.HAL_TaskHandler
                0x00001e6e      0x1b2 ./../../../../BitCloud/lib/libHAL_RcbAtm128rfa1_Atmega128rfa1_8Mhz_Gcc.a(halTaskManager.o)
                0x00001e6e                HAL_TaskHandler
 .text.halUsartHwController
                0x00002020       0x9a ./../../../../BitCloud/lib/libHAL_RcbAtm128rfa1_Atmega128rfa1_8Mhz_Gcc.a(usart.o)
 .text.halSigUsartReceptionComplete
                0x000020ba       0x54 ./../../../../BitCloud/lib/libHAL_RcbAtm128rfa1_Atmega128rfa1_8Mhz_Gcc.a(usart.o)
 .text.halSetUsartClockPinDirection
                0x0000210e       0x36 ./../../../../BitCloud/lib/libHAL_RcbAtm128rfa1_Atmega128rfa1_8Mhz_Gcc.a(usart.o)
 .text.halUsartTaskUsart0Dre
                0x00002144        0x8 ./../../../../BitCloud/lib/libHAL_RcbAtm128rfa1_Atmega128rfa1_8Mhz_Gcc.a(usart.o)
 .text.halUsartTaskUsart0Rxc
                0x0000214c        0x8 ./../../../../BitCloud/lib/libHAL_RcbAtm128rfa1_Atmega128rfa1_8Mhz_Gcc.a(usart.o)
 .text.halUsartTaskUsart1Dre
                0x00002154        0x8 ./../../../../BitCloud/lib/libHAL_RcbAtm128rfa1_Atmega128rfa1_8Mhz_Gcc.a(usart.o)
 .text.halUsartTaskUsart1Rxc
                0x0000215c        0x8 ./../../../../BitCloud/lib/libHAL_RcbAtm128rfa1_Atmega128rfa1_8Mhz_Gcc.a(usart.o)
 .text.halSigUsartHandler
                0x00002164       0x6e ./../../../../BitCloud/lib/libHAL_RcbAtm128rfa1_Atmega128rfa1_8Mhz_Gcc.a(usart.o)
                0x00002164                halSigUsartHandler
 .text.halPostUsartTask
                0x000021d2       0x3c ./../../../../BitCloud/lib/libHAL_RcbAtm128rfa1_Atmega128rfa1_8Mhz_Gcc.a(usart.o)
                0x000021d2                halPostUsartTask
 .text.halUsartRxBufferFiller
                0x0000220e       0xa4 ./../../../../BitCloud/lib/libHAL_RcbAtm128rfa1_Atmega128rfa1_8Mhz_Gcc.a(usart.o)
                0x0000220e                halUsartRxBufferFiller
 .text.halSigUsartTransmissionComplete
                0x000022b2       0x68 ./../../../../BitCloud/lib/libHAL_RcbAtm128rfa1_Atmega128rfa1_8Mhz_Gcc.a(usart.o)
                0x000022b2                halSigUsartTransmissionComplete
 .text.halUsartTaskUsart1Txc
                0x0000231a        0x8 ./../../../../BitCloud/lib/libHAL_RcbAtm128rfa1_Atmega128rfa1_8Mhz_Gcc.a(usart.o)
 .text.halUsartTaskUsart0Txc
                0x00002322        0x8 ./../../../../BitCloud/lib/libHAL_RcbAtm128rfa1_Atmega128rfa1_8Mhz_Gcc.a(usart.o)
 .text.halIsUsartChannelCorrect
                0x0000232a       0x16 ./../../../../BitCloud/lib/libHAL_RcbAtm128rfa1_Atmega128rfa1_8Mhz_Gcc.a(usart.o)
                0x0000232a                halIsUsartChannelCorrect
 .text.HAL_WriteUsart
                0x00002340       0xfc ./../../../../BitCloud/lib/libHAL_RcbAtm128rfa1_Atmega128rfa1_8Mhz_Gcc.a(usart.o)
                0x00002340                HAL_WriteUsart
 .text.HAL_OpenUsart
                0x0000243c       0x92 ./../../../../BitCloud/lib/libHAL_RcbAtm128rfa1_Atmega128rfa1_8Mhz_Gcc.a(usart.o)
                0x0000243c                HAL_OpenUsart
 .text.HAL_EnableIrq
                0x000024ce       0x3c ./../../../../BitCloud/lib/libHAL_RcbAtm128rfa1_Atmega128rfa1_8Mhz_Gcc.a(irq.o)
                0x000024ce                HAL_EnableIrq
 .text.halI2cBusReset
                0x0000250a       0x36 ./../../../../BitCloud/lib/libHAL_RcbAtm128rfa1_Atmega128rfa1_8Mhz_Gcc.a(i2cPacket.o)
                0x0000250a                halI2cBusReset
 .text.halSendStartDoneI2c
                0x00002540       0x3e ./../../../../BitCloud/lib/libHAL_RcbAtm128rfa1_Atmega128rfa1_8Mhz_Gcc.a(i2cPacket.o)
                0x00002540                halSendStartDoneI2c
 .text.halWriteData
                0x0000257e       0x64 ./../../../../BitCloud/lib/libHAL_RcbAtm128rfa1_Atmega128rfa1_8Mhz_Gcc.a(i2cPacket.o)
                0x0000257e                halWriteData
 .text.halWriteInternalAddress
                0x000025e2       0x5c ./../../../../BitCloud/lib/libHAL_RcbAtm128rfa1_Atmega128rfa1_8Mhz_Gcc.a(i2cPacket.o)
                0x000025e2                halWriteInternalAddress
 .text.halWriteDoneI2c
                0x0000263e       0x3a ./../../../../BitCloud/lib/libHAL_RcbAtm128rfa1_Atmega128rfa1_8Mhz_Gcc.a(i2cPacket.o)
                0x0000263e                halWriteDoneI2c
 .text.halMasterReadWriteAddressAckI2c
                0x00002678       0x3c ./../../../../BitCloud/lib/libHAL_RcbAtm128rfa1_Atmega128rfa1_8Mhz_Gcc.a(i2cPacket.o)
                0x00002678                halMasterReadWriteAddressAckI2c
 .text.halReadDoneI2c
                0x000026b4       0x58 ./../../../../BitCloud/lib/libHAL_RcbAtm128rfa1_Atmega128rfa1_8Mhz_Gcc.a(i2cPacket.o)
                0x000026b4                halReadDoneI2c
 .text.halReadLastByteDoneI2c
                0x0000270c       0x58 ./../../../../BitCloud/lib/libHAL_RcbAtm128rfa1_Atmega128rfa1_8Mhz_Gcc.a(i2cPacket.o)
                0x0000270c                halReadLastByteDoneI2c
 .text.halSig2WireSerialHandler
                0x00002764       0x46 ./../../../../BitCloud/lib/libHAL_RcbAtm128rfa1_Atmega128rfa1_8Mhz_Gcc.a(i2cPacket.o)
                0x00002764                halSig2WireSerialHandler
 .text.HAL_ReadEeprom
                0x000027aa       0xc8 ./../../../../BitCloud/lib/libHAL_RcbAtm128rfa1_Atmega128rfa1_8Mhz_Gcc.a(eeprom.o)
                0x000027aa                HAL_ReadEeprom
 .text.HAL_WriteEeprom
                0x00002872       0xea ./../../../../BitCloud/lib/libHAL_RcbAtm128rfa1_Atmega128rfa1_8Mhz_Gcc.a(eeprom.o)
                0x00002872                HAL_WriteEeprom
 .text.HAL_IsEepromBusy
                0x0000295c        0xe ./../../../../BitCloud/lib/libHAL_RcbAtm128rfa1_Atmega128rfa1_8Mhz_Gcc.a(eeprom.o)
                0x0000295c                HAL_IsEepromBusy
 .text.halSigEepromReadyHandler
                0x0000296a       0x60 ./../../../../BitCloud/lib/libHAL_RcbAtm128rfa1_Atmega128rfa1_8Mhz_Gcc.a(eeprom.o)
                0x0000296a                halSigEepromReadyHandler
 .text.halAddTimer
                0x000029ca      0x370 ./../../../../BitCloud/lib/libHAL_RcbAtm128rfa1_Atmega128rfa1_8Mhz_Gcc.a(timer.o)
                0x000029ca                halAddTimer
 .text.halRemoveTimer
                0x00002d3a       0x3e ./../../../../BitCloud/lib/libHAL_RcbAtm128rfa1_Atmega128rfa1_8Mhz_Gcc.a(timer.o)
                0x00002d3a                halRemoveTimer
 .text.halFindPrevTimer
                0x00002d78       0x1e ./../../../../BitCloud/lib/libHAL_RcbAtm128rfa1_Atmega128rfa1_8Mhz_Gcc.a(timer.o)
                0x00002d78                halFindPrevTimer
 .text.halSigAdcHandler
                0x00002d96       0x16 ./../../../../BitCloud/lib/libHAL_RcbAtm128rfa1_Atmega128rfa1_8Mhz_Gcc.a(adc.o)
                0x00002d96                halSigAdcHandler
 .text.halClearRealSpi
                0x00002dac        0x8 ./../../../../BitCloud/lib/libHAL_RcbAtm128rfa1_Atmega128rfa1_8Mhz_Gcc.a(spi.o)
 .text.halSpiTxByteComplete
                0x00002db4       0x32 ./../../../../BitCloud/lib/libHAL_RcbAtm128rfa1_Atmega128rfa1_8Mhz_Gcc.a(spi.o)
                0x00002db4                halSpiTxByteComplete
 .text.halSpiRxBufferFiller
                0x00002de6       0x58 ./../../../../BitCloud/lib/libHAL_RcbAtm128rfa1_Atmega128rfa1_8Mhz_Gcc.a(spi.o)
                0x00002de6                halSpiRxBufferFiller
 .text.halSpiRxByteComplete
                0x00002e3e       0x24 ./../../../../BitCloud/lib/libHAL_RcbAtm128rfa1_Atmega128rfa1_8Mhz_Gcc.a(spi.o)
                0x00002e3e                halSpiRxByteComplete
 .text.halClearTimeControl
                0x00002e62       0x14 ./../../../../BitCloud/lib/libHAL_RcbAtm128rfa1_Atmega128rfa1_8Mhz_Gcc.a(halSleepTimerClock.o)
                0x00002e62                halClearTimeControl
 .text.halWakeupFromIrq
                0x00002e76       0x28 ./../../../../BitCloud/lib/libHAL_RcbAtm128rfa1_Atmega128rfa1_8Mhz_Gcc.a(halSleepTimerClock.o)
                0x00002e76                halWakeupFromIrq
 .text.halStartSleepTimerClock
                0x00002e9e       0x48 ./../../../../BitCloud/lib/libHAL_RcbAtm128rfa1_Atmega128rfa1_8Mhz_Gcc.a(halSleepTimerClock.o)
                0x00002e9e                halStartSleepTimerClock
 .text.halStopSleepTimerClock
                0x00002ee6       0x42 ./../../../../BitCloud/lib/libHAL_RcbAtm128rfa1_Atmega128rfa1_8Mhz_Gcc.a(halSleepTimerClock.o)
                0x00002ee6                halStopSleepTimerClock
 .text.halSetSleepTimerInterval
                0x00002f28       0x6a ./../../../../BitCloud/lib/libHAL_RcbAtm128rfa1_Atmega128rfa1_8Mhz_Gcc.a(halSleepTimerClock.o)
                0x00002f28                halSetSleepTimerInterval
 .text.halGetTimeOfSleepTimer
                0x00002f92       0xbc ./../../../../BitCloud/lib/libHAL_RcbAtm128rfa1_Atmega128rfa1_8Mhz_Gcc.a(halSleepTimerClock.o)
                0x00002f92                halGetTimeOfSleepTimer
 .text.halSleepTimerFrequency
                0x0000304e        0xa ./../../../../BitCloud/lib/libHAL_RcbAtm128rfa1_Atmega128rfa1_8Mhz_Gcc.a(halSleepTimerClock.o)
                0x0000304e                halSleepTimerFrequency
 .text.halSleepSystemTimeSynchronize
                0x00003058       0x62 ./../../../../BitCloud/lib/libHAL_RcbAtm128rfa1_Atmega128rfa1_8Mhz_Gcc.a(halSleepTimerClock.o)
                0x00003058                halSleepSystemTimeSynchronize
 .text.__vector_13
                0x000030ba       0x92 ./../../../../BitCloud/lib/libHAL_RcbAtm128rfa1_Atmega128rfa1_8Mhz_Gcc.a(halSleepTimerClock.o)
                0x000030ba                __vector_13
 .text.__vector_15
                0x0000314c      0x10a ./../../../../BitCloud/lib/libHAL_RcbAtm128rfa1_Atmega128rfa1_8Mhz_Gcc.a(halSleepTimerClock.o)
                0x0000314c                __vector_15
 .text.halSmRequestHandler
                0x00003256      0x15c ./../../../../BitCloud/lib/libHAL_RcbAtm128rfa1_Atmega128rfa1_8Mhz_Gcc.a(halSecurityModule.o)
                0x00003256                halSmRequestHandler
 .text.halInitAppClock
                0x000033b2       0x26 ./../../../../BitCloud/lib/libHAL_RcbAtm128rfa1_Atmega128rfa1_8Mhz_Gcc.a(halAppClock.o)
                0x000033b2                halInitAppClock
 .text.halAdjustSleepInterval
                0x000033d8       0x50 ./../../../../BitCloud/lib/libHAL_RcbAtm128rfa1_Atmega128rfa1_8Mhz_Gcc.a(halAppClock.o)
                0x000033d8                halAdjustSleepInterval
 .text.halAppSystemTimeSynchronize
                0x00003428       0x62 ./../../../../BitCloud/lib/libHAL_RcbAtm128rfa1_Atmega128rfa1_8Mhz_Gcc.a(halAppClock.o)
                0x00003428                halAppSystemTimeSynchronize
 .text.halGetTimeOfAppTimer
                0x0000348a       0x16 ./../../../../BitCloud/lib/libHAL_RcbAtm128rfa1_Atmega128rfa1_8Mhz_Gcc.a(halAppClock.o)
                0x0000348a                halGetTimeOfAppTimer
 .text.__vector_42
                0x000034a0       0x4c ./../../../../BitCloud/lib/libHAL_RcbAtm128rfa1_Atmega128rfa1_8Mhz_Gcc.a(halAppClock.o)
                0x000034a0                __vector_42
 .text.halSetUsartConfig
                0x000034ec       0xb2 ./../../../../BitCloud/lib/libHAL_RcbAtm128rfa1_Atmega128rfa1_8Mhz_Gcc.a(halUsart.o)
                0x000034ec                halSetUsartConfig
 .text.__vector_26
                0x0000359e       0x5c ./../../../../BitCloud/lib/libHAL_RcbAtm128rfa1_Atmega128rfa1_8Mhz_Gcc.a(halUsart.o)
                0x0000359e                __vector_26
 .text.__vector_27
                0x000035fa       0x5c ./../../../../BitCloud/lib/libHAL_RcbAtm128rfa1_Atmega128rfa1_8Mhz_Gcc.a(halUsart.o)
                0x000035fa                __vector_27
 .text.__vector_25
                0x00003656       0x64 ./../../../../BitCloud/lib/libHAL_RcbAtm128rfa1_Atmega128rfa1_8Mhz_Gcc.a(halUsart.o)
                0x00003656                __vector_25
 .text.__vector_37
                0x000036ba       0x5c ./../../../../BitCloud/lib/libHAL_RcbAtm128rfa1_Atmega128rfa1_8Mhz_Gcc.a(halUsart.o)
                0x000036ba                __vector_37
 .text.__vector_38
                0x00003716       0x5c ./../../../../BitCloud/lib/libHAL_RcbAtm128rfa1_Atmega128rfa1_8Mhz_Gcc.a(halUsart.o)
                0x00003716                __vector_38
 .text.__vector_36
                0x00003772       0x64 ./../../../../BitCloud/lib/libHAL_RcbAtm128rfa1_Atmega128rfa1_8Mhz_Gcc.a(halUsart.o)
                0x00003772                __vector_36
 .text.__vector_1
                0x000037d6       0x5a ./../../../../BitCloud/lib/libHAL_RcbAtm128rfa1_Atmega128rfa1_8Mhz_Gcc.a(halIrq.o)
                0x000037d6                __vector_1
 .text.__vector_2
                0x00003830       0x5a ./../../../../BitCloud/lib/libHAL_RcbAtm128rfa1_Atmega128rfa1_8Mhz_Gcc.a(halIrq.o)
                0x00003830                __vector_2
 .text.__vector_3
                0x0000388a       0x5a ./../../../../BitCloud/lib/libHAL_RcbAtm128rfa1_Atmega128rfa1_8Mhz_Gcc.a(halIrq.o)
                0x0000388a                __vector_3
 .text.__vector_4
                0x000038e4       0x5a ./../../../../BitCloud/lib/libHAL_RcbAtm128rfa1_Atmega128rfa1_8Mhz_Gcc.a(halIrq.o)
                0x000038e4                __vector_4
 .text.__vector_5
                0x0000393e       0x5a ./../../../../BitCloud/lib/libHAL_RcbAtm128rfa1_Atmega128rfa1_8Mhz_Gcc.a(halIrq.o)
                0x0000393e                __vector_5
 .text.__vector_6
                0x00003998       0x5a ./../../../../BitCloud/lib/libHAL_RcbAtm128rfa1_Atmega128rfa1_8Mhz_Gcc.a(halIrq.o)
                0x00003998                __vector_6
 .text.__vector_7
                0x000039f2       0x5a ./../../../../BitCloud/lib/libHAL_RcbAtm128rfa1_Atmega128rfa1_8Mhz_Gcc.a(halIrq.o)
                0x000039f2                __vector_7
 .text.__vector_8
                0x00003a4c       0x5a ./../../../../BitCloud/lib/libHAL_RcbAtm128rfa1_Atmega128rfa1_8Mhz_Gcc.a(halIrq.o)
                0x00003a4c                __vector_8
 .text.__vector_39
                0x00003aa6       0xda ./../../../../BitCloud/lib/libHAL_RcbAtm128rfa1_Atmega128rfa1_8Mhz_Gcc.a(halTwi.o)
                0x00003aa6                __vector_39
 .text.halEepromWrite
                0x00003b80       0x1c ./../../../../BitCloud/lib/libHAL_RcbAtm128rfa1_Atmega128rfa1_8Mhz_Gcc.a(halEeprom.o)
                0x00003b80                halEepromWrite
 .text.__vector_30
                0x00003b9c       0x44 ./../../../../BitCloud/lib/libHAL_RcbAtm128rfa1_Atmega128rfa1_8Mhz_Gcc.a(halEeprom.o)
                0x00003b9c                __vector_30
 .text.halPowerOn
                0x00003be0       0x3e ./../../../../BitCloud/lib/libHAL_RcbAtm128rfa1_Atmega128rfa1_8Mhz_Gcc.a(halSleep.o)
                0x00003be0                halPowerOn
 .text.halPowerOff
                0x00003c1e       0x9a ./../../../../BitCloud/lib/libHAL_RcbAtm128rfa1_Atmega128rfa1_8Mhz_Gcc.a(halSleep.o)
                0x00003c1e                halPowerOff
 .text.HAL_Sleep
                0x00003cb8       0x40 ./../../../../BitCloud/lib/libHAL_RcbAtm128rfa1_Atmega128rfa1_8Mhz_Gcc.a(halSleep.o)
                0x00003cb8                HAL_Sleep
 .text.halWakeupHandler
                0x00003cf8       0x6a ./../../../../BitCloud/lib/libHAL_RcbAtm128rfa1_Atmega128rfa1_8Mhz_Gcc.a(halSleep.o)
                0x00003cf8                halWakeupHandler
 .text.__vector_29
                0x00003d62       0xcc ./../../../../BitCloud/lib/libHAL_RcbAtm128rfa1_Atmega128rfa1_8Mhz_Gcc.a(halAdc.o)
                0x00003d62                __vector_29
 .text.__vector_24
                0x00003e2e       0x8c ./../../../../BitCloud/lib/libHAL_RcbAtm128rfa1_Atmega128rfa1_8Mhz_Gcc.a(halSpi.o)
                0x00003e2e                __vector_24
 .text.halCalibrateInternalRc
                0x00003eba       0xda ./../../../../BitCloud/lib/libHAL_RcbAtm128rfa1_Atmega128rfa1_8Mhz_Gcc.a(calibration.o)
                0x00003eba                halCalibrateInternalRc
 .text.HAL_CalibrateMainClock
                0x00003f94        0xe ./../../../../BitCloud/lib/libHAL_RcbAtm128rfa1_Atmega128rfa1_8Mhz_Gcc.a(calibration.o)
                0x00003f94                HAL_CalibrateMainClock
 .text.halStartingCalibrate
                0x00003fa2       0x1c ./../../../../BitCloud/lib/libHAL_RcbAtm128rfa1_Atmega128rfa1_8Mhz_Gcc.a(calibration.o)
                0x00003fa2                halStartingCalibrate
 .text.HAL_StartSleepTimer
                0x00003fbe       0x72 ./../../../../BitCloud/lib/libHAL_RcbAtm128rfa1_Atmega128rfa1_8Mhz_Gcc.a(sleepTimer.o)
                0x00003fbe                HAL_StartSleepTimer
 .text.halAsyncTimerHandler
                0x00004030       0x52 ./../../../../BitCloud/lib/libHAL_RcbAtm128rfa1_Atmega128rfa1_8Mhz_Gcc.a(sleepTimer.o)
                0x00004030                halAsyncTimerHandler
 .text.HAL_StartSystemSleep
                0x00004082       0x7a ./../../../../BitCloud/lib/libHAL_RcbAtm128rfa1_Atmega128rfa1_8Mhz_Gcc.a(sleep.o)
                0x00004082                HAL_StartSystemSleep
 .text.halInitFreq
                0x000040fc       0x6c ./../../../../BitCloud/lib/libHAL_RcbAtm128rfa1_Atmega128rfa1_8Mhz_Gcc.a(halClkCtrl.o)
                0x000040fc                halInitFreq
 .text.halGetClockSource
                0x00004168        0x6 ./../../../../BitCloud/lib/libHAL_RcbAtm128rfa1_Atmega128rfa1_8Mhz_Gcc.a(halClkCtrl.o)
                0x00004168                halGetClockSource
 .text.apsGetApsCounter
                0x0000416e        0xe ./../../../../BitCloud/lib/libBc_EndDevice_Atmega128rfa1_Atmega128rfa1_Gcc.a(aps.o)
 .text.apsPrepareFragmentedTransmission
                0x0000417c       0x70 ./../../../../BitCloud/lib/libBc_EndDevice_Atmega128rfa1_Atmega128rfa1_Gcc.a(aps.o)
 .text.apsIsFragmentationDataReq
                0x000041ec       0x22 ./../../../../BitCloud/lib/libBc_EndDevice_Atmega128rfa1_Atmega128rfa1_Gcc.a(aps.o)
 .text.apsGetBuffer
                0x0000420e       0xd6 ./../../../../BitCloud/lib/libBc_EndDevice_Atmega128rfa1_Atmega128rfa1_Gcc.a(aps.o)
 .text.apsFreeBuffer
                0x000042e4       0x8e ./../../../../BitCloud/lib/libBc_EndDevice_Atmega128rfa1_Atmega128rfa1_Gcc.a(aps.o)
 .text.apsPostTask
                0x00004372       0x32 ./../../../../BitCloud/lib/libBc_EndDevice_Atmega128rfa1_Atmega128rfa1_Gcc.a(aps.o)
 .text.apsMakeApsDataConf
                0x000043a4       0x5a ./../../../../BitCloud/lib/libBc_EndDevice_Atmega128rfa1_Atmega128rfa1_Gcc.a(aps.o)
 .text.apsAckForFragmentedReceiveConfirmHandler
                0x000043fe       0x9e ./../../../../BitCloud/lib/libBc_EndDevice_Atmega128rfa1_Atmega128rfa1_Gcc.a(aps.o)
 .text.apsStopConf
                0x0000449c       0x4a ./../../../../BitCloud/lib/libBc_EndDevice_Atmega128rfa1_Atmega128rfa1_Gcc.a(aps.o)
 .text.apsSendNwkDataReq
                0x000044e6       0x10 ./../../../../BitCloud/lib/libBc_EndDevice_Atmega128rfa1_Atmega128rfa1_Gcc.a(aps.o)
 .text.apsProcessShortAddrModeDataReq
                0x000044f6      0x296 ./../../../../BitCloud/lib/libBc_EndDevice_Atmega128rfa1_Atmega128rfa1_Gcc.a(aps.o)
 .text.apsSendNextBlock
                0x0000478c       0x14 ./../../../../BitCloud/lib/libBc_EndDevice_Atmega128rfa1_Atmega128rfa1_Gcc.a(aps.o)
 .text.apsSendAckForFragmentedReceive
                0x000047a0       0xce ./../../../../BitCloud/lib/libBc_EndDevice_Atmega128rfa1_Atmega128rfa1_Gcc.a(aps.o)
 .text.apsDataManagerNwkDataConf
                0x0000486e       0x1c ./../../../../BitCloud/lib/libBc_EndDevice_Atmega128rfa1_Atmega128rfa1_Gcc.a(aps.o)
 .text.apsProcessEvent
                0x0000488a       0x26 ./../../../../BitCloud/lib/libBc_EndDevice_Atmega128rfa1_Atmega128rfa1_Gcc.a(aps.o)
 .text.apsProcessGroupAddrModeDataReq
                0x000048b0      0x190 ./../../../../BitCloud/lib/libBc_EndDevice_Atmega128rfa1_Atmega128rfa1_Gcc.a(aps.o)
 .text.apsCalculateApsAckTimeout
                0x00004a40       0x56 ./../../../../BitCloud/lib/libBc_EndDevice_Atmega128rfa1_Atmega128rfa1_Gcc.a(aps.o)
 .text.apsGroupNwkDataConf
                0x00004a96       0x4a ./../../../../BitCloud/lib/libBc_EndDevice_Atmega128rfa1_Atmega128rfa1_Gcc.a(aps.o)
 .text.apsNextBind
                0x00004ae0       0xb0 ./../../../../BitCloud/lib/libBc_EndDevice_Atmega128rfa1_Atmega128rfa1_Gcc.a(aps.o)
 .text.apsSendToNextBoundDevice
                0x00004b90       0x9c ./../../../../BitCloud/lib/libBc_EndDevice_Atmega128rfa1_Atmega128rfa1_Gcc.a(aps.o)
 .text.apsProcessIndirectDataReq
                0x00004c2c       0x2c ./../../../../BitCloud/lib/libBc_EndDevice_Atmega128rfa1_Atmega128rfa1_Gcc.a(aps.o)
 .text.apsFindBindingEntry
                0x00004c58       0xc6 ./../../../../BitCloud/lib/libBc_EndDevice_Atmega128rfa1_Atmega128rfa1_Gcc.a(aps.o)
 .text.SYS_GetRandomNumber
                0x00004d1e       0x2a ./../../../../BitCloud/lib/libBc_EndDevice_Atmega128rfa1_Atmega128rfa1_Gcc.a(aps.o)
 .text.apsResetMemoryManager
                0x00004d48       0xfa ./../../../../BitCloud/lib/libBc_EndDevice_Atmega128rfa1_Atmega128rfa1_Gcc.a(aps.o)
 .text.apsAckOnTimerFired
                0x00004e42       0xf8 ./../../../../BitCloud/lib/libBc_EndDevice_Atmega128rfa1_Atmega128rfa1_Gcc.a(aps.o)
 .text.apsHandleTransmittedData.clone.10
                0x00004f3a       0x6e ./../../../../BitCloud/lib/libBc_EndDevice_Atmega128rfa1_Atmega128rfa1_Gcc.a(aps.o)
 .text.APS_BindReq
                0x00004fa8       0xa6 ./../../../../BitCloud/lib/libBc_EndDevice_Atmega128rfa1_Atmega128rfa1_Gcc.a(aps.o)
                0x00004fa8                APS_BindReq
 .text.APS_UnbindReq
                0x0000504e       0x4a ./../../../../BitCloud/lib/libBc_EndDevice_Atmega128rfa1_Atmega128rfa1_Gcc.a(aps.o)
                0x0000504e                APS_UnbindReq
 .text.APS_DataReq
                0x00005098       0x12 ./../../../../BitCloud/lib/libBc_EndDevice_Atmega128rfa1_Atmega128rfa1_Gcc.a(aps.o)
                0x00005098                APS_DataReq
 .text.NWK_DataInd
                0x000050aa       0x12 ./../../../../BitCloud/lib/libBc_EndDevice_Atmega128rfa1_Atmega128rfa1_Gcc.a(aps.o)
                0x000050aa                NWK_DataInd
 .text.APS_CalculateTimes
                0x000050bc      0x1b2 ./../../../../BitCloud/lib/libBc_EndDevice_Atmega128rfa1_Atmega128rfa1_Gcc.a(aps.o)
                0x000050bc                APS_CalculateTimes
 .text.apsResetDataManager
                0x0000526e      0x110 ./../../../../BitCloud/lib/libBc_EndDevice_Atmega128rfa1_Atmega128rfa1_Gcc.a(aps.o)
 .text.apsNwkResetConf
                0x0000537e      0x196 ./../../../../BitCloud/lib/libBc_EndDevice_Atmega128rfa1_Atmega128rfa1_Gcc.a(aps.o)
 .text.apsStateMachineTaskHandler
                0x00005514       0xee ./../../../../BitCloud/lib/libBc_EndDevice_Atmega128rfa1_Atmega128rfa1_Gcc.a(aps.o)
 .text.APS_IsProfileIdMatched
                0x00005602       0x22 ./../../../../BitCloud/lib/libBc_EndDevice_Atmega128rfa1_Atmega128rfa1_Gcc.a(aps.o)
                0x00005602                APS_IsProfileIdMatched
 .text.APS_NextEndpoint
                0x00005624       0x16 ./../../../../BitCloud/lib/libBc_EndDevice_Atmega128rfa1_Atmega128rfa1_Gcc.a(aps.o)
                0x00005624                APS_NextEndpoint
 .text.apsFindEndpoint
                0x0000563a       0x26 ./../../../../BitCloud/lib/libBc_EndDevice_Atmega128rfa1_Atmega128rfa1_Gcc.a(aps.o)
 .text.APS_RegisterEndpointReq
                0x00005660       0x48 ./../../../../BitCloud/lib/libBc_EndDevice_Atmega128rfa1_Atmega128rfa1_Gcc.a(aps.o)
                0x00005660                APS_RegisterEndpointReq
 .text.apsGroupIndication
                0x000056a8       0x8a ./../../../../BitCloud/lib/libBc_EndDevice_Atmega128rfa1_Atmega128rfa1_Gcc.a(aps.o)
 .text.apsUnicastDataInd
                0x00005732      0x2a2 ./../../../../BitCloud/lib/libBc_EndDevice_Atmega128rfa1_Atmega128rfa1_Gcc.a(aps.o)
 .text.apsApduUnicastHandler.clone.8
                0x000059d4      0x5dc ./../../../../BitCloud/lib/libBc_EndDevice_Atmega128rfa1_Atmega128rfa1_Gcc.a(aps.o)
 .text.apsDataTaskHandler
                0x00005fb0      0xb20 ./../../../../BitCloud/lib/libBc_EndDevice_Atmega128rfa1_Atmega128rfa1_Gcc.a(aps.o)
 .text.APS_Init
                0x00006ad0       0x2e ./../../../../BitCloud/lib/libBc_EndDevice_Atmega128rfa1_Atmega128rfa1_Gcc.a(aps.o)
                0x00006ad0                APS_Init
 .text.APS_ResetReq
                0x00006afe        0xc ./../../../../BitCloud/lib/libBc_EndDevice_Atmega128rfa1_Atmega128rfa1_Gcc.a(aps.o)
                0x00006afe                APS_ResetReq
 .text.APS_StartReq
                0x00006b0a        0xc ./../../../../BitCloud/lib/libBc_EndDevice_Atmega128rfa1_Atmega128rfa1_Gcc.a(aps.o)
                0x00006b0a                APS_StartReq
 .text.APS_StopReq
                0x00006b16        0xc ./../../../../BitCloud/lib/libBc_EndDevice_Atmega128rfa1_Atmega128rfa1_Gcc.a(aps.o)
                0x00006b16                APS_StopReq
 .text.APS_IsActiveTransaction
                0x00006b22       0x54 ./../../../../BitCloud/lib/libBc_EndDevice_Atmega128rfa1_Atmega128rfa1_Gcc.a(aps.o)
                0x00006b22                APS_IsActiveTransaction
 .text.APS_TaskHandler
                0x00006b76       0x9c ./../../../../BitCloud/lib/libBc_EndDevice_Atmega128rfa1_Atmega128rfa1_Gcc.a(aps.o)
                0x00006b76                APS_TaskHandler
 .text.getSymbolsPerOctet
                0x00006c12       0x3c ./../../../../BitCloud/lib/libBc_EndDevice_Atmega128rfa1_Atmega128rfa1_Gcc.a(macenvPib.o)
 .text.calculateMaxFrameDuration
                0x00006c4e       0x22 ./../../../../BitCloud/lib/libBc_EndDevice_Atmega128rfa1_Atmega128rfa1_Gcc.a(macenvPib.o)
 .text.storeTransmitPower
                0x00006c70       0x44 ./../../../../BitCloud/lib/libBc_EndDevice_Atmega128rfa1_Atmega128rfa1_Gcc.a(macenvPib.o)
 .text.macenvGetPhySymbolDuration
                0x00006cb4       0x4a ./../../../../BitCloud/lib/libBc_EndDevice_Atmega128rfa1_Atmega128rfa1_Gcc.a(macenvPib.o)
                0x00006cb4                macenvGetPhySymbolDuration
 .text.updateMaxFrameTxTime
                0x00006cfe       0x3a ./../../../../BitCloud/lib/libBc_EndDevice_Atmega128rfa1_Atmega128rfa1_Gcc.a(macenvPib.o)
 .text.macenvSetPibAttr
                0x00006d38      0x222 ./../../../../BitCloud/lib/libBc_EndDevice_Atmega128rfa1_Atmega128rfa1_Gcc.a(macenvPib.o)
                0x00006d38                macenvSetPibAttr
 .text.macenvResetPib
                0x00006f5a       0xec ./../../../../BitCloud/lib/libBc_EndDevice_Atmega128rfa1_Atmega128rfa1_Gcc.a(macenvPib.o)
                0x00006f5a                macenvResetPib
 .text.macenvCalculateMaxFrameTotalWaitTimeInMs
                0x00007046      0x128 ./../../../../BitCloud/lib/libBc_EndDevice_Atmega128rfa1_Atmega128rfa1_Gcc.a(macenvPib.o)
                0x00007046                macenvCalculateMaxFrameTotalWaitTimeInMs
 .text.macenvCalculateResponceWaitTimeInMs
                0x0000716e       0x42 ./../../../../BitCloud/lib/libBc_EndDevice_Atmega128rfa1_Atmega128rfa1_Gcc.a(macenvPib.o)
                0x0000716e                macenvCalculateResponceWaitTimeInMs
 .text.macenvGetPibAttr
                0x000071b0      0x16e ./../../../../BitCloud/lib/libBc_EndDevice_Atmega128rfa1_Atmega128rfa1_Gcc.a(macenvPib.o)
                0x000071b0                macenvGetPibAttr
 .text.MAC_GetExtAddr
                0x0000731e        0x6 ./../../../../BitCloud/lib/libBc_EndDevice_Atmega128rfa1_Atmega128rfa1_Gcc.a(macenvPib.o)
                0x0000731e                MAC_GetExtAddr
 .text.MAC_SetExtAddr
                0x00007324       0x34 ./../../../../BitCloud/lib/libBc_EndDevice_Atmega128rfa1_Atmega128rfa1_Gcc.a(macenvPib.o)
                0x00007324                MAC_SetExtAddr
 .text.MAC_IsOwnExtAddr
                0x00007358       0x1c ./../../../../BitCloud/lib/libBc_EndDevice_Atmega128rfa1_Atmega128rfa1_Gcc.a(macenvPib.o)
                0x00007358                MAC_IsOwnExtAddr
 .text.MAC_GetOctetsTransmissionTimeInMs
                0x00007374       0x5e ./../../../../BitCloud/lib/libBc_EndDevice_Atmega128rfa1_Atmega128rfa1_Gcc.a(macenvPib.o)
                0x00007374                MAC_GetOctetsTransmissionTimeInMs
 .text.nwkBroadcastForMe
                0x000073d2       0x60 ./../../../../BitCloud/lib/libBc_EndDevice_Atmega128rfa1_Atmega128rfa1_Gcc.a(nwk.o)
 .text.nwkAddressConflictIsIdle
                0x00007432        0xe ./../../../../BitCloud/lib/libBc_EndDevice_Atmega128rfa1_Atmega128rfa1_Gcc.a(nwk.o)
 .text.nwkFindAddressMapEntryByShortAddr
                0x00007440       0x30 ./../../../../BitCloud/lib/libBc_EndDevice_Atmega128rfa1_Atmega128rfa1_Gcc.a(nwk.o)
 .text.nwkDataReqIsIdle
                0x00007470        0xe ./../../../../BitCloud/lib/libBc_EndDevice_Atmega128rfa1_Atmega128rfa1_Gcc.a(nwk.o)
 .text.nwkDiscoveryIsIdle
                0x0000747e        0xe ./../../../../BitCloud/lib/libBc_EndDevice_Atmega128rfa1_Atmega128rfa1_Gcc.a(nwk.o)
 .text.nwkEDScanIsIdle
                0x0000748c        0xe ./../../../../BitCloud/lib/libBc_EndDevice_Atmega128rfa1_Atmega128rfa1_Gcc.a(nwk.o)
 .text.nwkUpdateBeaconPayload
                0x0000749a      0x120 ./../../../../BitCloud/lib/libBc_EndDevice_Atmega128rfa1_Atmega128rfa1_Gcc.a(nwk.o)
 .text.nwkSetDepth
                0x000075ba        0xc ./../../../../BitCloud/lib/libBc_EndDevice_Atmega128rfa1_Atmega128rfa1_Gcc.a(nwk.o)
 .text.nwkJoinReqIsIdle
                0x000075c6        0xe ./../../../../BitCloud/lib/libBc_EndDevice_Atmega128rfa1_Atmega128rfa1_Gcc.a(nwk.o)
 .text.nwkLoopbackIsIdle
                0x000075d4        0xe ./../../../../BitCloud/lib/libBc_EndDevice_Atmega128rfa1_Atmega128rfa1_Gcc.a(nwk.o)
 .text.nwkCostFromLqi
                0x000075e2       0x3a ./../../../../BitCloud/lib/libBc_EndDevice_Atmega128rfa1_Atmega128rfa1_Gcc.a(nwk.o)
 .text.nwkUpdateLqiAndCostOfNeighbor
                0x0000761c       0x88 ./../../../../BitCloud/lib/libBc_EndDevice_Atmega128rfa1_Atmega128rfa1_Gcc.a(nwk.o)
 .text.nwkResetIsIdle
                0x000076a4        0xe ./../../../../BitCloud/lib/libBc_EndDevice_Atmega128rfa1_Atmega128rfa1_Gcc.a(nwk.o)
 .text.nwkParseRxHeader
                0x000076b2       0xb0 ./../../../../BitCloud/lib/libBc_EndDevice_Atmega128rfa1_Atmega128rfa1_Gcc.a(nwk.o)
 .text.nwkSyncIsIdle
                0x00007762        0xe ./../../../../BitCloud/lib/libBc_EndDevice_Atmega128rfa1_Atmega128rfa1_Gcc.a(nwk.o)
 .text.nwkPostTask
                0x00007770       0x58 ./../../../../BitCloud/lib/libBc_EndDevice_Atmega128rfa1_Atmega128rfa1_Gcc.a(nwk.o)
 .text.nwkEDScanMacEDScanConf
                0x000077c8       0x3e ./../../../../BitCloud/lib/libBc_EndDevice_Atmega128rfa1_Atmega128rfa1_Gcc.a(nwk.o)
 .text.nwkDiscoveryMacActiveScanConf
                0x00007806       0x28 ./../../../../BitCloud/lib/libBc_EndDevice_Atmega128rfa1_Atmega128rfa1_Gcc.a(nwk.o)
 .text.nwkResetMacRxEnableConf
                0x0000782e       0x1c ./../../../../BitCloud/lib/libBc_EndDevice_Atmega128rfa1_Atmega128rfa1_Gcc.a(nwk.o)
 .text.nwkTxDelayIsIdle
                0x0000784a       0x14 ./../../../../BitCloud/lib/libBc_EndDevice_Atmega128rfa1_Atmega128rfa1_Gcc.a(nwk.o)
 .text.nwkReloadNibFromConfigServer
                0x0000785e       0x6c ./../../../../BitCloud/lib/libBc_EndDevice_Atmega128rfa1_Atmega128rfa1_Gcc.a(nwk.o)
 .text.nwkSetLifeTimeOfNeighbor
                0x000078ca       0xe8 ./../../../../BitCloud/lib/libBc_EndDevice_Atmega128rfa1_Atmega128rfa1_Gcc.a(nwk.o)
 .text.nwkAllocPacket
                0x000079b2       0xd2 ./../../../../BitCloud/lib/libBc_EndDevice_Atmega128rfa1_Atmega128rfa1_Gcc.a(nwk.o)
 .text.nwkAllocInputPacket
                0x00007a84       0x2c ./../../../../BitCloud/lib/libBc_EndDevice_Atmega128rfa1_Atmega128rfa1_Gcc.a(nwk.o)
 .text.nwkLoopbackTaskHandler
                0x00007ab0       0xe2 ./../../../../BitCloud/lib/libBc_EndDevice_Atmega128rfa1_Atmega128rfa1_Gcc.a(nwk.o)
 .text.nwkEDScanTaskHandler
                0x00007b92       0xac ./../../../../BitCloud/lib/libBc_EndDevice_Atmega128rfa1_Atmega128rfa1_Gcc.a(nwk.o)
 .text.nwkTryToProcessCommandReq
                0x00007c3e       0x72 ./../../../../BitCloud/lib/libBc_EndDevice_Atmega128rfa1_Atmega128rfa1_Gcc.a(nwk.o)
 .text.nwkCommandReq
                0x00007cb0       0x14 ./../../../../BitCloud/lib/libBc_EndDevice_Atmega128rfa1_Atmega128rfa1_Gcc.a(nwk.o)
 .text.nwkLeaveTaskHandler
                0x00007cc4       0x86 ./../../../../BitCloud/lib/libBc_EndDevice_Atmega128rfa1_Atmega128rfa1_Gcc.a(nwk.o)
 .text.nwkDataConf
                0x00007d4a       0x4a ./../../../../BitCloud/lib/libBc_EndDevice_Atmega128rfa1_Atmega128rfa1_Gcc.a(nwk.o)
 .text.nwkConfirmDataTx
                0x00007d94       0x16 ./../../../../BitCloud/lib/libBc_EndDevice_Atmega128rfa1_Atmega128rfa1_Gcc.a(nwk.o)
 .text.nwkFindAddressMapEntryByExtAddr
                0x00007daa       0x52 ./../../../../BitCloud/lib/libBc_EndDevice_Atmega128rfa1_Atmega128rfa1_Gcc.a(nwk.o)
 .text.SYS_GetRandomNumber
                0x00007dfc       0x2a ./../../../../BitCloud/lib/libBc_EndDevice_Atmega128rfa1_Atmega128rfa1_Gcc.a(nwk.o)
 .text.nwkFindDeviceToJoin
                0x00007e26      0x1cc ./../../../../BitCloud/lib/libBc_EndDevice_Atmega128rfa1_Atmega128rfa1_Gcc.a(nwk.o)
 .text.nwkAssociate
                0x00007ff2       0x9e ./../../../../BitCloud/lib/libBc_EndDevice_Atmega128rfa1_Atmega128rfa1_Gcc.a(nwk.o)
 .text.MAC_AssociateConf
                0x00008090       0xfa ./../../../../BitCloud/lib/libBc_EndDevice_Atmega128rfa1_Atmega128rfa1_Gcc.a(nwk.o)
 .text.nwkGetSuitableParent
                0x0000818a       0x80 ./../../../../BitCloud/lib/libBc_EndDevice_Atmega128rfa1_Atmega128rfa1_Gcc.a(nwk.o)
 .text.nwkRejoinCmdPrepareAndSend
                0x0000820a       0x30 ./../../../../BitCloud/lib/libBc_EndDevice_Atmega128rfa1_Atmega128rfa1_Gcc.a(nwk.o)
 .text.nwkJoinReqMacGetConf
                0x0000823a       0x3e ./../../../../BitCloud/lib/libBc_EndDevice_Atmega128rfa1_Atmega128rfa1_Gcc.a(nwk.o)
 .text.macLatencyFired
                0x00008278        0x6 ./../../../../BitCloud/lib/libBc_EndDevice_Atmega128rfa1_Atmega128rfa1_Gcc.a(nwk.o)
 .text.NWK_JoinConf
                0x0000827e       0x48 ./../../../../BitCloud/lib/libBc_EndDevice_Atmega128rfa1_Atmega128rfa1_Gcc.a(nwk.o)
 .text.nwkJoinReqMacSetConf
                0x000082c6      0x198 ./../../../../BitCloud/lib/libBc_EndDevice_Atmega128rfa1_Atmega128rfa1_Gcc.a(nwk.o)
 .text.nwkJoinReqMacRxEnableConf
                0x0000845e       0x72 ./../../../../BitCloud/lib/libBc_EndDevice_Atmega128rfa1_Atmega128rfa1_Gcc.a(nwk.o)
 .text.nwkTxDelayReq
                0x000084d0       0xc2 ./../../../../BitCloud/lib/libBc_EndDevice_Atmega128rfa1_Atmega128rfa1_Gcc.a(nwk.o)
 .text.nwkConfirmJoinReqTx
                0x00008592       0x62 ./../../../../BitCloud/lib/libBc_EndDevice_Atmega128rfa1_Atmega128rfa1_Gcc.a(nwk.o)
 .text.nwkJoinReqMacPollConf
                0x000085f4       0x5e ./../../../../BitCloud/lib/libBc_EndDevice_Atmega128rfa1_Atmega128rfa1_Gcc.a(nwk.o)
 .text.nwkConfirmLeaveItselfTx
                0x00008652       0x42 ./../../../../BitCloud/lib/libBc_EndDevice_Atmega128rfa1_Atmega128rfa1_Gcc.a(nwk.o)
 .text.nwkResetTaskHandler
                0x00008694       0x6a ./../../../../BitCloud/lib/libBc_EndDevice_Atmega128rfa1_Atmega128rfa1_Gcc.a(nwk.o)
 .text.nwkRejoinResponseFrameInd
                0x000086fe      0x14e ./../../../../BitCloud/lib/libBc_EndDevice_Atmega128rfa1_Atmega128rfa1_Gcc.a(nwk.o)
 .text.nwkPrepareCommonFrame
                0x0000884c       0x4a ./../../../../BitCloud/lib/libBc_EndDevice_Atmega128rfa1_Atmega128rfa1_Gcc.a(nwk.o)
 .text.nwkPrepareLeaveItselfTx
                0x00008896       0x64 ./../../../../BitCloud/lib/libBc_EndDevice_Atmega128rfa1_Atmega128rfa1_Gcc.a(nwk.o)
 .text.nwkPrepareJoinReqTx
                0x000088fa       0x94 ./../../../../BitCloud/lib/libBc_EndDevice_Atmega128rfa1_Atmega128rfa1_Gcc.a(nwk.o)
 .text.nwkResetTaskManager
                0x0000898e       0x10 ./../../../../BitCloud/lib/libBc_EndDevice_Atmega128rfa1_Atmega128rfa1_Gcc.a(nwk.o)
 .text.nwkSyncTaskHandler
                0x0000899e       0xa8 ./../../../../BitCloud/lib/libBc_EndDevice_Atmega128rfa1_Atmega128rfa1_Gcc.a(nwk.o)
 .text.nwkSyncMacPollConf
                0x00008a46       0x5e ./../../../../BitCloud/lib/libBc_EndDevice_Atmega128rfa1_Atmega128rfa1_Gcc.a(nwk.o)
 .text.responseWaitTimerFired
                0x00008aa4       0x50 ./../../../../BitCloud/lib/libBc_EndDevice_Atmega128rfa1_Atmega128rfa1_Gcc.a(nwk.o)
 .text.nwkCheckBTT
                0x00008af4       0x22 ./../../../../BitCloud/lib/libBc_EndDevice_Atmega128rfa1_Atmega128rfa1_Gcc.a(nwk.o)
 .text.nwkGetNextHop.clone.4
                0x00008b16       0x5c ./../../../../BitCloud/lib/libBc_EndDevice_Atmega128rfa1_Atmega128rfa1_Gcc.a(nwk.o)
 .text.nwkFreePacket.clone.11
                0x00008b72       0x30 ./../../../../BitCloud/lib/libBc_EndDevice_Atmega128rfa1_Atmega128rfa1_Gcc.a(nwk.o)
 .text.NWK_DataResp
                0x00008ba2        0xa ./../../../../BitCloud/lib/libBc_EndDevice_Atmega128rfa1_Atmega128rfa1_Gcc.a(nwk.o)
                0x00008ba2                NWK_DataResp
 .text.nwkTxConf
                0x00008bac       0xb6 ./../../../../BitCloud/lib/libBc_EndDevice_Atmega128rfa1_Atmega128rfa1_Gcc.a(nwk.o)
 .text.nwkProcessDelayStatus
                0x00008c62       0x44 ./../../../../BitCloud/lib/libBc_EndDevice_Atmega128rfa1_Atmega128rfa1_Gcc.a(nwk.o)
 .text.MAC_DataConf
                0x00008ca6       0x30 ./../../../../BitCloud/lib/libBc_EndDevice_Atmega128rfa1_Atmega128rfa1_Gcc.a(nwk.o)
 .text.nwkTxDelayTimerFired
                0x00008cd6       0x96 ./../../../../BitCloud/lib/libBc_EndDevice_Atmega128rfa1_Atmega128rfa1_Gcc.a(nwk.o)
 .text.nwkTxTaskHandler
                0x00008d6c      0x14a ./../../../../BitCloud/lib/libBc_EndDevice_Atmega128rfa1_Atmega128rfa1_Gcc.a(nwk.o)
 .text.nwkRxIndication.clone.14
                0x00008eb6      0x1ee ./../../../../BitCloud/lib/libBc_EndDevice_Atmega128rfa1_Atmega128rfa1_Gcc.a(nwk.o)
 .text.nwkClearNeighborTable.clone.15
                0x000090a4       0x68 ./../../../../BitCloud/lib/libBc_EndDevice_Atmega128rfa1_Atmega128rfa1_Gcc.a(nwk.o)
 .text.nwkResetNeighborTable
                0x0000910c       0x82 ./../../../../BitCloud/lib/libBc_EndDevice_Atmega128rfa1_Atmega128rfa1_Gcc.a(nwk.o)
 .text.nwkLeaveReqMacResetConf
                0x0000918e       0xae ./../../../../BitCloud/lib/libBc_EndDevice_Atmega128rfa1_Atmega128rfa1_Gcc.a(nwk.o)
 .text.nwkDiscoveryTaskHandler
                0x0000923c       0xb8 ./../../../../BitCloud/lib/libBc_EndDevice_Atmega128rfa1_Atmega128rfa1_Gcc.a(nwk.o)
 .text.NWK_GetShortAddr
                0x000092f4        0xa ./../../../../BitCloud/lib/libBc_EndDevice_Atmega128rfa1_Atmega128rfa1_Gcc.a(nwk.o)
                0x000092f4                NWK_GetShortAddr
 .text.NWK_IsStaticAddressingMode
                0x000092fe        0x6 ./../../../../BitCloud/lib/libBc_EndDevice_Atmega128rfa1_Atmega128rfa1_Gcc.a(nwk.o)
                0x000092fe                NWK_IsStaticAddressingMode
 .text.NWK_RemoveFromAddressMap
                0x00009304       0x12 ./../../../../BitCloud/lib/libBc_EndDevice_Atmega128rfa1_Atmega128rfa1_Gcc.a(nwk.o)
                0x00009304                NWK_RemoveFromAddressMap
 .text.NWK_NetworkDiscoveryReq
                0x00009316       0x20 ./../../../../BitCloud/lib/libBc_EndDevice_Atmega128rfa1_Atmega128rfa1_Gcc.a(nwk.o)
                0x00009316                NWK_NetworkDiscoveryReq
 .text.MAC_BeaconNotifyInd
                0x00009336      0x4b8 ./../../../../BitCloud/lib/libBc_EndDevice_Atmega128rfa1_Atmega128rfa1_Gcc.a(nwk.o)
                0x00009336                MAC_BeaconNotifyInd
 .text.NWK_EDScanReq
                0x000097ee       0x20 ./../../../../BitCloud/lib/libBc_EndDevice_Atmega128rfa1_Atmega128rfa1_Gcc.a(nwk.o)
                0x000097ee                NWK_EDScanReq
 .text.NWK_IsGroupMember
                0x0000980e       0x3c ./../../../../BitCloud/lib/libBc_EndDevice_Atmega128rfa1_Atmega128rfa1_Gcc.a(nwk.o)
                0x0000980e                NWK_IsGroupMember
 .text.NWK_ResetGroups
                0x0000984a       0x5e ./../../../../BitCloud/lib/libBc_EndDevice_Atmega128rfa1_Atmega128rfa1_Gcc.a(nwk.o)
                0x0000984a                NWK_ResetGroups
 .text.nwkResetMacResetConf
                0x000098a8      0x3e0 ./../../../../BitCloud/lib/libBc_EndDevice_Atmega128rfa1_Atmega128rfa1_Gcc.a(nwk.o)
 .text.NWK_GetParentShortAddr
                0x00009c88        0xa ./../../../../BitCloud/lib/libBc_EndDevice_Atmega128rfa1_Atmega128rfa1_Gcc.a(nwk.o)
                0x00009c88                NWK_GetParentShortAddr
 .text.NWK_GetPanId
                0x00009c92        0xa ./../../../../BitCloud/lib/libBc_EndDevice_Atmega128rfa1_Atmega128rfa1_Gcc.a(nwk.o)
                0x00009c92                NWK_GetPanId
 .text.NWK_GetExtPanId
                0x00009c9c       0x22 ./../../../../BitCloud/lib/libBc_EndDevice_Atmega128rfa1_Atmega128rfa1_Gcc.a(nwk.o)
                0x00009c9c                NWK_GetExtPanId
 .text.NWK_SetExtPanId
                0x00009cbe       0x34 ./../../../../BitCloud/lib/libBc_EndDevice_Atmega128rfa1_Atmega128rfa1_Gcc.a(nwk.o)
                0x00009cbe                NWK_SetExtPanId
 .text.NWK_GetDeviceType
                0x00009cf2        0x6 ./../../../../BitCloud/lib/libBc_EndDevice_Atmega128rfa1_Atmega128rfa1_Gcc.a(nwk.o)
                0x00009cf2                NWK_GetDeviceType
 .text.NWK_GetLogicalChannel
                0x00009cf8        0x6 ./../../../../BitCloud/lib/libBc_EndDevice_Atmega128rfa1_Atmega128rfa1_Gcc.a(nwk.o)
                0x00009cf8                NWK_GetLogicalChannel
 .text.NWK_SetLogicalChannel
                0x00009cfe        0x6 ./../../../../BitCloud/lib/libBc_EndDevice_Atmega128rfa1_Atmega128rfa1_Gcc.a(nwk.o)
                0x00009cfe                NWK_SetLogicalChannel
 .text.NWK_GetBroadcastDeliveryTime
                0x00009d04       0x12 ./../../../../BitCloud/lib/libBc_EndDevice_Atmega128rfa1_Atmega128rfa1_Gcc.a(nwk.o)
                0x00009d04                NWK_GetBroadcastDeliveryTime
 .text.NWK_GetManagerAddr
                0x00009d16        0xa ./../../../../BitCloud/lib/libBc_EndDevice_Atmega128rfa1_Atmega128rfa1_Gcc.a(nwk.o)
                0x00009d16                NWK_GetManagerAddr
 .text.NWK_SetManagerAddr
                0x00009d20        0xa ./../../../../BitCloud/lib/libBc_EndDevice_Atmega128rfa1_Atmega128rfa1_Gcc.a(nwk.o)
                0x00009d20                NWK_SetManagerAddr
 .text.NWK_SetUpdateId
                0x00009d2a        0xa ./../../../../BitCloud/lib/libBc_EndDevice_Atmega128rfa1_Atmega128rfa1_Gcc.a(nwk.o)
                0x00009d2a                NWK_SetUpdateId
 .text.NWK_GetTransmitCouner
                0x00009d34       0x14 ./../../../../BitCloud/lib/libBc_EndDevice_Atmega128rfa1_Atmega128rfa1_Gcc.a(nwk.o)
                0x00009d34                NWK_GetTransmitCouner
 .text.NWK_GetTransmitFailureCounter
                0x00009d48       0x14 ./../../../../BitCloud/lib/libBc_EndDevice_Atmega128rfa1_Atmega128rfa1_Gcc.a(nwk.o)
                0x00009d48                NWK_GetTransmitFailureCounter
 .text.NWK_ResetTransmitCounters
                0x00009d5c       0x12 ./../../../../BitCloud/lib/libBc_EndDevice_Atmega128rfa1_Atmega128rfa1_Gcc.a(nwk.o)
                0x00009d5c                NWK_ResetTransmitCounters
 .text.NWK_JoinReq
                0x00009d6e       0x20 ./../../../../BitCloud/lib/libBc_EndDevice_Atmega128rfa1_Atmega128rfa1_Gcc.a(nwk.o)
                0x00009d6e                NWK_JoinReq
 .text.nwkAddressConflictTaskHandler
                0x00009d8e      0x176 ./../../../../BitCloud/lib/libBc_EndDevice_Atmega128rfa1_Atmega128rfa1_Gcc.a(nwk.o)
 .text.NWK_RemoveNeighbor
                0x00009f04       0xb6 ./../../../../BitCloud/lib/libBc_EndDevice_Atmega128rfa1_Atmega128rfa1_Gcc.a(nwk.o)
                0x00009f04                NWK_RemoveNeighbor
 .text.NWK_LeaveReq
                0x00009fba       0x20 ./../../../../BitCloud/lib/libBc_EndDevice_Atmega128rfa1_Atmega128rfa1_Gcc.a(nwk.o)
                0x00009fba                NWK_LeaveReq
 .text.NWK_LoopbackTxReq
                0x00009fda       0x20 ./../../../../BitCloud/lib/libBc_EndDevice_Atmega128rfa1_Atmega128rfa1_Gcc.a(nwk.o)
                0x00009fda                NWK_LoopbackTxReq
 .text.nwkDataConfTaskHandler
                0x00009ffa       0x5a ./../../../../BitCloud/lib/libBc_EndDevice_Atmega128rfa1_Atmega128rfa1_Gcc.a(nwk.o)
 .text.NWK_DataReq
                0x0000a054      0x1f8 ./../../../../BitCloud/lib/libBc_EndDevice_Atmega128rfa1_Atmega128rfa1_Gcc.a(nwk.o)
                0x0000a054                NWK_DataReq
 .text.NWK_FindNeighborByShortAddr
                0x0000a24c       0x30 ./../../../../BitCloud/lib/libBc_EndDevice_Atmega128rfa1_Atmega128rfa1_Gcc.a(nwk.o)
                0x0000a24c                NWK_FindNeighborByShortAddr
 .text.NWK_NetworkDiscoveryConf
                0x0000a27c      0x14e ./../../../../BitCloud/lib/libBc_EndDevice_Atmega128rfa1_Atmega128rfa1_Gcc.a(nwk.o)
 .text.nwkJoinReqTaskHandler
                0x0000a3ca      0x178 ./../../../../BitCloud/lib/libBc_EndDevice_Atmega128rfa1_Atmega128rfa1_Gcc.a(nwk.o)
 .text.nwkResetMacSetConf
                0x0000a542      0x178 ./../../../../BitCloud/lib/libBc_EndDevice_Atmega128rfa1_Atmega128rfa1_Gcc.a(nwk.o)
 .text.NWK_GetExtByShortAddress
                0x0000a6ba       0x5c ./../../../../BitCloud/lib/libBc_EndDevice_Atmega128rfa1_Atmega128rfa1_Gcc.a(nwk.o)
                0x0000a6ba                NWK_GetExtByShortAddress
 .text.NWK_FindNeighborByExtAddr
                0x0000a716       0x68 ./../../../../BitCloud/lib/libBc_EndDevice_Atmega128rfa1_Atmega128rfa1_Gcc.a(nwk.o)
                0x0000a716                NWK_FindNeighborByExtAddr
 .text.nwkLeaveFrameInd
                0x0000a77e       0xde ./../../../../BitCloud/lib/libBc_EndDevice_Atmega128rfa1_Atmega128rfa1_Gcc.a(nwk.o)
 .text.NWK_GetShortByExtAddress
                0x0000a85c       0x60 ./../../../../BitCloud/lib/libBc_EndDevice_Atmega128rfa1_Atmega128rfa1_Gcc.a(nwk.o)
                0x0000a85c                NWK_GetShortByExtAddress
 .text.NWK_LinkShortAndExtAddress
                0x0000a8bc      0x14c ./../../../../BitCloud/lib/libBc_EndDevice_Atmega128rfa1_Atmega128rfa1_Gcc.a(nwk.o)
                0x0000a8bc                NWK_LinkShortAndExtAddress
 .text.NWK_GetNeighborTable
                0x0000aa08        0x6 ./../../../../BitCloud/lib/libBc_EndDevice_Atmega128rfa1_Atmega128rfa1_Gcc.a(nwk.o)
                0x0000aa08                NWK_GetNeighborTable
 .text.NWK_IsKnownChild
                0x0000aa0e       0x24 ./../../../../BitCloud/lib/libBc_EndDevice_Atmega128rfa1_Atmega128rfa1_Gcc.a(nwk.o)
                0x0000aa0e                NWK_IsKnownChild
 .text.NWK_ResetReq
                0x0000aa32       0x20 ./../../../../BitCloud/lib/libBc_EndDevice_Atmega128rfa1_Atmega128rfa1_Gcc.a(nwk.o)
                0x0000aa32                NWK_ResetReq
 .text.NWK_Init
                0x0000aa52       0x20 ./../../../../BitCloud/lib/libBc_EndDevice_Atmega128rfa1_Atmega128rfa1_Gcc.a(nwk.o)
                0x0000aa52                NWK_Init
 .text.MAC_DataInd
                0x0000aa72      0x2ae ./../../../../BitCloud/lib/libBc_EndDevice_Atmega128rfa1_Atmega128rfa1_Gcc.a(nwk.o)
                0x0000aa72                MAC_DataInd
 .text.NWK_IsActiveTransaction
                0x0000ad20       0x54 ./../../../../BitCloud/lib/libBc_EndDevice_Atmega128rfa1_Atmega128rfa1_Gcc.a(nwk.o)
                0x0000ad20                NWK_IsActiveTransaction
 .text.NWK_LaunchActivities
                0x0000ad74        0x2 ./../../../../BitCloud/lib/libBc_EndDevice_Atmega128rfa1_Atmega128rfa1_Gcc.a(nwk.o)
                0x0000ad74                NWK_LaunchActivities
 .text.NWK_StopActivities
                0x0000ad76        0x2 ./../../../../BitCloud/lib/libBc_EndDevice_Atmega128rfa1_Atmega128rfa1_Gcc.a(nwk.o)
                0x0000ad76                NWK_StopActivities
 .text.NWK_DeviceIsAbleToOperateInNetwork
                0x0000ad78       0x36 ./../../../../BitCloud/lib/libBc_EndDevice_Atmega128rfa1_Atmega128rfa1_Gcc.a(nwk.o)
                0x0000ad78                NWK_DeviceIsAbleToOperateInNetwork
 .text.NWK_GatherPowerFailureInfo
                0x0000adae       0x24 ./../../../../BitCloud/lib/libBc_EndDevice_Atmega128rfa1_Atmega128rfa1_Gcc.a(nwk.o)
                0x0000adae                NWK_GatherPowerFailureInfo
 .text.NWK_SyncReq
                0x0000add2       0x20 ./../../../../BitCloud/lib/libBc_EndDevice_Atmega128rfa1_Atmega128rfa1_Gcc.a(nwk.o)
                0x0000add2                NWK_SyncReq
 .text.MAC_SyncLossInd
                0x0000adf2        0x2 ./../../../../BitCloud/lib/libBc_EndDevice_Atmega128rfa1_Atmega128rfa1_Gcc.a(nwk.o)
                0x0000adf2                MAC_SyncLossInd
 .text.NWK_TaskHandler
                0x0000adf4       0xd8 ./../../../../BitCloud/lib/libBc_EndDevice_Atmega128rfa1_Atmega128rfa1_Gcc.a(nwk.o)
                0x0000adf4                NWK_TaskHandler
 .text.NWK_GetUnicastDeliveryTime
                0x0000aecc       0x6a ./../../../../BitCloud/lib/libBc_EndDevice_Atmega128rfa1_Atmega128rfa1_Gcc.a(nwk.o)
                0x0000aecc                NWK_GetUnicastDeliveryTime
 .text.phyRxTxSwitcher
                0x0000af36       0x36 ./../../../../BitCloud/lib/libBc_EndDevice_Atmega128rfa1_Atmega128rfa1_Gcc.a(phyRxTxIndicator.o)
 .text.phyRxTxSwitcherOn
                0x0000af6c        0x8 ./../../../../BitCloud/lib/libBc_EndDevice_Atmega128rfa1_Atmega128rfa1_Gcc.a(phyRxTxIndicator.o)
                0x0000af6c                phyRxTxSwitcherOn
 .text.phyRxTxSwitcherOff
                0x0000af74        0x8 ./../../../../BitCloud/lib/libBc_EndDevice_Atmega128rfa1_Atmega128rfa1_Gcc.a(phyRxTxIndicator.o)
                0x0000af74                phyRxTxSwitcherOff
 .text.deleteHeadQueueElem
                0x0000af7c       0x22 ./../../../../BitCloud/lib/libBc_EndDevice_Atmega128rfa1_Atmega128rfa1_Gcc.a(queue.o)
                0x0000af7c                deleteHeadQueueElem
 .text.deleteQueueElem
                0x0000af9e       0x4a ./../../../../BitCloud/lib/libBc_EndDevice_Atmega128rfa1_Atmega128rfa1_Gcc.a(queue.o)
                0x0000af9e                deleteQueueElem
 .text.isQueueElem
                0x0000afe8       0x22 ./../../../../BitCloud/lib/libBc_EndDevice_Atmega128rfa1_Atmega128rfa1_Gcc.a(queue.o)
                0x0000afe8                isQueueElem
 .text.putQueueElem
                0x0000b00a       0x40 ./../../../../BitCloud/lib/libBc_EndDevice_Atmega128rfa1_Atmega128rfa1_Gcc.a(queue.o)
                0x0000b00a                putQueueElem
 .text.SYS_DuplicateTableReset
                0x0000b04a       0x4e ./../../../../BitCloud/lib/libBc_EndDevice_Atmega128rfa1_Atmega128rfa1_Gcc.a(sysDuplicateTable.o)
                0x0000b04a                SYS_DuplicateTableReset
 .text.duplicateTableUpdate
                0x0000b098       0x8e ./../../../../BitCloud/lib/libBc_EndDevice_Atmega128rfa1_Atmega128rfa1_Gcc.a(sysDuplicateTable.o)
                0x0000b098                duplicateTableUpdate
 .text.SYS_DuplicateTableCheck
                0x0000b126      0x10c ./../../../../BitCloud/lib/libBc_EndDevice_Atmega128rfa1_Atmega128rfa1_Gcc.a(sysDuplicateTable.o)
                0x0000b126                SYS_DuplicateTableCheck
 .text.SYS_DuplicateTableClear
                0x0000b232       0x7c ./../../../../BitCloud/lib/libBc_EndDevice_Atmega128rfa1_Atmega128rfa1_Gcc.a(sysDuplicateTable.o)
                0x0000b232                SYS_DuplicateTableClear
 .text.SYS_PostEvent
                0x0000b2ae       0x7a ./../../../../BitCloud/lib/libBc_EndDevice_Atmega128rfa1_Atmega128rfa1_Gcc.a(sysEvents.o)
                0x0000b2ae                SYS_PostEvent
 .text.SYS_IsEventDeliverable
                0x0000b328       0x38 ./../../../../BitCloud/lib/libBc_EndDevice_Atmega128rfa1_Atmega128rfa1_Gcc.a(sysEvents.o)
                0x0000b328                SYS_IsEventDeliverable
 .text.SYS_IsEventSubscriber
                0x0000b360       0x32 ./../../../../BitCloud/lib/libBc_EndDevice_Atmega128rfa1_Atmega128rfa1_Gcc.a(sysEvents.o)
                0x0000b360                SYS_IsEventSubscriber
 .text.SYS_SubscribeToEvent
                0x0000b392       0x70 ./../../../../BitCloud/lib/libBc_EndDevice_Atmega128rfa1_Atmega128rfa1_Gcc.a(sysEvents.o)
                0x0000b392                SYS_SubscribeToEvent
 .text.SYS_StartTimer
                0x0000b402       0x14 ./../../../../BitCloud/lib/libBc_EndDevice_Atmega128rfa1_Atmega128rfa1_Gcc.a(sysTimer.o)
                0x0000b402                SYS_StartTimer
 .text.SYS_StopTimer
                0x0000b416       0x12 ./../../../../BitCloud/lib/libBc_EndDevice_Atmega128rfa1_Atmega128rfa1_Gcc.a(sysTimer.o)
                0x0000b416                SYS_StopTimer
 .text.SYS_InitTimer
                0x0000b428       0x34 ./../../../../BitCloud/lib/libBc_EndDevice_Atmega128rfa1_Atmega128rfa1_Gcc.a(sysTimer.o)
                0x0000b428                SYS_InitTimer
 .text.SYS_RunTask
                0x0000b45c       0x76 ./../../../../BitCloud/lib/libBc_EndDevice_Atmega128rfa1_Atmega128rfa1_Gcc.a(taskManager.o)
                0x0000b45c                SYS_RunTask
 .text.SYS_ForceRunTask
                0x0000b4d2        0x6 ./../../../../BitCloud/lib/libBc_EndDevice_Atmega128rfa1_Atmega128rfa1_Gcc.a(taskManager.o)
                0x0000b4d2                SYS_ForceRunTask
 .text.SYS_SysInit
                0x0000b4d8       0x22 ./../../../../BitCloud/lib/libBc_EndDevice_Atmega128rfa1_Atmega128rfa1_Gcc.a(taskManager.o)
                0x0000b4d8                SYS_SysInit
 .text.APS_StopConf
                0x0000b4fa       0x14 ./../../../../BitCloud/lib/libBc_EndDevice_Atmega128rfa1_Atmega128rfa1_Gcc.a(zdo.o)
 .text.zdoNodeManagerNwkLeaveConf
                0x0000b50e        0x6 ./../../../../BitCloud/lib/libBc_EndDevice_Atmega128rfa1_Atmega128rfa1_Gcc.a(zdo.o)
 .text.zdoNwkManagerReset
                0x0000b514       0x10 ./../../../../BitCloud/lib/libBc_EndDevice_Atmega128rfa1_Atmega128rfa1_Gcc.a(zdo.o)
 .text.zdoStackResetConf
                0x0000b524       0x1c ./../../../../BitCloud/lib/libBc_EndDevice_Atmega128rfa1_Atmega128rfa1_Gcc.a(zdo.o)
 .text.zdoSecurityManagerHandler
                0x0000b540        0x2 ./../../../../BitCloud/lib/libBc_EndDevice_Atmega128rfa1_Atmega128rfa1_Gcc.a(zdo.o)
                0x0000b540                zdoSecurityManagerHandler
 .text.zdoPostTask
                0x0000b542       0x3c ./../../../../BitCloud/lib/libBc_EndDevice_Atmega128rfa1_Atmega128rfa1_Gcc.a(zdo.o)
 .text.zdoCheckStartNetworkRequestsQueue
                0x0000b57e       0x38 ./../../../../BitCloud/lib/libBc_EndDevice_Atmega128rfa1_Atmega128rfa1_Gcc.a(zdo.o)
 .text.zdoStartNetworkFree
                0x0000b5b6        0xe ./../../../../BitCloud/lib/libBc_EndDevice_Atmega128rfa1_Atmega128rfa1_Gcc.a(zdo.o)
 .text.startConfirm
                0x0000b5c4       0x2e ./../../../../BitCloud/lib/libBc_EndDevice_Atmega128rfa1_Atmega128rfa1_Gcc.a(zdo.o)
 .text.sleepConfirm
                0x0000b5f2       0x24 ./../../../../BitCloud/lib/libBc_EndDevice_Atmega128rfa1_Atmega128rfa1_Gcc.a(zdo.o)
 .text.wakeUpConfirm
                0x0000b616       0x24 ./../../../../BitCloud/lib/libBc_EndDevice_Atmega128rfa1_Atmega128rfa1_Gcc.a(zdo.o)
 .text.zdoUnpostTask
                0x0000b63a       0x28 ./../../../../BitCloud/lib/libBc_EndDevice_Atmega128rfa1_Atmega128rfa1_Gcc.a(zdo.o)
 .text.zdoSetZdpDataReqState
                0x0000b662       0x22 ./../../../../BitCloud/lib/libBc_EndDevice_Atmega128rfa1_Atmega128rfa1_Gcc.a(zdo.o)
 .text.confirmResponse
                0x0000b684        0x8 ./../../../../BitCloud/lib/libBc_EndDevice_Atmega128rfa1_Atmega128rfa1_Gcc.a(zdo.o)
 .text.zdoDefaultBindApsDataConf
                0x0000b68c        0x8 ./../../../../BitCloud/lib/libBc_EndDevice_Atmega128rfa1_Atmega128rfa1_Gcc.a(zdo.o)
 .text.confirmMgmtLqiResponse
                0x0000b694        0x8 ./../../../../BitCloud/lib/libBc_EndDevice_Atmega128rfa1_Atmega128rfa1_Gcc.a(zdo.o)
 .text.confirmMgmtPermitJoiningResponse
                0x0000b69c        0x8 ./../../../../BitCloud/lib/libBc_EndDevice_Atmega128rfa1_Atmega128rfa1_Gcc.a(zdo.o)
 .text.zdoZdpApsConfCallback
                0x0000b6a4       0x78 ./../../../../BitCloud/lib/libBc_EndDevice_Atmega128rfa1_Atmega128rfa1_Gcc.a(zdo.o)
 .text.zdoSetZdpIndState
                0x0000b71c       0x10 ./../../../../BitCloud/lib/libBc_EndDevice_Atmega128rfa1_Atmega128rfa1_Gcc.a(zdo.o)
 .text.ttlUpdateTimerFired
                0x0000b72c       0x72 ./../../../../BitCloud/lib/libBc_EndDevice_Atmega128rfa1_Atmega128rfa1_Gcc.a(zdo.o)
 .text.zdoSetOutOfNetworkFlag
                0x0000b79e       0x36 ./../../../../BitCloud/lib/libBc_EndDevice_Atmega128rfa1_Atmega128rfa1_Gcc.a(zdo.o)
 .text.zdoStartNetworkConfirm
                0x0000b7d4       0x24 ./../../../../BitCloud/lib/libBc_EndDevice_Atmega128rfa1_Atmega128rfa1_Gcc.a(zdo.o)
 .text.reenterNetwork
                0x0000b7f8       0x30 ./../../../../BitCloud/lib/libBc_EndDevice_Atmega128rfa1_Atmega128rfa1_Gcc.a(zdo.o)
 .text.joinNetwork
                0x0000b828       0x86 ./../../../../BitCloud/lib/libBc_EndDevice_Atmega128rfa1_Atmega128rfa1_Gcc.a(zdo.o)
 .text.zdoRejoinNetwork
                0x0000b8ae       0x1c ./../../../../BitCloud/lib/libBc_EndDevice_Atmega128rfa1_Atmega128rfa1_Gcc.a(zdo.o)
 .text.zdoIntraPanPortApsStopConf
                0x0000b8ca       0x1c ./../../../../BitCloud/lib/libBc_EndDevice_Atmega128rfa1_Atmega128rfa1_Gcc.a(zdo.o)
 .text.joinTimerFired
                0x0000b8e6        0x6 ./../../../../BitCloud/lib/libBc_EndDevice_Atmega128rfa1_Atmega128rfa1_Gcc.a(zdo.o)
 .text.stopSyncTimer
                0x0000b8ec        0xa ./../../../../BitCloud/lib/libBc_EndDevice_Atmega128rfa1_Atmega128rfa1_Gcc.a(zdo.o)
 .text.startSyncTimer
                0x0000b8f6       0x62 ./../../../../BitCloud/lib/libBc_EndDevice_Atmega128rfa1_Atmega128rfa1_Gcc.a(zdo.o)
 .text.zdoZdpResetReq
                0x0000b958       0x90 ./../../../../BitCloud/lib/libBc_EndDevice_Atmega128rfa1_Atmega128rfa1_Gcc.a(zdo.o)
 .text.zdoPseudoRandomSeed
                0x0000b9e8       0x46 ./../../../../BitCloud/lib/libBc_EndDevice_Atmega128rfa1_Atmega128rfa1_Gcc.a(zdo.o)
 .text.RF_RandomConfUpdater
                0x0000ba2e       0x1c ./../../../../BitCloud/lib/libBc_EndDevice_Atmega128rfa1_Atmega128rfa1_Gcc.a(zdo.o)
 .text.zdoUpdateRandSeedTimerFired
                0x0000ba4a       0x28 ./../../../../BitCloud/lib/libBc_EndDevice_Atmega128rfa1_Atmega128rfa1_Gcc.a(zdo.o)
 .text.zdoStackReset
                0x0000ba72       0x2a ./../../../../BitCloud/lib/libBc_EndDevice_Atmega128rfa1_Atmega128rfa1_Gcc.a(zdo.o)
 .text.startSystemSleep
                0x0000ba9c       0x48 ./../../../../BitCloud/lib/libBc_EndDevice_Atmega128rfa1_Atmega128rfa1_Gcc.a(zdo.o)
 .text.sendSyncReq
                0x0000bae4       0x30 ./../../../../BitCloud/lib/libBc_EndDevice_Atmega128rfa1_Atmega128rfa1_Gcc.a(zdo.o)
 .text.transceiverSwitchedOn
                0x0000bb14       0x3a ./../../../../BitCloud/lib/libBc_EndDevice_Atmega128rfa1_Atmega128rfa1_Gcc.a(zdo.o)
 .text.wakeupCallback
                0x0000bb4e       0x4c ./../../../../BitCloud/lib/libBc_EndDevice_Atmega128rfa1_Atmega128rfa1_Gcc.a(zdo.o)
 .text.zdoPowerManagerHandler
                0x0000bb9a       0xee ./../../../../BitCloud/lib/libBc_EndDevice_Atmega128rfa1_Atmega128rfa1_Gcc.a(zdo.o)
 .text.transceiverSwitchedOff
                0x0000bc88       0x18 ./../../../../BitCloud/lib/libBc_EndDevice_Atmega128rfa1_Atmega128rfa1_Gcc.a(zdo.o)
 .text.zdoZdpManagerHandler
                0x0000bca0      0x1d6 ./../../../../BitCloud/lib/libBc_EndDevice_Atmega128rfa1_Atmega128rfa1_Gcc.a(zdo.o)
 .text.zdoNwkEventListener
                0x0000be76       0x6e ./../../../../BitCloud/lib/libBc_EndDevice_Atmega128rfa1_Atmega128rfa1_Gcc.a(zdo.o)
 .text.zdoOtherEventListener
                0x0000bee4       0x34 ./../../../../BitCloud/lib/libBc_EndDevice_Atmega128rfa1_Atmega128rfa1_Gcc.a(zdo.o)
 .text.zdoExecuteEDScan
                0x0000bf18       0x36 ./../../../../BitCloud/lib/libBc_EndDevice_Atmega128rfa1_Atmega128rfa1_Gcc.a(zdo.o)
 .text.confirmMgmtNwkUpdateNotify
                0x0000bf4e       0x2e ./../../../../BitCloud/lib/libBc_EndDevice_Atmega128rfa1_Atmega128rfa1_Gcc.a(zdo.o)
 .text.channelChangeTimerFired
                0x0000bf7c       0x22 ./../../../../BitCloud/lib/libBc_EndDevice_Atmega128rfa1_Atmega128rfa1_Gcc.a(zdo.o)
 .text.MAC_SetConf
                0x0000bf9e       0x7e ./../../../../BitCloud/lib/libBc_EndDevice_Atmega128rfa1_Atmega128rfa1_Gcc.a(zdo.o)
 .text.zdoChildEventListener
                0x0000c01c       0xa8 ./../../../../BitCloud/lib/libBc_EndDevice_Atmega128rfa1_Atmega128rfa1_Gcc.a(zdo.o)
 .text.ZDO_GetNwkStatus
                0x0000c0c4       0x10 ./../../../../BitCloud/lib/libBc_EndDevice_Atmega128rfa1_Atmega128rfa1_Gcc.a(zdo.o)
                0x0000c0c4                ZDO_GetNwkStatus
 .text.zdoInitNotifications
                0x0000c0d4       0x6e ./../../../../BitCloud/lib/libBc_EndDevice_Atmega128rfa1_Atmega128rfa1_Gcc.a(zdo.o)
                0x0000c0d4                zdoInitNotifications
 .text.zdoInitHandler
                0x0000c142      0x11e ./../../../../BitCloud/lib/libBc_EndDevice_Atmega128rfa1_Atmega128rfa1_Gcc.a(zdo.o)
 .text.ZDO_WakeUpReq
                0x0000c260       0x1e ./../../../../BitCloud/lib/libBc_EndDevice_Atmega128rfa1_Atmega128rfa1_Gcc.a(zdo.o)
                0x0000c260                ZDO_WakeUpReq
 .text.ZDO_StartSyncReq
                0x0000c27e       0x30 ./../../../../BitCloud/lib/libBc_EndDevice_Atmega128rfa1_Atmega128rfa1_Gcc.a(zdo.o)
                0x0000c27e                ZDO_StartSyncReq
 .text.deviceAnnceConf
                0x0000c2ae       0x16 ./../../../../BitCloud/lib/libBc_EndDevice_Atmega128rfa1_Atmega128rfa1_Gcc.a(zdo.o)
 .text.ZDO_StopSyncReq
                0x0000c2c4       0x18 ./../../../../BitCloud/lib/libBc_EndDevice_Atmega128rfa1_Atmega128rfa1_Gcc.a(zdo.o)
                0x0000c2c4                ZDO_StopSyncReq
 .text.zdoLeaveNetworkReq
                0x0000c2dc       0x88 ./../../../../BitCloud/lib/libBc_EndDevice_Atmega128rfa1_Atmega128rfa1_Gcc.a(zdo.o)
 .text.zdoParentChangeConf
                0x0000c364       0x4c ./../../../../BitCloud/lib/libBc_EndDevice_Atmega128rfa1_Atmega128rfa1_Gcc.a(zdo.o)
 .text.confirmMgmtLeaveResponse
                0x0000c3b0       0xbe ./../../../../BitCloud/lib/libBc_EndDevice_Atmega128rfa1_Atmega128rfa1_Gcc.a(zdo.o)
 .text.leaveNetworkInd
                0x0000c46e       0x32 ./../../../../BitCloud/lib/libBc_EndDevice_Atmega128rfa1_Atmega128rfa1_Gcc.a(zdo.o)
 .text.zdoLeaveNetworkNwkLeaveConf
                0x0000c4a0        0xe ./../../../../BitCloud/lib/libBc_EndDevice_Atmega128rfa1_Atmega128rfa1_Gcc.a(zdo.o)
 .text.NWK_LeaveInd
                0x0000c4ae       0x86 ./../../../../BitCloud/lib/libBc_EndDevice_Atmega128rfa1_Atmega128rfa1_Gcc.a(zdo.o)
                0x0000c4ae                NWK_LeaveInd
 .text.zdoReset
                0x0000c534       0x18 ./../../../../BitCloud/lib/libBc_EndDevice_Atmega128rfa1_Atmega128rfa1_Gcc.a(zdo.o)
 .text.zdoLeaveConfirm
                0x0000c54c       0x78 ./../../../../BitCloud/lib/libBc_EndDevice_Atmega128rfa1_Atmega128rfa1_Gcc.a(zdo.o)
 .text.ZDO_StartNetworkReq
                0x0000c5c4       0x10 ./../../../../BitCloud/lib/libBc_EndDevice_Atmega128rfa1_Atmega128rfa1_Gcc.a(zdo.o)
                0x0000c5c4                ZDO_StartNetworkReq
 .text.ZDO_TaskHandler
                0x0000c5d4       0x7c ./../../../../BitCloud/lib/libBc_EndDevice_Atmega128rfa1_Atmega128rfa1_Gcc.a(zdo.o)
                0x0000c5d4                ZDO_TaskHandler
 .text.APS_ZdoDataInd
                0x0000c650      0x160 ./../../../../BitCloud/lib/libBc_EndDevice_Atmega128rfa1_Atmega128rfa1_Gcc.a(zdo.o)
                0x0000c650                APS_ZdoDataInd
 .text.ZDO_ZdpReq
                0x0000c7b0       0x64 ./../../../../BitCloud/lib/libBc_EndDevice_Atmega128rfa1_Atmega128rfa1_Gcc.a(zdo.o)
                0x0000c7b0                ZDO_ZdpReq
 .text.sendNwkUpdateNotify
                0x0000c814       0x3e ./../../../../BitCloud/lib/libBc_EndDevice_Atmega128rfa1_Atmega128rfa1_Gcc.a(zdo.o)
 .text.zdoZdpFrameProcessorHandler
                0x0000c852     0x129c ./../../../../BitCloud/lib/libBc_EndDevice_Atmega128rfa1_Atmega128rfa1_Gcc.a(zdo.o)
 .text.edScanConf
                0x0000daee       0x10 ./../../../../BitCloud/lib/libBc_EndDevice_Atmega128rfa1_Atmega128rfa1_Gcc.a(zdo.o)
 .text.zdoSendDeviceAnnce
                0x0000dafe       0xa0 ./../../../../BitCloud/lib/libBc_EndDevice_Atmega128rfa1_Atmega128rfa1_Gcc.a(zdo.o)
 .text.APS_StartConf
                0x0000db9e       0x48 ./../../../../BitCloud/lib/libBc_EndDevice_Atmega128rfa1_Atmega128rfa1_Gcc.a(zdo.o)
 .text.zdoAuthenticationConf
                0x0000dbe6       0x60 ./../../../../BitCloud/lib/libBc_EndDevice_Atmega128rfa1_Atmega128rfa1_Gcc.a(zdo.o)
                0x0000dbe6                zdoAuthenticationConf
 .text.zdoAuthenticationStart
                0x0000dc46        0x8 ./../../../../BitCloud/lib/libBc_EndDevice_Atmega128rfa1_Atmega128rfa1_Gcc.a(zdo.o)
                0x0000dc46                zdoAuthenticationStart
 .text.zdoSendDeviceAnnceConf
                0x0000dc4e       0x34 ./../../../../BitCloud/lib/libBc_EndDevice_Atmega128rfa1_Atmega128rfa1_Gcc.a(zdo.o)
 .text.zdoReloadZibFromConfigServer
                0x0000dc82      0x134 ./../../../../BitCloud/lib/libBc_EndDevice_Atmega128rfa1_Atmega128rfa1_Gcc.a(zdo.o)
                0x0000dc82                zdoReloadZibFromConfigServer
 .text.zdoStartNetworkTaskHandler
                0x0000ddb6      0x11e ./../../../../BitCloud/lib/libBc_EndDevice_Atmega128rfa1_Atmega128rfa1_Gcc.a(zdo.o)
 .text.setNetworkParametersToZib
                0x0000ded4       0x48 ./../../../../BitCloud/lib/libBc_EndDevice_Atmega128rfa1_Atmega128rfa1_Gcc.a(zdo.o)
                0x0000ded4                setNetworkParametersToZib
 .text.NWK_JoinConf
                0x0000df1c       0x5a ./../../../../BitCloud/lib/libBc_EndDevice_Atmega128rfa1_Atmega128rfa1_Gcc.a(zdo.o)
 .text.zdoStartNetworkStackResetConf
                0x0000df76       0x4a ./../../../../BitCloud/lib/libBc_EndDevice_Atmega128rfa1_Atmega128rfa1_Gcc.a(zdo.o)
 .text.zdoPerformIntraPanPortability
                0x0000dfc0       0x40 ./../../../../BitCloud/lib/libBc_EndDevice_Atmega128rfa1_Atmega128rfa1_Gcc.a(zdo.o)
                0x0000dfc0                zdoPerformIntraPanPortability
 .text.NWK_SyncConf
                0x0000e000       0x56 ./../../../../BitCloud/lib/libBc_EndDevice_Atmega128rfa1_Atmega128rfa1_Gcc.a(zdo.o)
 .text.NWK_NwkStatusInd
                0x0000e056       0xb2 ./../../../../BitCloud/lib/libBc_EndDevice_Atmega128rfa1_Atmega128rfa1_Gcc.a(zdo.o)
                0x0000e056                NWK_NwkStatusInd
 .text.SYS_Sleep
                0x0000e108        0x6 ./../../../../BitCloud/lib/libBc_EndDevice_Atmega128rfa1_Atmega128rfa1_Gcc.a(bcSysSleep.o)
                0x0000e108                SYS_Sleep
 .text.postNewMacRequest
                0x0000e10e       0x46 ./../../../../BitCloud/lib/libBc_EndDevice_Atmega128rfa1_Atmega128rfa1_Gcc.a(machwdManager.o)
 .text.putReqInQueue
                0x0000e154       0x18 ./../../../../BitCloud/lib/libBc_EndDevice_Atmega128rfa1_Atmega128rfa1_Gcc.a(machwdManager.o)
 .text.MACHWD_DataReq
                0x0000e16c        0xa ./../../../../BitCloud/lib/libBc_EndDevice_Atmega128rfa1_Atmega128rfa1_Gcc.a(machwdManager.o)
                0x0000e16c                MACHWD_DataReq
 .text.MACHWD_SetTrxStateReq
                0x0000e176        0xc ./../../../../BitCloud/lib/libBc_EndDevice_Atmega128rfa1_Atmega128rfa1_Gcc.a(machwdManager.o)
                0x0000e176                MACHWD_SetTrxStateReq
 .text.MACHWD_SetReq
                0x0000e182        0xc ./../../../../BitCloud/lib/libBc_EndDevice_Atmega128rfa1_Atmega128rfa1_Gcc.a(machwdManager.o)
                0x0000e182                MACHWD_SetReq
 .text.MACHWD_EdReq
                0x0000e18e        0xc ./../../../../BitCloud/lib/libBc_EndDevice_Atmega128rfa1_Atmega128rfa1_Gcc.a(machwdManager.o)
                0x0000e18e                MACHWD_EdReq
 .text.RF_RandomReq
                0x0000e19a       0x14 ./../../../../BitCloud/lib/libBc_EndDevice_Atmega128rfa1_Atmega128rfa1_Gcc.a(machwdManager.o)
                0x0000e19a                RF_RandomReq
 .text.MACHWD_Reset
                0x0000e1ae       0x46 ./../../../../BitCloud/lib/libBc_EndDevice_Atmega128rfa1_Atmega128rfa1_Gcc.a(machwdManager.o)
                0x0000e1ae                MACHWD_Reset
 .text.MAC_PHY_HWD_TaskHandler
                0x0000e1f4      0x1b0 ./../../../../BitCloud/lib/libBc_EndDevice_Atmega128rfa1_Atmega128rfa1_Gcc.a(machwdManager.o)
                0x0000e1f4                MAC_PHY_HWD_TaskHandler
 .text.machwdRegAccessReqHandler
                0x0000e3a4       0x66 ./../../../../BitCloud/lib/libBc_EndDevice_Atmega128rfa1_Atmega128rfa1_Gcc.a(machwdRegAccessHandler.o)
                0x0000e3a4                machwdRegAccessReqHandler
 .text.machwdRegAccessTaskHandler
                0x0000e40a       0x48 ./../../../../BitCloud/lib/libBc_EndDevice_Atmega128rfa1_Atmega128rfa1_Gcc.a(machwdRegAccessHandler.o)
                0x0000e40a                machwdRegAccessTaskHandler
 .text.machwdReset
                0x0000e452       0xc6 ./../../../../BitCloud/lib/libBc_EndDevice_Atmega128rfa1_Atmega128rfa1_Gcc.a(machwdResetHandler.o)
                0x0000e452                machwdReset
 .text.machwdRndReqHandler
                0x0000e518       0x3a ./../../../../BitCloud/lib/libBc_EndDevice_Atmega128rfa1_Atmega128rfa1_Gcc.a(machwdRndHandler.o)
                0x0000e518                machwdRndReqHandler
 .text.machwdRndTaskHandler
                0x0000e552       0x32 ./../../../../BitCloud/lib/libBc_EndDevice_Atmega128rfa1_Atmega128rfa1_Gcc.a(machwdRndHandler.o)
                0x0000e552                machwdRndTaskHandler
 .text.machwdResetRndHandler
                0x0000e584        0x6 ./../../../../BitCloud/lib/libBc_EndDevice_Atmega128rfa1_Atmega128rfa1_Gcc.a(machwdRndHandler.o)
                0x0000e584                machwdResetRndHandler
 .text.machwdResetRxBuffer
                0x0000e58a       0x62 ./../../../../BitCloud/lib/libBc_EndDevice_Atmega128rfa1_Atmega128rfa1_Gcc.a(machwdRxBuffer.o)
                0x0000e58a                machwdResetRxBuffer
 .text.machwdNextBuffer
                0x0000e5ec       0x10 ./../../../../BitCloud/lib/libBc_EndDevice_Atmega128rfa1_Atmega128rfa1_Gcc.a(machwdRxBuffer.o)
                0x0000e5ec                machwdNextBuffer
 .text.machwdReleaseBuffer
                0x0000e5fc       0x62 ./../../../../BitCloud/lib/libBc_EndDevice_Atmega128rfa1_Atmega128rfa1_Gcc.a(machwdRxBuffer.o)
                0x0000e5fc                machwdReleaseBuffer
 .text.machwdNextBufferPresent
                0x0000e65e       0x26 ./../../../../BitCloud/lib/libBc_EndDevice_Atmega128rfa1_Atmega128rfa1_Gcc.a(machwdRxBuffer.o)
                0x0000e65e                machwdNextBufferPresent
 .text.machwdRxFrameTaskHandler
                0x0000e684       0x46 ./../../../../BitCloud/lib/libBc_EndDevice_Atmega128rfa1_Atmega128rfa1_Gcc.a(machwdRxFrameHandler.o)
                0x0000e684                machwdRxFrameTaskHandler
 .text.machwdRxFrameIndTaskHandler
                0x0000e6ca       0xa2 ./../../../../BitCloud/lib/libBc_EndDevice_Atmega128rfa1_Atmega128rfa1_Gcc.a(machwdRxFrameHandler.o)
                0x0000e6ca                machwdRxFrameIndTaskHandler
 .text.executePhySetReq
                0x0000e76c       0x32 ./../../../../BitCloud/lib/libBc_EndDevice_Atmega128rfa1_Atmega128rfa1_Gcc.a(machwdSetHandler.o)
 .text.executeSetReq
                0x0000e79e       0x5c ./../../../../BitCloud/lib/libBc_EndDevice_Atmega128rfa1_Atmega128rfa1_Gcc.a(machwdSetHandler.o)
 .text.machwdSetReqHandler
                0x0000e7fa       0xba ./../../../../BitCloud/lib/libBc_EndDevice_Atmega128rfa1_Atmega128rfa1_Gcc.a(machwdSetHandler.o)
                0x0000e7fa                machwdSetReqHandler
 .text.machwdSetTaskHandler
                0x0000e8b4       0x3a ./../../../../BitCloud/lib/libBc_EndDevice_Atmega128rfa1_Atmega128rfa1_Gcc.a(machwdSetHandler.o)
                0x0000e8b4                machwdSetTaskHandler
 .text.machwdResetSetHandler
                0x0000e8ee        0xe ./../../../../BitCloud/lib/libBc_EndDevice_Atmega128rfa1_Atmega128rfa1_Gcc.a(machwdSetHandler.o)
                0x0000e8ee                machwdResetSetHandler
 .text.machwdSendTrxCmd
                0x0000e8fc       0x1c ./../../../../BitCloud/lib/libBc_EndDevice_Atmega128rfa1_Atmega128rfa1_Gcc.a(machwdTrxCtrl.o)
                0x0000e8fc                machwdSendTrxCmd
 .text.machwdGetPhyTrxCmd
                0x0000e918       0x14 ./../../../../BitCloud/lib/libBc_EndDevice_Atmega128rfa1_Atmega128rfa1_Gcc.a(machwdTrxCtrl.o)
                0x0000e918                machwdGetPhyTrxCmd
 .text.machwdConvertTrxCmdToTrxState
                0x0000e92c       0x14 ./../../../../BitCloud/lib/libBc_EndDevice_Atmega128rfa1_Atmega128rfa1_Gcc.a(machwdTrxCtrl.o)
                0x0000e92c                machwdConvertTrxCmdToTrxState
 .text.machwdConvertTrxStateToTrxCmd
                0x0000e940       0x16 ./../../../../BitCloud/lib/libBc_EndDevice_Atmega128rfa1_Atmega128rfa1_Gcc.a(machwdTrxCtrl.o)
                0x0000e940                machwdConvertTrxStateToTrxCmd
 .text.machwdTrxReqHandler
                0x0000e956       0x40 ./../../../../BitCloud/lib/libBc_EndDevice_Atmega128rfa1_Atmega128rfa1_Gcc.a(machwdTrxHandler.o)
                0x0000e956                machwdTrxReqHandler
 .text.machwdTrxTaskHandler
                0x0000e996       0x40 ./../../../../BitCloud/lib/libBc_EndDevice_Atmega128rfa1_Atmega128rfa1_Gcc.a(machwdTrxHandler.o)
                0x0000e996                machwdTrxTaskHandler
 .text.machwdResetTrxHandler
                0x0000e9d6        0x6 ./../../../../BitCloud/lib/libBc_EndDevice_Atmega128rfa1_Atmega128rfa1_Gcc.a(machwdTrxHandler.o)
                0x0000e9d6                machwdResetTrxHandler
 .text.executeDataReq
                0x0000e9dc       0x28 ./../../../../BitCloud/lib/libBc_EndDevice_Atmega128rfa1_Atmega128rfa1_Gcc.a(machwdTxFrameHandler.o)
 .text.machwdTxFrameReqHandler
                0x0000ea04       0x44 ./../../../../BitCloud/lib/libBc_EndDevice_Atmega128rfa1_Atmega128rfa1_Gcc.a(machwdTxFrameHandler.o)
                0x0000ea04                machwdTxFrameReqHandler
 .text.machwdTxFrameTaskHandler
                0x0000ea48       0x3a ./../../../../BitCloud/lib/libBc_EndDevice_Atmega128rfa1_Atmega128rfa1_Gcc.a(machwdTxFrameHandler.o)
                0x0000ea48                machwdTxFrameTaskHandler
 .text.machwdResetTxFrameHandler
                0x0000ea82        0xa ./../../../../BitCloud/lib/libBc_EndDevice_Atmega128rfa1_Atmega128rfa1_Gcc.a(machwdTxFrameHandler.o)
                0x0000ea82                machwdResetTxFrameHandler
 .text.putReqInQueue
                0x0000ea8c       0x2c ./../../../../BitCloud/lib/libBc_EndDevice_Atmega128rfa1_Atmega128rfa1_Gcc.a(machwiManager.o)
 .text.machwiSendConfToUpperLayer
                0x0000eab8       0xaa ./../../../../BitCloud/lib/libBc_EndDevice_Atmega128rfa1_Atmega128rfa1_Gcc.a(machwiManager.o)
                0x0000eab8                machwiSendConfToUpperLayer
 .text.MAC_HWI_TaskHandler
                0x0000eb62       0x96 ./../../../../BitCloud/lib/libBc_EndDevice_Atmega128rfa1_Atmega128rfa1_Gcc.a(machwiManager.o)
                0x0000eb62                MAC_HWI_TaskHandler
 .text.MAC_AssociateReq
                0x0000ebf8        0xc ./../../../../BitCloud/lib/libBc_EndDevice_Atmega128rfa1_Atmega128rfa1_Gcc.a(machwiManager.o)
                0x0000ebf8                MAC_AssociateReq
 .text.MAC_GetReq
                0x0000ec04        0xc ./../../../../BitCloud/lib/libBc_EndDevice_Atmega128rfa1_Atmega128rfa1_Gcc.a(machwiManager.o)
                0x0000ec04                MAC_GetReq
 .text.MAC_ResetReq
                0x0000ec10       0x54 ./../../../../BitCloud/lib/libBc_EndDevice_Atmega128rfa1_Atmega128rfa1_Gcc.a(machwiManager.o)
                0x0000ec10                MAC_ResetReq
 .text.MAC_RxEnableReq
                0x0000ec64        0xc ./../../../../BitCloud/lib/libBc_EndDevice_Atmega128rfa1_Atmega128rfa1_Gcc.a(machwiManager.o)
                0x0000ec64                MAC_RxEnableReq
 .text.MAC_ScanReq
                0x0000ec70        0xc ./../../../../BitCloud/lib/libBc_EndDevice_Atmega128rfa1_Atmega128rfa1_Gcc.a(machwiManager.o)
                0x0000ec70                MAC_ScanReq
 .text.MAC_SetReq
                0x0000ec7c        0xc ./../../../../BitCloud/lib/libBc_EndDevice_Atmega128rfa1_Atmega128rfa1_Gcc.a(machwiManager.o)
                0x0000ec7c                MAC_SetReq
 .text.MAC_PollReq
                0x0000ec88        0xc ./../../../../BitCloud/lib/libBc_EndDevice_Atmega128rfa1_Atmega128rfa1_Gcc.a(machwiManager.o)
                0x0000ec88                MAC_PollReq
 .text.MAC_DataReq
                0x0000ec94        0xc ./../../../../BitCloud/lib/libBc_EndDevice_Atmega128rfa1_Atmega128rfa1_Gcc.a(machwiManager.o)
                0x0000ec94                MAC_DataReq
 .text.machwiSendDataInd
                0x0000eca0        0xe ./../../../../BitCloud/lib/libBc_EndDevice_Atmega128rfa1_Atmega128rfa1_Gcc.a(machwiManager.o)
                0x0000eca0                machwiSendDataInd
 .text.machwiSendBeaconNotifyInd
                0x0000ecae        0xe ./../../../../BitCloud/lib/libBc_EndDevice_Atmega128rfa1_Atmega128rfa1_Gcc.a(machwiManager.o)
                0x0000ecae                machwiSendBeaconNotifyInd
 .text.machwiSendSyncLossNotifyInd
                0x0000ecbc        0xe ./../../../../BitCloud/lib/libBc_EndDevice_Atmega128rfa1_Atmega128rfa1_Gcc.a(machwiManager.o)
                0x0000ecbc                machwiSendSyncLossNotifyInd
 .text.MACHWD_DataInd
                0x0000ecca       0x34 ./../../../../BitCloud/lib/libBc_EndDevice_Atmega128rfa1_Atmega128rfa1_Gcc.a(machwiPanServer.o)
                0x0000ecca                MACHWD_DataInd
 .text.switchingCompleted
                0x0000ecfe       0x12 ./../../../../BitCloud/lib/libBc_EndDevice_Atmega128rfa1_Atmega128rfa1_Gcc.a(machwiPollHandler.o)
 .text.completeHandling
                0x0000ed10       0x18 ./../../../../BitCloud/lib/libBc_EndDevice_Atmega128rfa1_Atmega128rfa1_Gcc.a(machwiPollHandler.o)
 .text.machwdDataConfirm
                0x0000ed28       0x6e ./../../../../BitCloud/lib/libBc_EndDevice_Atmega128rfa1_Atmega128rfa1_Gcc.a(machwiPollHandler.o)
 .text.halPollTimerFired
                0x0000ed96        0x6 ./../../../../BitCloud/lib/libBc_EndDevice_Atmega128rfa1_Atmega128rfa1_Gcc.a(machwiPollHandler.o)
 .text.machwiResetPollHandler
                0x0000ed9c        0x6 ./../../../../BitCloud/lib/libBc_EndDevice_Atmega128rfa1_Atmega128rfa1_Gcc.a(machwiPollHandler.o)
                0x0000ed9c                machwiResetPollHandler
 .text.machwiDataIndication
                0x0000eda2      0x1cc ./../../../../BitCloud/lib/libBc_EndDevice_Atmega128rfa1_Atmega128rfa1_Gcc.a(machwiPollHandler.o)
                0x0000eda2                machwiDataIndication
 .text.machwiPollReqHandler
                0x0000ef6e      0x15c ./../../../../BitCloud/lib/libBc_EndDevice_Atmega128rfa1_Atmega128rfa1_Gcc.a(machwiPollHandler.o)
                0x0000ef6e                machwiPollReqHandler
 .text.finishResetOperationsAndGenerateConfirm
                0x0000f0ca        0xe ./../../../../BitCloud/lib/libBc_EndDevice_Atmega128rfa1_Atmega128rfa1_Gcc.a(machwiResetHandler.o)
 .text.machwdSetTrxStateConfirm
                0x0000f0d8        0x6 ./../../../../BitCloud/lib/libBc_EndDevice_Atmega128rfa1_Atmega128rfa1_Gcc.a(machwiResetHandler.o)
 .text.machwdSetConfirm
                0x0000f0de       0x1c ./../../../../BitCloud/lib/libBc_EndDevice_Atmega128rfa1_Atmega128rfa1_Gcc.a(machwiResetHandler.o)
 .text.machwiResetReqHandler
                0x0000f0fa       0x5a ./../../../../BitCloud/lib/libBc_EndDevice_Atmega128rfa1_Atmega128rfa1_Gcc.a(machwiResetHandler.o)
                0x0000f0fa                machwiResetReqHandler
 .text.machwdSetTrxStateConfirm
                0x0000f154       0x12 ./../../../../BitCloud/lib/libBc_EndDevice_Atmega128rfa1_Atmega128rfa1_Gcc.a(machwiRxEnableHandler.o)
 .text.machwiRxEnableReqHandler
                0x0000f166       0x3a ./../../../../BitCloud/lib/libBc_EndDevice_Atmega128rfa1_Atmega128rfa1_Gcc.a(machwiRxEnableHandler.o)
                0x0000f166                machwiRxEnableReqHandler
 .text.setNextChannel
                0x0000f1a0       0x7a ./../../../../BitCloud/lib/libBc_EndDevice_Atmega128rfa1_Atmega128rfa1_Gcc.a(machwiScanHandler.o)
 .text.switchToActiveChannel
                0x0000f21a       0x2c ./../../../../BitCloud/lib/libBc_EndDevice_Atmega128rfa1_Atmega128rfa1_Gcc.a(machwiScanHandler.o)
 .text.halScanTimerFired
                0x0000f246       0x2a ./../../../../BitCloud/lib/libBc_EndDevice_Atmega128rfa1_Atmega128rfa1_Gcc.a(machwiScanHandler.o)
 .text.machwdDataConfirm
                0x0000f270       0x76 ./../../../../BitCloud/lib/libBc_EndDevice_Atmega128rfa1_Atmega128rfa1_Gcc.a(machwiScanHandler.o)
 .text.machwdEdConfirm
                0x0000f2e6       0xf0 ./../../../../BitCloud/lib/libBc_EndDevice_Atmega128rfa1_Atmega128rfa1_Gcc.a(machwiScanHandler.o)
 .text.trxStateHandling
                0x0000f3d6       0x1a ./../../../../BitCloud/lib/libBc_EndDevice_Atmega128rfa1_Atmega128rfa1_Gcc.a(machwiScanHandler.o)
 .text.finishScan
                0x0000f3f0        0xe ./../../../../BitCloud/lib/libBc_EndDevice_Atmega128rfa1_Atmega128rfa1_Gcc.a(machwiScanHandler.o)
 .text.generateScanConfirm
                0x0000f3fe       0x12 ./../../../../BitCloud/lib/libBc_EndDevice_Atmega128rfa1_Atmega128rfa1_Gcc.a(machwiScanHandler.o)
 .text.machwdSetConfirm
                0x0000f410      0x2ea ./../../../../BitCloud/lib/libBc_EndDevice_Atmega128rfa1_Atmega128rfa1_Gcc.a(machwiScanHandler.o)
 .text.machwdSetTrxStateConfirm
                0x0000f6fa       0xf2 ./../../../../BitCloud/lib/libBc_EndDevice_Atmega128rfa1_Atmega128rfa1_Gcc.a(machwiScanHandler.o)
 .text.machwiScanReqHandler
                0x0000f7ec      0x1a0 ./../../../../BitCloud/lib/libBc_EndDevice_Atmega128rfa1_Atmega128rfa1_Gcc.a(machwiScanHandler.o)
                0x0000f7ec                machwiScanReqHandler
 .text.machwiBeaconInd
                0x0000f98c      0x2da ./../../../../BitCloud/lib/libBc_EndDevice_Atmega128rfa1_Atmega128rfa1_Gcc.a(machwiScanHandler.o)
                0x0000f98c                machwiBeaconInd
 .text.machwiCoordRealignmentCommandInd
                0x0000fc66       0xe6 ./../../../../BitCloud/lib/libBc_EndDevice_Atmega128rfa1_Atmega128rfa1_Gcc.a(machwiScanHandler.o)
                0x0000fc66                machwiCoordRealignmentCommandInd
 .text.machwiResetScanHandler
                0x0000fd4c        0x6 ./../../../../BitCloud/lib/libBc_EndDevice_Atmega128rfa1_Atmega128rfa1_Gcc.a(machwiScanHandler.o)
                0x0000fd4c                machwiResetScanHandler
 .text.machwdSetConfirm
                0x0000fd52        0xe ./../../../../BitCloud/lib/libBc_EndDevice_Atmega128rfa1_Atmega128rfa1_Gcc.a(machwiSetGetHandler.o)
 .text.machwiGetReqHandler
                0x0000fd60       0x4c ./../../../../BitCloud/lib/libBc_EndDevice_Atmega128rfa1_Atmega128rfa1_Gcc.a(machwiSetGetHandler.o)
                0x0000fd60                machwiGetReqHandler
 .text.machwiSetReqHandler
                0x0000fdac       0xae ./../../../../BitCloud/lib/libBc_EndDevice_Atmega128rfa1_Atmega128rfa1_Gcc.a(machwiSetGetHandler.o)
                0x0000fdac                machwiSetReqHandler
 .text.machwdSetTrxStateConfirm
                0x0000fe5a        0xc ./../../../../BitCloud/lib/libBc_EndDevice_Atmega128rfa1_Atmega128rfa1_Gcc.a(machwiSwitchRxCtrl.o)
 .text.machwiSwitchRxAccordToRxOnWhenIdle
                0x0000fe66       0x2a ./../../../../BitCloud/lib/libBc_EndDevice_Atmega128rfa1_Atmega128rfa1_Gcc.a(machwiSwitchRxCtrl.o)
                0x0000fe66                machwiSwitchRxAccordToRxOnWhenIdle
 .text.RF_Init  0x0000fe90       0x2e ./../../../../BitCloud/lib/libBc_EndDevice_Atmega128rfa1_Atmega128rfa1_Gcc.a(phyInit.o)
                0x0000fe90                RF_Init
 .text.PHY_RegWriteReq
                0x0000febe       0x3c ./../../../../BitCloud/lib/libBc_EndDevice_Atmega128rfa1_Atmega128rfa1_Gcc.a(phyRegAccess.o)
                0x0000febe                PHY_RegWriteReq
 .text.PHY_RegReadReq
                0x0000fefa       0x3c ./../../../../BitCloud/lib/libBc_EndDevice_Atmega128rfa1_Atmega128rfa1_Gcc.a(phyRegAccess.o)
                0x0000fefa                PHY_RegReadReq
 .text.PHY_Reset
                0x0000ff36       0xae ./../../../../BitCloud/lib/libBc_EndDevice_Atmega128rfa1_Atmega128rfa1_Gcc.a(phyReset.o)
                0x0000ff36                PHY_Reset
 .text.phyRxEndInterrupt
                0x0000ffe4       0xee ./../../../../BitCloud/lib/libBc_EndDevice_Atmega128rfa1_Atmega128rfa1_Gcc.a(phyRfIrqDispatcher.o)
                0x0000ffe4                phyRxEndInterrupt
 .text.phyTxEndInterrupt
                0x000100d2       0x8a ./../../../../BitCloud/lib/libBc_EndDevice_Atmega128rfa1_Atmega128rfa1_Gcc.a(phyRfIrqDispatcher.o)
                0x000100d2                phyTxEndInterrupt
 .text.phyRestoreRfIrqMask
                0x0001015c        0x6 ./../../../../BitCloud/lib/libBc_EndDevice_Atmega128rfa1_Atmega128rfa1_Gcc.a(phyRfIrqDispatcher.o)
                0x0001015c                phyRestoreRfIrqMask
 .text.phyClearRfIrqMask
                0x00010162        0xa ./../../../../BitCloud/lib/libBc_EndDevice_Atmega128rfa1_Atmega128rfa1_Gcc.a(phyRfIrqDispatcher.o)
                0x00010162                phyClearRfIrqMask
 .text.phyGetDataStatus
                0x0001016c       0x16 ./../../../../BitCloud/lib/libBc_EndDevice_Atmega128rfa1_Atmega128rfa1_Gcc.a(phyRfIrqDispatcher.o)
                0x0001016c                phyGetDataStatus
 .text.PHY_RndReq
                0x00010182       0xee ./../../../../BitCloud/lib/libBc_EndDevice_Atmega128rfa1_Atmega128rfa1_Gcc.a(phyRnd.o)
                0x00010182                PHY_RndReq
 .text.PHY_DownloadFrame
                0x00010270      0x186 ./../../../../BitCloud/lib/libBc_EndDevice_Atmega128rfa1_Atmega128rfa1_Gcc.a(phyRxFrame.o)
                0x00010270                PHY_DownloadFrame
 .text.PHY_SetReq
                0x000103f6      0x1f2 ./../../../../BitCloud/lib/libBc_EndDevice_Atmega128rfa1_Atmega128rfa1_Gcc.a(phySet.o)
                0x000103f6                PHY_SetReq
 .text.PHY_SetTrxStateReq
                0x000105e8       0x80 ./../../../../BitCloud/lib/libBc_EndDevice_Atmega128rfa1_Atmega128rfa1_Gcc.a(phySetTrxState.o)
                0x000105e8                PHY_SetTrxStateReq
 .text.PHY_DataReq
                0x00010668       0x28 ./../../../../BitCloud/lib/libBc_EndDevice_Atmega128rfa1_Atmega128rfa1_Gcc.a(phyTxFrame.o)
                0x00010668                PHY_DataReq
 .text.machwdCalibReqHandler
                0x00010690       0x42 ./../../../../BitCloud/lib/libBc_EndDevice_Atmega128rfa1_Atmega128rfa1_Gcc.a(machwdCalibHandler.o)
                0x00010690                machwdCalibReqHandler
 .text.machwdCalibTaskHandler
                0x000106d2       0x34 ./../../../../BitCloud/lib/libBc_EndDevice_Atmega128rfa1_Atmega128rfa1_Gcc.a(machwdCalibHandler.o)
                0x000106d2                machwdCalibTaskHandler
 .text.machwdResetCalibHandler
                0x00010706        0x6 ./../../../../BitCloud/lib/libBc_EndDevice_Atmega128rfa1_Atmega128rfa1_Gcc.a(machwdCalibHandler.o)
                0x00010706                machwdResetCalibHandler
 .text.machwdEdReqHandler
                0x0001070c       0x28 ./../../../../BitCloud/lib/libBc_EndDevice_Atmega128rfa1_Atmega128rfa1_Gcc.a(machwdEdHandler.o)
                0x0001070c                machwdEdReqHandler
 .text.machwdEdTaskHandler
                0x00010734       0x28 ./../../../../BitCloud/lib/libBc_EndDevice_Atmega128rfa1_Atmega128rfa1_Gcc.a(machwdEdHandler.o)
                0x00010734                machwdEdTaskHandler
 .text.machwdResetEdHandler
                0x0001075c        0x6 ./../../../../BitCloud/lib/libBc_EndDevice_Atmega128rfa1_Atmega128rfa1_Gcc.a(machwdEdHandler.o)
                0x0001075c                machwdResetEdHandler
 .text.composePanIdAndAddress
                0x00010762       0x56 ./../../../../BitCloud/lib/libBc_EndDevice_Atmega128rfa1_Atmega128rfa1_Gcc.a(machwdFrameRoutine.o)
 .text.parsePanIdAndAddress
                0x000107b8       0x58 ./../../../../BitCloud/lib/libBc_EndDevice_Atmega128rfa1_Atmega128rfa1_Gcc.a(machwdFrameRoutine.o)
 .text.machwdParseFrame
                0x00010810      0x242 ./../../../../BitCloud/lib/libBc_EndDevice_Atmega128rfa1_Atmega128rfa1_Gcc.a(machwdFrameRoutine.o)
                0x00010810                machwdParseFrame
 .text.machwdComposeFrame
                0x00010a52      0x184 ./../../../../BitCloud/lib/libBc_EndDevice_Atmega128rfa1_Atmega128rfa1_Gcc.a(machwdFrameRoutine.o)
                0x00010a52                machwdComposeFrame
 .text.machwdGetHandlerId
                0x00010bd6       0x48 ./../../../../BitCloud/lib/libBc_EndDevice_Atmega128rfa1_Atmega128rfa1_Gcc.a(machwdHandlerCtrl.o)
                0x00010bd6                machwdGetHandlerId
 .text.setHandling
                0x00010c1e       0x64 ./../../../../BitCloud/lib/libBc_EndDevice_Atmega128rfa1_Atmega128rfa1_Gcc.a(machwiAssociateHandler.o)
 .text.completeHandling
                0x00010c82       0x18 ./../../../../BitCloud/lib/libBc_EndDevice_Atmega128rfa1_Atmega128rfa1_Gcc.a(machwiAssociateHandler.o)
 .text.machwdSetConfirm
                0x00010c9a      0x18c ./../../../../BitCloud/lib/libBc_EndDevice_Atmega128rfa1_Atmega128rfa1_Gcc.a(machwiAssociateHandler.o)
 .text.machwdDataConfirm
                0x00010e26       0xba ./../../../../BitCloud/lib/libBc_EndDevice_Atmega128rfa1_Atmega128rfa1_Gcc.a(machwiAssociateHandler.o)
 .text.associateTimerFired
                0x00010ee0      0x100 ./../../../../BitCloud/lib/libBc_EndDevice_Atmega128rfa1_Atmega128rfa1_Gcc.a(machwiAssociateHandler.o)
 .text.switchingCompleted
                0x00010fe0       0x12 ./../../../../BitCloud/lib/libBc_EndDevice_Atmega128rfa1_Atmega128rfa1_Gcc.a(machwiAssociateHandler.o)
 .text.machwiResetAssociateHandler
                0x00010ff2        0x6 ./../../../../BitCloud/lib/libBc_EndDevice_Atmega128rfa1_Atmega128rfa1_Gcc.a(machwiAssociateHandler.o)
                0x00010ff2                machwiResetAssociateHandler
 .text.machwiAssociateReqHandler
                0x00010ff8       0x9a ./../../../../BitCloud/lib/libBc_EndDevice_Atmega128rfa1_Atmega128rfa1_Gcc.a(machwiAssociateHandler.o)
                0x00010ff8                machwiAssociateReqHandler
 .text.machwiAssociateRespInd
                0x00011092      0x132 ./../../../../BitCloud/lib/libBc_EndDevice_Atmega128rfa1_Atmega128rfa1_Gcc.a(machwiAssociateHandler.o)
                0x00011092                machwiAssociateRespInd
 .text.machwdDataConfirm
                0x000111c4       0x26 ./../../../../BitCloud/lib/libBc_EndDevice_Atmega128rfa1_Atmega128rfa1_Gcc.a(machwiDataHandler.o)
 .text.machwiConvertmachwdDataConfirmTypes
                0x000111ea       0x14 ./../../../../BitCloud/lib/libBc_EndDevice_Atmega128rfa1_Atmega128rfa1_Gcc.a(machwiDataHandler.o)
                0x000111ea                machwiConvertmachwdDataConfirmTypes
 .text.machwiPrepareDataFrame
                0x000111fe      0x10e ./../../../../BitCloud/lib/libBc_EndDevice_Atmega128rfa1_Atmega128rfa1_Gcc.a(machwiDataHandler.o)
                0x000111fe                machwiPrepareDataFrame
 .text.machwiDataReqHandler
                0x0001130c       0x54 ./../../../../BitCloud/lib/libBc_EndDevice_Atmega128rfa1_Atmega128rfa1_Gcc.a(machwiDataHandler.o)
                0x0001130c                machwiDataReqHandler
 .text.PHY_CalibReq
                0x00011360       0x86 ./../../../../BitCloud/lib/libBc_EndDevice_Atmega128rfa1_Atmega128rfa1_Gcc.a(phyCalib.o)
                0x00011360                PHY_CalibReq
 .text.PHY_EdReq
                0x000113e6       0x40 ./../../../../BitCloud/lib/libBc_EndDevice_Atmega128rfa1_Atmega128rfa1_Gcc.a(phyEd.o)
                0x000113e6                PHY_EdReq
 .text.phySetRTimerSource
                0x00011426        0x6 ./../../../../BitCloud/lib/libBc_EndDevice_Atmega128rfa1_Atmega128rfa1_Gcc.a(phyRtimerIrqDispatcher.o)
                0x00011426                phySetRTimerSource
 .text.phyDispatcheRTimerEvent
                0x0001142c       0xa8 ./../../../../BitCloud/lib/libBc_EndDevice_Atmega128rfa1_Atmega128rfa1_Gcc.a(phyRtimerIrqDispatcher.o)
                0x0001142c                phyDispatcheRTimerEvent
 .text.HAL_Delay
                0x000114d4        0x6 ./../../../../BitCloud/lib/libHAL_RcbAtm128rfa1_Atmega128rfa1_8Mhz_Gcc.a(halDelay.o)
                0x000114d4                HAL_Delay
 .text.HAL_Init
                0x000114da       0x3c ./../../../../BitCloud/lib/libHAL_RcbAtm128rfa1_Atmega128rfa1_8Mhz_Gcc.a(halInit.o)
                0x000114da                HAL_Init
 .text.HAL_EnableRxTxSwitcher
                0x00011516        0x6 ./../../../../BitCloud/lib/libHAL_RcbAtm128rfa1_Atmega128rfa1_8Mhz_Gcc.a(halRfCtrl.o)
                0x00011516                HAL_EnableRxTxSwitcher
 .text.HAL_InitAntennaDiversity
                0x0001151c        0x2 ./../../../../BitCloud/lib/libHAL_RcbAtm128rfa1_Atmega128rfa1_8Mhz_Gcc.a(halRfCtrl.o)
                0x0001151c                HAL_InitAntennaDiversity
 .text.HAL_EnableRxAntennaDiversity
                0x0001151e        0x2 ./../../../../BitCloud/lib/libHAL_RcbAtm128rfa1_Atmega128rfa1_8Mhz_Gcc.a(halRfCtrl.o)
                0x0001151e                HAL_EnableRxAntennaDiversity
 .text.HAL_EnableTxAntennaDiversity
                0x00011520        0x2 ./../../../../BitCloud/lib/libHAL_RcbAtm128rfa1_Atmega128rfa1_8Mhz_Gcc.a(halRfCtrl.o)
                0x00011520                HAL_EnableTxAntennaDiversity
 .text.halWriteByteSpi
                0x00011522        0xe ./../../../../BitCloud/lib/libHAL_RcbAtm128rfa1_Atmega128rfa1_8Mhz_Gcc.a(halUid.o)
 .text.halReadUid
                0x00011530       0x52 ./../../../../BitCloud/lib/libHAL_RcbAtm128rfa1_Atmega128rfa1_8Mhz_Gcc.a(halUid.o)
                0x00011530                halReadUid
 .text.HAL_ReadUid
                0x00011582       0x44 ./../../../../BitCloud/lib/libHAL_RcbAtm128rfa1_Atmega128rfa1_8Mhz_Gcc.a(halUid.o)
                0x00011582                HAL_ReadUid
 .text.HAL_InitMacIsr
                0x000115c6        0x8 ./../../../../BitCloud/lib/libHAL_RcbAtm128rfa1_Atmega128rfa1_8Mhz_Gcc.a(halMacIsr.o)
                0x000115c6                HAL_InitMacIsr
 .text.HAL_StartRtimer
                0x000115ce       0x72 ./../../../../BitCloud/lib/libHAL_RcbAtm128rfa1_Atmega128rfa1_8Mhz_Gcc.a(halMacIsr.o)
                0x000115ce                HAL_StartRtimer
 .text.HAL_StopRtimer
                0x00011640       0x14 ./../../../../BitCloud/lib/libHAL_RcbAtm128rfa1_Atmega128rfa1_8Mhz_Gcc.a(halMacIsr.o)
                0x00011640                HAL_StopRtimer
 .text.__vector_43
                0x00011654       0xba ./../../../../BitCloud/lib/libHAL_RcbAtm128rfa1_Atmega128rfa1_8Mhz_Gcc.a(halMacIsr.o)
                0x00011654                __vector_43
 .text.__vector_60
                0x0001170e       0x50 ./../../../../BitCloud/lib/libHAL_RcbAtm128rfa1_Atmega128rfa1_8Mhz_Gcc.a(halMacIsr.o)
                0x0001170e                __vector_60
 .text.__vector_63
                0x0001175e       0x50 ./../../../../BitCloud/lib/libHAL_RcbAtm128rfa1_Atmega128rfa1_8Mhz_Gcc.a(halMacIsr.o)
                0x0001175e                __vector_63
 .text.libgcc   0x000117ae       0x3e d:/program files/atmel/avr studio 5.1/extensions/atmel/avrgcc/3.3.1.27/avrtoolchain/bin/../lib/gcc/avr/4.5.1/avr51\libgcc.a(_mulsi3.o)
                0x000117ae                __mulsi3
 .text.libgcc   0x000117ec       0x18 d:/program files/atmel/avr studio 5.1/extensions/atmel/avrgcc/3.3.1.27/avrtoolchain/bin/../lib/gcc/avr/4.5.1/avr51\libgcc.a(_udivmodqi4.o)
                0x000117ec                __udivmodqi4
 .text.libgcc   0x00011804       0x28 d:/program files/atmel/avr studio 5.1/extensions/atmel/avrgcc/3.3.1.27/avrtoolchain/bin/../lib/gcc/avr/4.5.1/avr51\libgcc.a(_udivmodhi4.o)
                0x00011804                __udivmodhi4
 .text.libgcc   0x0001182c       0x44 d:/program files/atmel/avr studio 5.1/extensions/atmel/avrgcc/3.3.1.27/avrtoolchain/bin/../lib/gcc/avr/4.5.1/avr51\libgcc.a(_udivmodsi4.o)
                0x0001182c                __udivmodsi4
 .text.libgcc   0x00011870       0x38 d:/program files/atmel/avr studio 5.1/extensions/atmel/avrgcc/3.3.1.27/avrtoolchain/bin/../lib/gcc/avr/4.5.1/avr51\libgcc.a(_prologue.o)
                0x00011870                __prologue_saves__
 .text.libgcc   0x000118a8       0x36 d:/program files/atmel/avr studio 5.1/extensions/atmel/avrgcc/3.3.1.27/avrtoolchain/bin/../lib/gcc/avr/4.5.1/avr51\libgcc.a(_epilogue.o)
                0x000118a8                __epilogue_restores__
 .text.libgcc   0x000118de        0xc d:/program files/atmel/avr studio 5.1/extensions/atmel/avrgcc/3.3.1.27/avrtoolchain/bin/../lib/gcc/avr/4.5.1/avr51\libgcc.a(_tablejump.o)
                0x000118de                __tablejump2__
                0x000118e2                __tablejump__
 .text.avr-libc
                0x000118ea       0xbc d:/program files/atmel/avr studio 5.1/extensions/atmel/avrgcc/3.3.1.27/avrtoolchain/bin/../lib/gcc/avr/4.5.1/../../../../avr/lib/avr51\libc.a(rand.o)
                0x00011980                rand_r
                0x00011986                rand
                0x00011990                srand
 .text.avr-libc
                0x000119a6       0x12 d:/program files/atmel/avr studio 5.1/extensions/atmel/avrgcc/3.3.1.27/avrtoolchain/bin/../lib/gcc/avr/4.5.1/../../../../avr/lib/avr51\libc.a(memcpy_P.o)
                0x000119a6                memcpy_P
 .text.avr-libc
                0x000119b8       0x1a d:/program files/atmel/avr studio 5.1/extensions/atmel/avrgcc/3.3.1.27/avrtoolchain/bin/../lib/gcc/avr/4.5.1/../../../../avr/lib/avr51\libc.a(memcmp.o)
                0x000119b8                memcmp
 .text.avr-libc
                0x000119d2       0x12 d:/program files/atmel/avr studio 5.1/extensions/atmel/avrgcc/3.3.1.27/avrtoolchain/bin/../lib/gcc/avr/4.5.1/../../../../avr/lib/avr51\libc.a(memcpy.o)
                0x000119d2                memcpy
 .text.avr-libc
                0x000119e4       0x24 d:/program files/atmel/avr studio 5.1/extensions/atmel/avrgcc/3.3.1.27/avrtoolchain/bin/../lib/gcc/avr/4.5.1/../../../../avr/lib/avr51\libc.a(memmove.o)
                0x000119e4                memmove
 .text.avr-libc
                0x00011a08        0xe d:/program files/atmel/avr studio 5.1/extensions/atmel/avrgcc/3.3.1.27/avrtoolchain/bin/../lib/gcc/avr/4.5.1/../../../../avr/lib/avr51\libc.a(memset.o)
                0x00011a08                memset
 .text.avr-libc
                0x00011a16        0xe d:/program files/atmel/avr studio 5.1/extensions/atmel/avrgcc/3.3.1.27/avrtoolchain/bin/../lib/gcc/avr/4.5.1/../../../../avr/lib/avr51\libc.a(strcpy.o)
                0x00011a16                strcpy
 .text.libgcc   0x00011a24       0x36 d:/program files/atmel/avr studio 5.1/extensions/atmel/avrgcc/3.3.1.27/avrtoolchain/bin/../lib/gcc/avr/4.5.1/avr51\libgcc.a(_divmodsi4.o)
                0x00011a24                __divmodsi4
                0x00011a5a                PROVIDE (__text_end, .)

.data           0x00800200      0x11a load address 0x00011a5a
                0x00800200                PROVIDE (__data_start, .)
 *(.data*)
 .data          0x00800200       0x9f EndDevice_Rcb_Atmega128rfa1_8Mhz_Gcc/Obj/blink.o
 .data          0x0080029f        0x9 ./../../../../BitCloud/lib/libHAL_RcbAtm128rfa1_Atmega128rfa1_8Mhz_Gcc.a(usart.o)
 .data          0x008002a8        0x6 ./../../../../BitCloud/lib/libBc_EndDevice_Atmega128rfa1_Atmega128rfa1_Gcc.a(nwk.o)
 .data          0x008002ae       0x16 ./../../../../BitCloud/lib/libBc_EndDevice_Atmega128rfa1_Atmega128rfa1_Gcc.a(taskManager.o)
 .data          0x008002c4       0x26 ./../../../../BitCloud/lib/libBc_EndDevice_Atmega128rfa1_Atmega128rfa1_Gcc.a(zdo.o)
 .data          0x008002ea       0x18 ./../../../../BitCloud/lib/libBc_EndDevice_Atmega128rfa1_Atmega128rfa1_Gcc.a(machwdTrxCtrl.o)
 .data          0x00800302        0x5 ./../../../../BitCloud/lib/libBc_EndDevice_Atmega128rfa1_Atmega128rfa1_Gcc.a(machwiSetGetHandler.o)
 .data          0x00800307        0x8 ./../../../../BitCloud/lib/libBc_EndDevice_Atmega128rfa1_Atmega128rfa1_Gcc.a(phyRfIrqDispatcher.o)
 .data          0x0080030f        0x2 ./../../../../BitCloud/lib/libBc_EndDevice_Atmega128rfa1_Atmega128rfa1_Gcc.a(machwdFrameRoutine.o)
 .data          0x00800311        0x4 ./../../../../BitCloud/lib/libBc_EndDevice_Atmega128rfa1_Atmega128rfa1_Gcc.a(machwiDataHandler.o)
 .data          0x00800315        0x4 d:/program files/atmel/avr studio 5.1/extensions/atmel/avrgcc/3.3.1.27/avrtoolchain/bin/../lib/gcc/avr/4.5.1/../../../../avr/lib/avr51\libc.a(rand.o)
 *(.rodata*)
 *(.gnu.linkonce.d*)
                0x0080031a                . = ALIGN (0x2)
 *fill*         0x00800319        0x1 00
                0x0080031a                PROVIDE (__data_end, .)

.bss            0x0080031a     0x11ee load address 0x00011b74
                0x0080031a                PROVIDE (__bss_start, .)
 *(.bss*)
 .bss           0x0080031a       0x9d EndDevice_Rcb_Atmega128rfa1_8Mhz_Gcc/Obj/blink.o
                0x0080031a                rxOnWhenIdle
                0x0080031b                human_s
                0x00800320                sensor_state
                0x00800322                restart
 .bss           0x008003b7        0x8 EndDevice_Rcb_Atmega128rfa1_8Mhz_Gcc/Obj/pdsWriteData.o
 .bss           0x008003bf        0x1 EndDevice_Rcb_Atmega128rfa1_8Mhz_Gcc/Obj/bspTaskManager.o
                0x008003bf                bspTaskFlags
 .bss           0x008003c0        0x6 EndDevice_Rcb_Atmega128rfa1_8Mhz_Gcc/Obj/buttons.o
 .bss           0x008003c6        0x2 ./../../../../BitCloud/lib/libHAL_RcbAtm128rfa1_Atmega128rfa1_8Mhz_Gcc.a(appTimer.o)
 .bss           0x008003c8        0x5 ./../../../../BitCloud/lib/libHAL_RcbAtm128rfa1_Atmega128rfa1_8Mhz_Gcc.a(halTaskManager.o)
                0x008003c8                halTaskFlags0
                0x008003c9                halTaskFlags1
                0x008003ca                halTaskFlags2
                0x008003cb                halTaskFlags3
                0x008003cc                halTaskFlags4
 .bss           0x008003cd        0x8 ./../../../../BitCloud/lib/libHAL_RcbAtm128rfa1_Atmega128rfa1_8Mhz_Gcc.a(usart.o)
                0x008003cd                halPointDescrip
                0x008003d1                halEnableDtrWakeUp
                0x008003d2                dtrWakeUpCallback
 .bss           0x008003d5        0x2 ./../../../../BitCloud/lib/libHAL_RcbAtm128rfa1_Atmega128rfa1_8Mhz_Gcc.a(i2cPacket.o)
 .bss           0x008003d7        0x1 ./../../../../BitCloud/lib/libHAL_RcbAtm128rfa1_Atmega128rfa1_8Mhz_Gcc.a(eeprom.o)
                0x008003d7                halEepromState
 .bss           0x008003d8        0x2 ./../../../../BitCloud/lib/libHAL_RcbAtm128rfa1_Atmega128rfa1_8Mhz_Gcc.a(adc.o)
                0x008003d8                adcDesc
 .bss           0x008003da        0x9 ./../../../../BitCloud/lib/libHAL_RcbAtm128rfa1_Atmega128rfa1_8Mhz_Gcc.a(halSleepTimerClock.o)
                0x008003da                halSleepTimerOvfw
 .bss           0x008003e3        0x2 ./../../../../BitCloud/lib/libHAL_RcbAtm128rfa1_Atmega128rfa1_8Mhz_Gcc.a(halSecurityModule.o)
 .bss           0x008003e5        0x6 ./../../../../BitCloud/lib/libHAL_RcbAtm128rfa1_Atmega128rfa1_8Mhz_Gcc.a(halAppClock.o)
                0x008003e5                halAppTimeOvfw
 .bss           0x008003eb       0x10 ./../../../../BitCloud/lib/libHAL_RcbAtm128rfa1_Atmega128rfa1_8Mhz_Gcc.a(halIrq.o)
                0x008003eb                IrqCallbackList
 .bss           0x008003fb        0x4 ./../../../../BitCloud/lib/libHAL_RcbAtm128rfa1_Atmega128rfa1_8Mhz_Gcc.a(halSleep.o)
 .bss           0x008003ff        0x2 ./../../../../BitCloud/lib/libHAL_RcbAtm128rfa1_Atmega128rfa1_8Mhz_Gcc.a(halSpi.o)
                0x008003ff                halRealSpiDescripPointer
 .bss           0x00800401       0x10 ./../../../../BitCloud/lib/libHAL_RcbAtm128rfa1_Atmega128rfa1_8Mhz_Gcc.a(sleep.o)
                0x00800401                halSleepControl
 .bss           0x00800411        0x1 ./../../../../BitCloud/lib/libHAL_RcbAtm128rfa1_Atmega128rfa1_8Mhz_Gcc.a(halClkCtrl.o)
 .bss           0x00800412       0x36 ./../../../../BitCloud/lib/libBc_EndDevice_Atmega128rfa1_Atmega128rfa1_Gcc.a(aps.o)
                0x00800412                apsState
 .bss           0x00800448        0x1 ./../../../../BitCloud/lib/libBc_EndDevice_Atmega128rfa1_Atmega128rfa1_Gcc.a(phyStateMachine.o)
                0x00800448                __wasRequest
 .bss           0x00800449        0x6 ./../../../../BitCloud/lib/libBc_EndDevice_Atmega128rfa1_Atmega128rfa1_Gcc.a(sysEvents.o)
 .bss           0x0080044f        0x2 ./../../../../BitCloud/lib/libBc_EndDevice_Atmega128rfa1_Atmega128rfa1_Gcc.a(taskManager.o)
                0x0080044f                SYS_taskFlag
 .bss           0x00800451        0x4 ./../../../../BitCloud/lib/libBc_EndDevice_Atmega128rfa1_Atmega128rfa1_Gcc.a(machwdManager.o)
                0x00800451                __wasPostTask
 .bss           0x00800455        0x1 ./../../../../BitCloud/lib/libBc_EndDevice_Atmega128rfa1_Atmega128rfa1_Gcc.a(machwdRegAccessHandler.o)
 .bss           0x00800456        0x1 ./../../../../BitCloud/lib/libBc_EndDevice_Atmega128rfa1_Atmega128rfa1_Gcc.a(machwdRndHandler.o)
 .bss           0x00800457        0x4 ./../../../../BitCloud/lib/libBc_EndDevice_Atmega128rfa1_Atmega128rfa1_Gcc.a(machwdSetHandler.o)
 .bss           0x0080045b        0x1 ./../../../../BitCloud/lib/libBc_EndDevice_Atmega128rfa1_Atmega128rfa1_Gcc.a(machwdTrxHandler.o)
 .bss           0x0080045c        0x2 ./../../../../BitCloud/lib/libBc_EndDevice_Atmega128rfa1_Atmega128rfa1_Gcc.a(machwdTxFrameHandler.o)
 .bss           0x0080045e        0x1 ./../../../../BitCloud/lib/libBc_EndDevice_Atmega128rfa1_Atmega128rfa1_Gcc.a(machwiScanHandler.o)
 .bss           0x0080045f        0x1 ./../../../../BitCloud/lib/libBc_EndDevice_Atmega128rfa1_Atmega128rfa1_Gcc.a(phyRfIrqDispatcher.o)
 .bss           0x00800460        0x1 ./../../../../BitCloud/lib/libBc_EndDevice_Atmega128rfa1_Atmega128rfa1_Gcc.a(phySet.o)
 .bss           0x00800461        0x1 ./../../../../BitCloud/lib/libBc_EndDevice_Atmega128rfa1_Atmega128rfa1_Gcc.a(machwdCalibHandler.o)
 .bss           0x00800462        0x1 ./../../../../BitCloud/lib/libBc_EndDevice_Atmega128rfa1_Atmega128rfa1_Gcc.a(machwdEdHandler.o)
 .bss           0x00800463        0x4 ./../../../../BitCloud/lib/libBc_EndDevice_Atmega128rfa1_Atmega128rfa1_Gcc.a(machwdHandlerCtrl.o)
                0x00800463                __handlers
                0x00800465                __macRequest
 .bss           0x00800467        0x8 ./../../../../BitCloud/lib/libHAL_RcbAtm128rfa1_Atmega128rfa1_8Mhz_Gcc.a(halUid.o)
 *(COMMON)
 COMMON         0x0080046f      0x208 EndDevice_Rcb_Atmega128rfa1_8Mhz_Gcc/Obj/blink.o
                0x0080046f                blink
                0x00800471                rxBuffer
                0x00800665                dataBuffers
 COMMON         0x00800677       0x2e EndDevice_Rcb_Atmega128rfa1_8Mhz_Gcc/Obj/pdsMem.o
                0x00800677                pdsMem
 COMMON         0x008006a5        0x6 EndDevice_Rcb_Atmega128rfa1_8Mhz_Gcc/Obj/fakeBSP.o
                0x008006a5                readBatteryDataCallback
                0x008006a7                readTemperatureDataCallback
                0x008006a9                readLightDataCallback
 COMMON         0x008006ab      0x839 EndDevice_Rcb_Atmega128rfa1_8Mhz_Gcc/Obj/csMem.o
                0x008006ab                stackBuffers
                0x00800dbf                csAIB
                0x00800dc1                csZIB
                0x00800df0                csPIB
                0x00800e22                csSIB
                0x00800e5e                csNIB
 COMMON         0x00800ee4        0x2 ./../../../../BitCloud/lib/libHAL_RcbAtm128rfa1_Atmega128rfa1_8Mhz_Gcc.a(halTaskManager.o)
                0x00800ee4                extHandler
 COMMON         0x00800ee6        0x8 ./../../../../BitCloud/lib/libHAL_RcbAtm128rfa1_Atmega128rfa1_8Mhz_Gcc.a(eeprom.o)
                0x00800ee6                halEepromParams
                0x00800eec                halEepromDone
 COMMON         0x00800eee        0xa ./../../../../BitCloud/lib/libHAL_RcbAtm128rfa1_Atmega128rfa1_8Mhz_Gcc.a(halSpi.o)
                0x00800eee                rxSlaveBuffer
 COMMON         0x00800ef8       0xbc ./../../../../BitCloud/lib/libBc_EndDevice_Atmega128rfa1_Atmega128rfa1_Gcc.a(aps.o)
                0x00800ef8                apsMem
 COMMON         0x00800fb4       0xfc ./../../../../BitCloud/lib/libBc_EndDevice_Atmega128rfa1_Atmega128rfa1_Gcc.a(nwk.o)
                0x00800fb4                nwkMem
 COMMON         0x008010b0      0x3bd ./../../../../BitCloud/lib/libBc_EndDevice_Atmega128rfa1_Atmega128rfa1_Gcc.a(zdo.o)
                0x008010b0                zdoMem
 COMMON         0x0080146d       0x73 ./../../../../BitCloud/lib/libBc_EndDevice_Atmega128rfa1_Atmega128rfa1_Gcc.a(macMem.o)
                0x0080146d                macMem
 COMMON         0x008014e0        0x1 ./../../../../BitCloud/lib/libBc_EndDevice_Atmega128rfa1_Atmega128rfa1_Gcc.a(machwdTrxCtrl.o)
                0x008014e0                __sourceHandler
 COMMON         0x008014e1        0x1 ./../../../../BitCloud/lib/libBc_EndDevice_Atmega128rfa1_Atmega128rfa1_Gcc.a(machwdEdHandler.o)
                0x008014e1                __energyLevel
 COMMON         0x008014e2       0x21 ./../../../../BitCloud/lib/libBc_EndDevice_Atmega128rfa1_Atmega128rfa1_Gcc.a(machwdFrameRoutine.o)
                0x008014e2                txBuffer
 COMMON         0x00801503        0x5 ./../../../../BitCloud/lib/libHAL_RcbAtm128rfa1_Atmega128rfa1_8Mhz_Gcc.a(halMacIsr.o)
                0x00801503                __rtimer
                0x00801508                PROVIDE (__bss_end, .)

.noinit         0x00801508        0x1 load address 0x00012d62
 *(.noinit*)
 .noinit        0x00801508        0x1 ./../../../../BitCloud/lib/WdtInitatmega128rfa1_Gcc.o
                0x00801508                halResetReason
                0x00801509                PROVIDE (__heap_start, .)
                0x00801509                __stack_start = .
                0x00011a5a                __data_load_start = LOADADDR (.data)
                0x00011b74                __data_load_end = (__data_load_start + SIZEOF (.data))

.eeprom         0x00810000     0x1000
 FILL mask 0xff
                0x00810000        0x1 BYTE 0xff
                0x00811000                . = ((. + 0x1000) - 0x1)
 *fill*         0x00810001      0xfff ff

/DISCARD/
 *(.init9)
 *(.fini*)
Address of section .data set to 0x800200
LOAD EndDevice_Rcb_Atmega128rfa1_8Mhz_Gcc/Obj/blink.o
LOAD EndDevice_Rcb_Atmega128rfa1_8Mhz_Gcc/Obj/pdsMem.o
LOAD EndDevice_Rcb_Atmega128rfa1_8Mhz_Gcc/Obj/pdsWriteData.o
LOAD EndDevice_Rcb_Atmega128rfa1_8Mhz_Gcc/Obj/pdsDataServer.o
LOAD EndDevice_Rcb_Atmega128rfa1_8Mhz_Gcc/Obj/pdsInit.o
LOAD EndDevice_Rcb_Atmega128rfa1_8Mhz_Gcc/Obj/pdsTimer.o
LOAD EndDevice_Rcb_Atmega128rfa1_8Mhz_Gcc/Obj/pdsEvents.o
LOAD EndDevice_Rcb_Atmega128rfa1_8Mhz_Gcc/Obj/pdsMemAccess.o
LOAD EndDevice_Rcb_Atmega128rfa1_8Mhz_Gcc/Obj/pdsCrcService.o
LOAD EndDevice_Rcb_Atmega128rfa1_8Mhz_Gcc/Obj/usbFifoVirtualUsart.o
LOAD EndDevice_Rcb_Atmega128rfa1_8Mhz_Gcc/Obj/usbFifoFT245RL.o
LOAD EndDevice_Rcb_Atmega128rfa1_8Mhz_Gcc/Obj/leds.o
LOAD EndDevice_Rcb_Atmega128rfa1_8Mhz_Gcc/Obj/bspTaskManager.o
LOAD EndDevice_Rcb_Atmega128rfa1_8Mhz_Gcc/Obj/buttons.o
LOAD EndDevice_Rcb_Atmega128rfa1_8Mhz_Gcc/Obj/fakeBSP.o
LOAD EndDevice_Rcb_Atmega128rfa1_8Mhz_Gcc/Obj/csPersistentMem.o
LOAD EndDevice_Rcb_Atmega128rfa1_8Mhz_Gcc/Obj/csMem.o
LOAD EndDevice_Rcb_Atmega128rfa1_8Mhz_Gcc/Obj/configServer.o
START GROUP
LOAD ./../../../../BitCloud/lib/libHAL_RcbAtm128rfa1_Atmega128rfa1_8Mhz_Gcc.a
LOAD ./../../../../BitCloud/lib/libBc_EndDevice_Atmega128rfa1_Atmega128rfa1_Gcc.a
LOAD ./../../../../BitCloud/lib/WdtInitatmega128rfa1_Gcc.o
END GROUP
LOAD d:/program files/atmel/avr studio 5.1/extensions/atmel/avrgcc/3.3.1.27/avrtoolchain/bin/../lib/gcc/avr/4.5.1/avr51\libgcc.a
LOAD d:/program files/atmel/avr studio 5.1/extensions/atmel/avrgcc/3.3.1.27/avrtoolchain/bin/../lib/gcc/avr/4.5.1/../../../../avr/lib/avr51\libc.a
LOAD d:/program files/atmel/avr studio 5.1/extensions/atmel/avrgcc/3.3.1.27/avrtoolchain/bin/../lib/gcc/avr/4.5.1/avr51\libgcc.a
OUTPUT(EndDevice_Rcb_Atmega128rfa1_8Mhz_Gcc/Exe/Blink.elf elf32-avr)
LOAD linker stubs

.stab           0x00000000      0xa44
 .stab          0x00000000      0x6cc d:/program files/atmel/avr studio 5.1/extensions/atmel/avrgcc/3.3.1.27/avrtoolchain/bin/../lib/gcc/avr/4.5.1/../../../../avr/lib/avr51/crtm128rfa1.o
 .stab          0x000006cc       0x84 d:/program files/atmel/avr studio 5.1/extensions/atmel/avrgcc/3.3.1.27/avrtoolchain/bin/../lib/gcc/avr/4.5.1/../../../../avr/lib/avr51\libc.a(memcpy_P.o)
                                 0x90 (size before relaxing)
 .stab          0x00000750       0xb4 d:/program files/atmel/avr studio 5.1/extensions/atmel/avrgcc/3.3.1.27/avrtoolchain/bin/../lib/gcc/avr/4.5.1/../../../../avr/lib/avr51\libc.a(memcmp.o)
                                 0xc0 (size before relaxing)
 .stab          0x00000804       0x84 d:/program files/atmel/avr studio 5.1/extensions/atmel/avrgcc/3.3.1.27/avrtoolchain/bin/../lib/gcc/avr/4.5.1/../../../../avr/lib/avr51\libc.a(memcpy.o)
                                 0x90 (size before relaxing)
 .stab          0x00000888       0xe4 d:/program files/atmel/avr studio 5.1/extensions/atmel/avrgcc/3.3.1.27/avrtoolchain/bin/../lib/gcc/avr/4.5.1/../../../../avr/lib/avr51\libc.a(memmove.o)
                                 0xf0 (size before relaxing)
 .stab          0x0000096c       0x6c d:/program files/atmel/avr studio 5.1/extensions/atmel/avrgcc/3.3.1.27/avrtoolchain/bin/../lib/gcc/avr/4.5.1/../../../../avr/lib/avr51\libc.a(memset.o)
                                 0x78 (size before relaxing)
 .stab          0x000009d8       0x6c d:/program files/atmel/avr studio 5.1/extensions/atmel/avrgcc/3.3.1.27/avrtoolchain/bin/../lib/gcc/avr/4.5.1/../../../../avr/lib/avr51\libc.a(strcpy.o)
                                 0x78 (size before relaxing)

.stabstr        0x00000000      0x323
 .stabstr       0x00000000      0x323 d:/program files/atmel/avr studio 5.1/extensions/atmel/avrgcc/3.3.1.27/avrtoolchain/bin/../lib/gcc/avr/4.5.1/../../../../avr/lib/avr51/crtm128rfa1.o

.debug_abbrev   0x00000000     0x216b
 .debug_abbrev  0x00000000      0x3b9 EndDevice_Rcb_Atmega128rfa1_8Mhz_Gcc/Obj/blink.o
 .debug_abbrev  0x000003b9       0xe0 EndDevice_Rcb_Atmega128rfa1_8Mhz_Gcc/Obj/pdsMem.o
 .debug_abbrev  0x00000499      0x222 EndDevice_Rcb_Atmega128rfa1_8Mhz_Gcc/Obj/pdsWriteData.o
 .debug_abbrev  0x000006bb      0x1dd EndDevice_Rcb_Atmega128rfa1_8Mhz_Gcc/Obj/pdsDataServer.o
 .debug_abbrev  0x00000898      0x179 EndDevice_Rcb_Atmega128rfa1_8Mhz_Gcc/Obj/pdsInit.o
 .debug_abbrev  0x00000a11      0x130 EndDevice_Rcb_Atmega128rfa1_8Mhz_Gcc/Obj/pdsTimer.o
 .debug_abbrev  0x00000b41      0x161 EndDevice_Rcb_Atmega128rfa1_8Mhz_Gcc/Obj/pdsEvents.o
 .debug_abbrev  0x00000ca2      0x1d1 EndDevice_Rcb_Atmega128rfa1_8Mhz_Gcc/Obj/pdsMemAccess.o
 .debug_abbrev  0x00000e73      0x14d EndDevice_Rcb_Atmega128rfa1_8Mhz_Gcc/Obj/pdsCrcService.o
 .debug_abbrev  0x00000fc0      0x19c EndDevice_Rcb_Atmega128rfa1_8Mhz_Gcc/Obj/usbFifoVirtualUsart.o
 .debug_abbrev  0x0000115c      0x283 EndDevice_Rcb_Atmega128rfa1_8Mhz_Gcc/Obj/usbFifoFT245RL.o
 .debug_abbrev  0x000013df       0xa9 EndDevice_Rcb_Atmega128rfa1_8Mhz_Gcc/Obj/leds.o
 .debug_abbrev  0x00001488      0x116 EndDevice_Rcb_Atmega128rfa1_8Mhz_Gcc/Obj/bspTaskManager.o
 .debug_abbrev  0x0000159e      0x1f2 EndDevice_Rcb_Atmega128rfa1_8Mhz_Gcc/Obj/buttons.o
 .debug_abbrev  0x00001790      0x1e7 EndDevice_Rcb_Atmega128rfa1_8Mhz_Gcc/Obj/fakeBSP.o
 .debug_abbrev  0x00001977      0x1e0 EndDevice_Rcb_Atmega128rfa1_8Mhz_Gcc/Obj/csPersistentMem.o
 .debug_abbrev  0x00001b57      0x1eb EndDevice_Rcb_Atmega128rfa1_8Mhz_Gcc/Obj/csMem.o
 .debug_abbrev  0x00001d42      0x26c EndDevice_Rcb_Atmega128rfa1_8Mhz_Gcc/Obj/configServer.o
 .debug_abbrev  0x00001fae       0xf0 d:/program files/atmel/avr studio 5.1/extensions/atmel/avrgcc/3.3.1.27/avrtoolchain/bin/../lib/gcc/avr/4.5.1/avr51\libgcc.a(_ashldi3.o)
 .debug_abbrev  0x0000209e       0xcd d:/program files/atmel/avr studio 5.1/extensions/atmel/avrgcc/3.3.1.27/avrtoolchain/bin/../lib/gcc/avr/4.5.1/../../../../avr/lib/avr51\libc.a(rand.o)

.debug_info     0x00000000    0x11526
 .debug_info    0x00000000     0x1e41 EndDevice_Rcb_Atmega128rfa1_8Mhz_Gcc/Obj/blink.o
 .debug_info    0x00001e41      0x4e1 EndDevice_Rcb_Atmega128rfa1_8Mhz_Gcc/Obj/pdsMem.o
 .debug_info    0x00002322      0x98c EndDevice_Rcb_Atmega128rfa1_8Mhz_Gcc/Obj/pdsWriteData.o
 .debug_info    0x00002cae      0xb9e EndDevice_Rcb_Atmega128rfa1_8Mhz_Gcc/Obj/pdsDataServer.o
 .debug_info    0x0000384c      0x6ee EndDevice_Rcb_Atmega128rfa1_8Mhz_Gcc/Obj/pdsInit.o
 .debug_info    0x00003f3a      0x57e EndDevice_Rcb_Atmega128rfa1_8Mhz_Gcc/Obj/pdsTimer.o
 .debug_info    0x000044b8      0x77a EndDevice_Rcb_Atmega128rfa1_8Mhz_Gcc/Obj/pdsEvents.o
 .debug_info    0x00004c32      0x88d EndDevice_Rcb_Atmega128rfa1_8Mhz_Gcc/Obj/pdsMemAccess.o
 .debug_info    0x000054bf      0x733 EndDevice_Rcb_Atmega128rfa1_8Mhz_Gcc/Obj/pdsCrcService.o
 .debug_info    0x00005bf2      0x850 EndDevice_Rcb_Atmega128rfa1_8Mhz_Gcc/Obj/usbFifoVirtualUsart.o
 .debug_info    0x00006442      0xa19 EndDevice_Rcb_Atmega128rfa1_8Mhz_Gcc/Obj/usbFifoFT245RL.o
 .debug_info    0x00006e5b      0x223 EndDevice_Rcb_Atmega128rfa1_8Mhz_Gcc/Obj/leds.o
 .debug_info    0x0000707e      0x237 EndDevice_Rcb_Atmega128rfa1_8Mhz_Gcc/Obj/bspTaskManager.o
 .debug_info    0x000072b5      0x546 EndDevice_Rcb_Atmega128rfa1_8Mhz_Gcc/Obj/buttons.o
 .debug_info    0x000077fb      0x5ee EndDevice_Rcb_Atmega128rfa1_8Mhz_Gcc/Obj/fakeBSP.o
 .debug_info    0x00007de9     0x31b7 EndDevice_Rcb_Atmega128rfa1_8Mhz_Gcc/Obj/csPersistentMem.o
 .debug_info    0x0000afa0     0x30d2 EndDevice_Rcb_Atmega128rfa1_8Mhz_Gcc/Obj/csMem.o
 .debug_info    0x0000e072     0x3210 EndDevice_Rcb_Atmega128rfa1_8Mhz_Gcc/Obj/configServer.o
 .debug_info    0x00011282      0x184 d:/program files/atmel/avr studio 5.1/extensions/atmel/avrgcc/3.3.1.27/avrtoolchain/bin/../lib/gcc/avr/4.5.1/avr51\libgcc.a(_ashldi3.o)
 .debug_info    0x00011406      0x120 d:/program files/atmel/avr studio 5.1/extensions/atmel/avrgcc/3.3.1.27/avrtoolchain/bin/../lib/gcc/avr/4.5.1/../../../../avr/lib/avr51\libc.a(rand.o)

.debug_line     0x00000000     0x5ef5
 .debug_line    0x00000000      0x95b EndDevice_Rcb_Atmega128rfa1_8Mhz_Gcc/Obj/blink.o
 .debug_line    0x0000095b      0x283 EndDevice_Rcb_Atmega128rfa1_8Mhz_Gcc/Obj/pdsMem.o
 .debug_line    0x00000bde      0x676 EndDevice_Rcb_Atmega128rfa1_8Mhz_Gcc/Obj/pdsWriteData.o
 .debug_line    0x00001254      0x710 EndDevice_Rcb_Atmega128rfa1_8Mhz_Gcc/Obj/pdsDataServer.o
 .debug_line    0x00001964      0x3d8 EndDevice_Rcb_Atmega128rfa1_8Mhz_Gcc/Obj/pdsInit.o
 .debug_line    0x00001d3c      0x38f EndDevice_Rcb_Atmega128rfa1_8Mhz_Gcc/Obj/pdsTimer.o
 .debug_line    0x000020cb      0x3c5 EndDevice_Rcb_Atmega128rfa1_8Mhz_Gcc/Obj/pdsEvents.o
 .debug_line    0x00002490      0x577 EndDevice_Rcb_Atmega128rfa1_8Mhz_Gcc/Obj/pdsMemAccess.o
 .debug_line    0x00002a07      0x3e8 EndDevice_Rcb_Atmega128rfa1_8Mhz_Gcc/Obj/pdsCrcService.o
 .debug_line    0x00002def      0x569 EndDevice_Rcb_Atmega128rfa1_8Mhz_Gcc/Obj/usbFifoVirtualUsart.o
 .debug_line    0x00003358      0x612 EndDevice_Rcb_Atmega128rfa1_8Mhz_Gcc/Obj/usbFifoFT245RL.o
 .debug_line    0x0000396a      0x2bd EndDevice_Rcb_Atmega128rfa1_8Mhz_Gcc/Obj/leds.o
 .debug_line    0x00003c27      0x296 EndDevice_Rcb_Atmega128rfa1_8Mhz_Gcc/Obj/bspTaskManager.o
 .debug_line    0x00003ebd      0x48a EndDevice_Rcb_Atmega128rfa1_8Mhz_Gcc/Obj/buttons.o
 .debug_line    0x00004347      0x4c9 EndDevice_Rcb_Atmega128rfa1_8Mhz_Gcc/Obj/fakeBSP.o
 .debug_line    0x00004810      0x636 EndDevice_Rcb_Atmega128rfa1_8Mhz_Gcc/Obj/csPersistentMem.o
 .debug_line    0x00004e46      0x61c EndDevice_Rcb_Atmega128rfa1_8Mhz_Gcc/Obj/csMem.o
 .debug_line    0x00005462      0x82b EndDevice_Rcb_Atmega128rfa1_8Mhz_Gcc/Obj/configServer.o
 .debug_line    0x00005c8d      0x10c d:/program files/atmel/avr studio 5.1/extensions/atmel/avrgcc/3.3.1.27/avrtoolchain/bin/../lib/gcc/avr/4.5.1/avr51\libgcc.a(_ashldi3.o)
 .debug_line    0x00005d99      0x15c d:/program files/atmel/avr studio 5.1/extensions/atmel/avrgcc/3.3.1.27/avrtoolchain/bin/../lib/gcc/avr/4.5.1/../../../../avr/lib/avr51\libc.a(rand.o)

.debug_frame    0x00000000      0x7b0
 .debug_frame   0x00000000       0xf0 EndDevice_Rcb_Atmega128rfa1_8Mhz_Gcc/Obj/blink.o
 .debug_frame   0x000000f0       0x90 EndDevice_Rcb_Atmega128rfa1_8Mhz_Gcc/Obj/pdsWriteData.o
 .debug_frame   0x00000180       0xf0 EndDevice_Rcb_Atmega128rfa1_8Mhz_Gcc/Obj/pdsDataServer.o
 .debug_frame   0x00000270       0x20 EndDevice_Rcb_Atmega128rfa1_8Mhz_Gcc/Obj/pdsInit.o
 .debug_frame   0x00000290       0x60 EndDevice_Rcb_Atmega128rfa1_8Mhz_Gcc/Obj/pdsTimer.o
 .debug_frame   0x000002f0       0x30 EndDevice_Rcb_Atmega128rfa1_8Mhz_Gcc/Obj/pdsEvents.o
 .debug_frame   0x00000320       0x70 EndDevice_Rcb_Atmega128rfa1_8Mhz_Gcc/Obj/pdsMemAccess.o
 .debug_frame   0x00000390       0x40 EndDevice_Rcb_Atmega128rfa1_8Mhz_Gcc/Obj/pdsCrcService.o
 .debug_frame   0x000003d0       0x60 EndDevice_Rcb_Atmega128rfa1_8Mhz_Gcc/Obj/usbFifoVirtualUsart.o
 .debug_frame   0x00000430       0x90 EndDevice_Rcb_Atmega128rfa1_8Mhz_Gcc/Obj/usbFifoFT245RL.o
 .debug_frame   0x000004c0       0x60 EndDevice_Rcb_Atmega128rfa1_8Mhz_Gcc/Obj/leds.o
 .debug_frame   0x00000520       0x20 EndDevice_Rcb_Atmega128rfa1_8Mhz_Gcc/Obj/bspTaskManager.o
 .debug_frame   0x00000540       0x60 EndDevice_Rcb_Atmega128rfa1_8Mhz_Gcc/Obj/buttons.o
 .debug_frame   0x000005a0      0x110 EndDevice_Rcb_Atmega128rfa1_8Mhz_Gcc/Obj/fakeBSP.o
 .debug_frame   0x000006b0       0x20 EndDevice_Rcb_Atmega128rfa1_8Mhz_Gcc/Obj/csMem.o
 .debug_frame   0x000006d0       0x70 EndDevice_Rcb_Atmega128rfa1_8Mhz_Gcc/Obj/configServer.o
 .debug_frame   0x00000740       0x20 d:/program files/atmel/avr studio 5.1/extensions/atmel/avrgcc/3.3.1.27/avrtoolchain/bin/../lib/gcc/avr/4.5.1/avr51\libgcc.a(_ashldi3.o)
 .debug_frame   0x00000760       0x50 d:/program files/atmel/avr studio 5.1/extensions/atmel/avrgcc/3.3.1.27/avrtoolchain/bin/../lib/gcc/avr/4.5.1/../../../../avr/lib/avr51\libc.a(rand.o)

.debug_loc      0x00000000     0x18ba
 .debug_loc     0x00000000      0x218 EndDevice_Rcb_Atmega128rfa1_8Mhz_Gcc/Obj/blink.o
 .debug_loc     0x00000218      0x206 EndDevice_Rcb_Atmega128rfa1_8Mhz_Gcc/Obj/pdsWriteData.o
 .debug_loc     0x0000041e      0x299 EndDevice_Rcb_Atmega128rfa1_8Mhz_Gcc/Obj/pdsDataServer.o
 .debug_loc     0x000006b7      0x112 EndDevice_Rcb_Atmega128rfa1_8Mhz_Gcc/Obj/pdsInit.o
 .debug_loc     0x000007c9       0x69 EndDevice_Rcb_Atmega128rfa1_8Mhz_Gcc/Obj/pdsTimer.o
 .debug_loc     0x00000832       0x76 EndDevice_Rcb_Atmega128rfa1_8Mhz_Gcc/Obj/pdsEvents.o
 .debug_loc     0x000008a8      0x36d EndDevice_Rcb_Atmega128rfa1_8Mhz_Gcc/Obj/pdsMemAccess.o
 .debug_loc     0x00000c15      0x161 EndDevice_Rcb_Atmega128rfa1_8Mhz_Gcc/Obj/pdsCrcService.o
 .debug_loc     0x00000d76      0x469 EndDevice_Rcb_Atmega128rfa1_8Mhz_Gcc/Obj/usbFifoVirtualUsart.o
 .debug_loc     0x000011df      0x21f EndDevice_Rcb_Atmega128rfa1_8Mhz_Gcc/Obj/usbFifoFT245RL.o
 .debug_loc     0x000013fe       0x70 EndDevice_Rcb_Atmega128rfa1_8Mhz_Gcc/Obj/leds.o
 .debug_loc     0x0000146e       0x3c EndDevice_Rcb_Atmega128rfa1_8Mhz_Gcc/Obj/bspTaskManager.o
 .debug_loc     0x000014aa       0xec EndDevice_Rcb_Atmega128rfa1_8Mhz_Gcc/Obj/buttons.o
 .debug_loc     0x00001596       0x8d EndDevice_Rcb_Atmega128rfa1_8Mhz_Gcc/Obj/fakeBSP.o
 .debug_loc     0x00001623      0x116 EndDevice_Rcb_Atmega128rfa1_8Mhz_Gcc/Obj/configServer.o
 .debug_loc     0x00001739       0x6d d:/program files/atmel/avr studio 5.1/extensions/atmel/avrgcc/3.3.1.27/avrtoolchain/bin/../lib/gcc/avr/4.5.1/avr51\libgcc.a(_ashldi3.o)
 .debug_loc     0x000017a6      0x114 d:/program files/atmel/avr studio 5.1/extensions/atmel/avrgcc/3.3.1.27/avrtoolchain/bin/../lib/gcc/avr/4.5.1/../../../../avr/lib/avr51\libc.a(rand.o)

.debug_pubnames
                0x00000000      0xbeb
 .debug_pubnames
                0x00000000       0xfc EndDevice_Rcb_Atmega128rfa1_8Mhz_Gcc/Obj/blink.o
 .debug_pubnames
                0x000000fc       0x1d EndDevice_Rcb_Atmega128rfa1_8Mhz_Gcc/Obj/pdsMem.o
 .debug_pubnames
                0x00000119       0xab EndDevice_Rcb_Atmega128rfa1_8Mhz_Gcc/Obj/pdsWriteData.o
 .debug_pubnames
                0x000001c4       0xfb EndDevice_Rcb_Atmega128rfa1_8Mhz_Gcc/Obj/pdsDataServer.o
 .debug_pubnames
                0x000002bf       0x1f EndDevice_Rcb_Atmega128rfa1_8Mhz_Gcc/Obj/pdsInit.o
 .debug_pubnames
                0x000002de       0x51 EndDevice_Rcb_Atmega128rfa1_8Mhz_Gcc/Obj/pdsTimer.o
 .debug_pubnames
                0x0000032f       0x28 EndDevice_Rcb_Atmega128rfa1_8Mhz_Gcc/Obj/pdsEvents.o
 .debug_pubnames
                0x00000357       0xa9 EndDevice_Rcb_Atmega128rfa1_8Mhz_Gcc/Obj/pdsMemAccess.o
 .debug_pubnames
                0x00000400       0x52 EndDevice_Rcb_Atmega128rfa1_8Mhz_Gcc/Obj/pdsCrcService.o
 .debug_pubnames
                0x00000452       0x9a EndDevice_Rcb_Atmega128rfa1_8Mhz_Gcc/Obj/usbFifoVirtualUsart.o
 .debug_pubnames
                0x000004ec       0x47 EndDevice_Rcb_Atmega128rfa1_8Mhz_Gcc/Obj/usbFifoFT245RL.o
 .debug_pubnames
                0x00000533       0x64 EndDevice_Rcb_Atmega128rfa1_8Mhz_Gcc/Obj/leds.o
 .debug_pubnames
                0x00000597       0x37 EndDevice_Rcb_Atmega128rfa1_8Mhz_Gcc/Obj/bspTaskManager.o
 .debug_pubnames
                0x000005ce       0x86 EndDevice_Rcb_Atmega128rfa1_8Mhz_Gcc/Obj/buttons.o
 .debug_pubnames
                0x00000654      0x203 EndDevice_Rcb_Atmega128rfa1_8Mhz_Gcc/Obj/fakeBSP.o
 .debug_pubnames
                0x00000857      0x209 EndDevice_Rcb_Atmega128rfa1_8Mhz_Gcc/Obj/csPersistentMem.o
 .debug_pubnames
                0x00000a60       0xca EndDevice_Rcb_Atmega128rfa1_8Mhz_Gcc/Obj/csMem.o
 .debug_pubnames
                0x00000b2a       0x71 EndDevice_Rcb_Atmega128rfa1_8Mhz_Gcc/Obj/configServer.o
 .debug_pubnames
                0x00000b9b       0x20 d:/program files/atmel/avr studio 5.1/extensions/atmel/avrgcc/3.3.1.27/avrtoolchain/bin/../lib/gcc/avr/4.5.1/avr51\libgcc.a(_ashldi3.o)
 .debug_pubnames
                0x00000bbb       0x30 d:/program files/atmel/avr studio 5.1/extensions/atmel/avrgcc/3.3.1.27/avrtoolchain/bin/../lib/gcc/avr/4.5.1/../../../../avr/lib/avr51\libc.a(rand.o)

.debug_pubtypes
                0x00000000     0x3f27
 .debug_pubtypes
                0x00000000      0x449 EndDevice_Rcb_Atmega128rfa1_8Mhz_Gcc/Obj/blink.o
 .debug_pubtypes
                0x00000449      0x16b EndDevice_Rcb_Atmega128rfa1_8Mhz_Gcc/Obj/pdsMem.o
 .debug_pubtypes
                0x000005b4      0x210 EndDevice_Rcb_Atmega128rfa1_8Mhz_Gcc/Obj/pdsWriteData.o
 .debug_pubtypes
                0x000007c4      0x255 EndDevice_Rcb_Atmega128rfa1_8Mhz_Gcc/Obj/pdsDataServer.o
 .debug_pubtypes
                0x00000a19      0x1b5 EndDevice_Rcb_Atmega128rfa1_8Mhz_Gcc/Obj/pdsInit.o
 .debug_pubtypes
                0x00000bce      0x16b EndDevice_Rcb_Atmega128rfa1_8Mhz_Gcc/Obj/pdsTimer.o
 .debug_pubtypes
                0x00000d39      0x230 EndDevice_Rcb_Atmega128rfa1_8Mhz_Gcc/Obj/pdsEvents.o
 .debug_pubtypes
                0x00000f69      0x1ec EndDevice_Rcb_Atmega128rfa1_8Mhz_Gcc/Obj/pdsMemAccess.o
 .debug_pubtypes
                0x00001155      0x210 EndDevice_Rcb_Atmega128rfa1_8Mhz_Gcc/Obj/pdsCrcService.o
 .debug_pubtypes
                0x00001365       0xfc EndDevice_Rcb_Atmega128rfa1_8Mhz_Gcc/Obj/usbFifoVirtualUsart.o
 .debug_pubtypes
                0x00001461      0x14c EndDevice_Rcb_Atmega128rfa1_8Mhz_Gcc/Obj/usbFifoFT245RL.o
 .debug_pubtypes
                0x000015ad       0x2b EndDevice_Rcb_Atmega128rfa1_8Mhz_Gcc/Obj/leds.o
 .debug_pubtypes
                0x000015d8       0x49 EndDevice_Rcb_Atmega128rfa1_8Mhz_Gcc/Obj/bspTaskManager.o
 .debug_pubtypes
                0x00001621       0x89 EndDevice_Rcb_Atmega128rfa1_8Mhz_Gcc/Obj/buttons.o
 .debug_pubtypes
                0x000016aa       0x7a EndDevice_Rcb_Atmega128rfa1_8Mhz_Gcc/Obj/fakeBSP.o
 .debug_pubtypes
                0x00001724      0xd28 EndDevice_Rcb_Atmega128rfa1_8Mhz_Gcc/Obj/csPersistentMem.o
 .debug_pubtypes
                0x0000244c      0xd55 EndDevice_Rcb_Atmega128rfa1_8Mhz_Gcc/Obj/csMem.o
 .debug_pubtypes
                0x000031a1      0xd12 EndDevice_Rcb_Atmega128rfa1_8Mhz_Gcc/Obj/configServer.o
 .debug_pubtypes
                0x00003eb3       0x62 d:/program files/atmel/avr studio 5.1/extensions/atmel/avrgcc/3.3.1.27/avrtoolchain/bin/../lib/gcc/avr/4.5.1/avr51\libgcc.a(_ashldi3.o)
 .debug_pubtypes
                0x00003f15       0x12 d:/program files/atmel/avr studio 5.1/extensions/atmel/avrgcc/3.3.1.27/avrtoolchain/bin/../lib/gcc/avr/4.5.1/../../../../avr/lib/avr51\libc.a(rand.o)

.debug_aranges  0x00000000      0x4f8
 .debug_aranges
                0x00000000       0x88 EndDevice_Rcb_Atmega128rfa1_8Mhz_Gcc/Obj/blink.o
 .debug_aranges
                0x00000088       0x58 EndDevice_Rcb_Atmega128rfa1_8Mhz_Gcc/Obj/pdsWriteData.o
 .debug_aranges
                0x000000e0       0x88 EndDevice_Rcb_Atmega128rfa1_8Mhz_Gcc/Obj/pdsDataServer.o
 .debug_aranges
                0x00000168       0x20 EndDevice_Rcb_Atmega128rfa1_8Mhz_Gcc/Obj/pdsInit.o
 .debug_aranges
                0x00000188       0x40 EndDevice_Rcb_Atmega128rfa1_8Mhz_Gcc/Obj/pdsTimer.o
 .debug_aranges
                0x000001c8       0x28 EndDevice_Rcb_Atmega128rfa1_8Mhz_Gcc/Obj/pdsEvents.o
 .debug_aranges
                0x000001f0       0x48 EndDevice_Rcb_Atmega128rfa1_8Mhz_Gcc/Obj/pdsMemAccess.o
 .debug_aranges
                0x00000238       0x30 EndDevice_Rcb_Atmega128rfa1_8Mhz_Gcc/Obj/pdsCrcService.o
 .debug_aranges
                0x00000268       0x40 EndDevice_Rcb_Atmega128rfa1_8Mhz_Gcc/Obj/usbFifoVirtualUsart.o
 .debug_aranges
                0x000002a8       0x58 EndDevice_Rcb_Atmega128rfa1_8Mhz_Gcc/Obj/usbFifoFT245RL.o
 .debug_aranges
                0x00000300       0x40 EndDevice_Rcb_Atmega128rfa1_8Mhz_Gcc/Obj/leds.o
 .debug_aranges
                0x00000340       0x20 EndDevice_Rcb_Atmega128rfa1_8Mhz_Gcc/Obj/bspTaskManager.o
 .debug_aranges
                0x00000360       0x40 EndDevice_Rcb_Atmega128rfa1_8Mhz_Gcc/Obj/buttons.o
 .debug_aranges
                0x000003a0       0x98 EndDevice_Rcb_Atmega128rfa1_8Mhz_Gcc/Obj/fakeBSP.o
 .debug_aranges
                0x00000438       0x20 EndDevice_Rcb_Atmega128rfa1_8Mhz_Gcc/Obj/csMem.o
 .debug_aranges
                0x00000458       0x48 EndDevice_Rcb_Atmega128rfa1_8Mhz_Gcc/Obj/configServer.o
 .debug_aranges
                0x000004a0       0x20 d:/program files/atmel/avr studio 5.1/extensions/atmel/avrgcc/3.3.1.27/avrtoolchain/bin/../lib/gcc/avr/4.5.1/avr51\libgcc.a(_ashldi3.o)
 .debug_aranges
                0x000004c0       0x38 d:/program files/atmel/avr studio 5.1/extensions/atmel/avrgcc/3.3.1.27/avrtoolchain/bin/../lib/gcc/avr/4.5.1/../../../../avr/lib/avr51\libc.a(rand.o)

.debug_ranges   0x00000000      0x440
 .debug_ranges  0x00000000       0x78 EndDevice_Rcb_Atmega128rfa1_8Mhz_Gcc/Obj/blink.o
 .debug_ranges  0x00000078       0x78 EndDevice_Rcb_Atmega128rfa1_8Mhz_Gcc/Obj/pdsWriteData.o
 .debug_ranges  0x000000f0       0x90 EndDevice_Rcb_Atmega128rfa1_8Mhz_Gcc/Obj/pdsDataServer.o
 .debug_ranges  0x00000180       0x10 EndDevice_Rcb_Atmega128rfa1_8Mhz_Gcc/Obj/pdsInit.o
 .debug_ranges  0x00000190       0x30 EndDevice_Rcb_Atmega128rfa1_8Mhz_Gcc/Obj/pdsTimer.o
 .debug_ranges  0x000001c0       0x18 EndDevice_Rcb_Atmega128rfa1_8Mhz_Gcc/Obj/pdsEvents.o
 .debug_ranges  0x000001d8       0x68 EndDevice_Rcb_Atmega128rfa1_8Mhz_Gcc/Obj/pdsMemAccess.o
 .debug_ranges  0x00000240       0x20 EndDevice_Rcb_Atmega128rfa1_8Mhz_Gcc/Obj/pdsCrcService.o
 .debug_ranges  0x00000260       0x30 EndDevice_Rcb_Atmega128rfa1_8Mhz_Gcc/Obj/usbFifoVirtualUsart.o
 .debug_ranges  0x00000290       0x48 EndDevice_Rcb_Atmega128rfa1_8Mhz_Gcc/Obj/usbFifoFT245RL.o
 .debug_ranges  0x000002d8       0x30 EndDevice_Rcb_Atmega128rfa1_8Mhz_Gcc/Obj/leds.o
 .debug_ranges  0x00000308       0x10 EndDevice_Rcb_Atmega128rfa1_8Mhz_Gcc/Obj/bspTaskManager.o
 .debug_ranges  0x00000318       0x30 EndDevice_Rcb_Atmega128rfa1_8Mhz_Gcc/Obj/buttons.o
 .debug_ranges  0x00000348       0x88 EndDevice_Rcb_Atmega128rfa1_8Mhz_Gcc/Obj/fakeBSP.o
 .debug_ranges  0x000003d0       0x10 EndDevice_Rcb_Atmega128rfa1_8Mhz_Gcc/Obj/csMem.o
 .debug_ranges  0x000003e0       0x38 EndDevice_Rcb_Atmega128rfa1_8Mhz_Gcc/Obj/configServer.o
 .debug_ranges  0x00000418       0x28 d:/program files/atmel/avr studio 5.1/extensions/atmel/avrgcc/3.3.1.27/avrtoolchain/bin/../lib/gcc/avr/4.5.1/../../../../avr/lib/avr51\libc.a(rand.o)

.debug_str      0x00000000     0x6bd2
 .debug_str     0x00000000     0x266e EndDevice_Rcb_Atmega128rfa1_8Mhz_Gcc/Obj/blink.o
                               0x26e7 (size before relaxing)
 .debug_str     0x0000266e      0x6d3 EndDevice_Rcb_Atmega128rfa1_8Mhz_Gcc/Obj/pdsMem.o
                                0x8f7 (size before relaxing)
 .debug_str     0x00002d41      0x467 EndDevice_Rcb_Atmega128rfa1_8Mhz_Gcc/Obj/pdsWriteData.o
                                0xd51 (size before relaxing)
 .debug_str     0x000031a8      0x188 EndDevice_Rcb_Atmega128rfa1_8Mhz_Gcc/Obj/pdsDataServer.o
                                0xd0d (size before relaxing)
 .debug_str     0x00003330      0x106 EndDevice_Rcb_Atmega128rfa1_8Mhz_Gcc/Obj/pdsInit.o
                                0xa1f (size before relaxing)
 .debug_str     0x00003436       0x80 EndDevice_Rcb_Atmega128rfa1_8Mhz_Gcc/Obj/pdsTimer.o
                                0x940 (size before relaxing)
 .debug_str     0x000034b6      0x132 EndDevice_Rcb_Atmega128rfa1_8Mhz_Gcc/Obj/pdsEvents.o
                                0xc5e (size before relaxing)
 .debug_str     0x000035e8      0x13d EndDevice_Rcb_Atmega128rfa1_8Mhz_Gcc/Obj/pdsMemAccess.o
                                0xaea (size before relaxing)
 .debug_str     0x00003725       0x8e EndDevice_Rcb_Atmega128rfa1_8Mhz_Gcc/Obj/pdsCrcService.o
                                0xa79 (size before relaxing)
 .debug_str     0x000037b3      0x125 EndDevice_Rcb_Atmega128rfa1_8Mhz_Gcc/Obj/usbFifoVirtualUsart.o
                                0x6ac (size before relaxing)
 .debug_str     0x000038d8      0x2cd EndDevice_Rcb_Atmega128rfa1_8Mhz_Gcc/Obj/usbFifoFT245RL.o
                                0x95a (size before relaxing)
 .debug_str     0x00003ba5      0x10c EndDevice_Rcb_Atmega128rfa1_8Mhz_Gcc/Obj/leds.o
                                0x219 (size before relaxing)
 .debug_str     0x00003cb1       0x8e EndDevice_Rcb_Atmega128rfa1_8Mhz_Gcc/Obj/bspTaskManager.o
                                0x29b (size before relaxing)
 .debug_str     0x00003d3f      0x182 EndDevice_Rcb_Atmega128rfa1_8Mhz_Gcc/Obj/buttons.o
                                0x462 (size before relaxing)
 .debug_str     0x00003ec1      0x245 EndDevice_Rcb_Atmega128rfa1_8Mhz_Gcc/Obj/fakeBSP.o
                                0x4b3 (size before relaxing)
 .debug_str     0x00004106     0x24f8 EndDevice_Rcb_Atmega128rfa1_8Mhz_Gcc/Obj/csPersistentMem.o
                               0x41d5 (size before relaxing)
 .debug_str     0x000065fe      0x334 EndDevice_Rcb_Atmega128rfa1_8Mhz_Gcc/Obj/csMem.o
                               0x3d59 (size before relaxing)
 .debug_str     0x00006932      0x11f EndDevice_Rcb_Atmega128rfa1_8Mhz_Gcc/Obj/configServer.o
                               0x43cc (size before relaxing)
 .debug_str     0x00006a51      0x10c d:/program files/atmel/avr studio 5.1/extensions/atmel/avrgcc/3.3.1.27/avrtoolchain/bin/../lib/gcc/avr/4.5.1/avr51\libgcc.a(_ashldi3.o)
                                0x191 (size before relaxing)
 .debug_str     0x00006b5d       0x75 d:/program files/atmel/avr studio 5.1/extensions/atmel/avrgcc/3.3.1.27/avrtoolchain/bin/../lib/gcc/avr/4.5.1/../../../../avr/lib/avr51\libc.a(rand.o)
                                 0xb3 (size before relaxing)
