Archive member included because of file (symbol)

./../../../../BitCloud/lib/libHAL_RcbAtm128rfa1_Atmega128rfa1_8Mhz_Gcc.a(appTimer.o)
                              Coordinator_Rcb_Atmega128rfa1_8Mhz_Gcc/Obj/blink.o (HAL_StartAppTimer)
./../../../../BitCloud/lib/libHAL_RcbAtm128rfa1_Atmega128rfa1_8Mhz_Gcc.a(halTaskManager.o)
                              Coordinator_Rcb_Atmega128rfa1_8Mhz_Gcc/Obj/usbFifoFT245RL.o (halTaskFlags4)
./../../../../BitCloud/lib/libHAL_RcbAtm128rfa1_Atmega128rfa1_8Mhz_Gcc.a(usart.o)
                              ./../../../../BitCloud/lib/libHAL_RcbAtm128rfa1_Atmega128rfa1_8Mhz_Gcc.a(halTaskManager.o) (halSigUsartHandler)
./../../../../BitCloud/lib/libHAL_RcbAtm128rfa1_Atmega128rfa1_8Mhz_Gcc.a(irq.o)
                              Coordinator_Rcb_Atmega128rfa1_8Mhz_Gcc/Obj/usbFifoFT245RL.o (HAL_RegisterIrq)
./../../../../BitCloud/lib/libHAL_RcbAtm128rfa1_Atmega128rfa1_8Mhz_Gcc.a(i2cPacket.o)
                              ./../../../../BitCloud/lib/libHAL_RcbAtm128rfa1_Atmega128rfa1_8Mhz_Gcc.a(halTaskManager.o) (halSig2WireSerialHandler)
./../../../../BitCloud/lib/libHAL_RcbAtm128rfa1_Atmega128rfa1_8Mhz_Gcc.a(eeprom.o)
                              Coordinator_Rcb_Atmega128rfa1_8Mhz_Gcc/Obj/pdsWriteData.o (HAL_ReadEeprom)
./../../../../BitCloud/lib/libHAL_RcbAtm128rfa1_Atmega128rfa1_8Mhz_Gcc.a(timer.o)
                              ./../../../../BitCloud/lib/libHAL_RcbAtm128rfa1_Atmega128rfa1_8Mhz_Gcc.a(appTimer.o) (halAddTimer)
./../../../../BitCloud/lib/libHAL_RcbAtm128rfa1_Atmega128rfa1_8Mhz_Gcc.a(adc.o)
                              ./../../../../BitCloud/lib/libHAL_RcbAtm128rfa1_Atmega128rfa1_8Mhz_Gcc.a(halTaskManager.o) (halSigAdcHandler)
./../../../../BitCloud/lib/libHAL_RcbAtm128rfa1_Atmega128rfa1_8Mhz_Gcc.a(spi.o)
                              ./../../../../BitCloud/lib/libHAL_RcbAtm128rfa1_Atmega128rfa1_8Mhz_Gcc.a(halTaskManager.o) (halSpiRxByteComplete)
./../../../../BitCloud/lib/libHAL_RcbAtm128rfa1_Atmega128rfa1_8Mhz_Gcc.a(halSleepTimerClock.o)
                              ./../../../../BitCloud/lib/libHAL_RcbAtm128rfa1_Atmega128rfa1_8Mhz_Gcc.a(appTimer.o) (halGetTimeOfSleepTimer)
./../../../../BitCloud/lib/libHAL_RcbAtm128rfa1_Atmega128rfa1_8Mhz_Gcc.a(halSecurityModule.o)
                              ./../../../../BitCloud/lib/libHAL_RcbAtm128rfa1_Atmega128rfa1_8Mhz_Gcc.a(halTaskManager.o) (halSmRequestHandler)
./../../../../BitCloud/lib/libHAL_RcbAtm128rfa1_Atmega128rfa1_8Mhz_Gcc.a(halAppClock.o)
                              ./../../../../BitCloud/lib/libHAL_RcbAtm128rfa1_Atmega128rfa1_8Mhz_Gcc.a(appTimer.o) (halGetTimeOfAppTimer)
./../../../../BitCloud/lib/libHAL_RcbAtm128rfa1_Atmega128rfa1_8Mhz_Gcc.a(halUsart.o)
                              ./../../../../BitCloud/lib/libHAL_RcbAtm128rfa1_Atmega128rfa1_8Mhz_Gcc.a(usart.o) (halSetUsartConfig)
./../../../../BitCloud/lib/libHAL_RcbAtm128rfa1_Atmega128rfa1_8Mhz_Gcc.a(halIrq.o)
                              ./../../../../BitCloud/lib/libHAL_RcbAtm128rfa1_Atmega128rfa1_8Mhz_Gcc.a(irq.o) (halSetIrqConfig)
./../../../../BitCloud/lib/libHAL_RcbAtm128rfa1_Atmega128rfa1_8Mhz_Gcc.a(halTwi.o)
                              ./../../../../BitCloud/lib/libHAL_RcbAtm128rfa1_Atmega128rfa1_8Mhz_Gcc.a(i2cPacket.o) (halInitI2c)
./../../../../BitCloud/lib/libHAL_RcbAtm128rfa1_Atmega128rfa1_8Mhz_Gcc.a(halEeprom.o)
                              ./../../../../BitCloud/lib/libHAL_RcbAtm128rfa1_Atmega128rfa1_8Mhz_Gcc.a(eeprom.o) (halEepromWrite)
./../../../../BitCloud/lib/libHAL_RcbAtm128rfa1_Atmega128rfa1_8Mhz_Gcc.a(halSleep.o)
                              ./../../../../BitCloud/lib/libHAL_RcbAtm128rfa1_Atmega128rfa1_8Mhz_Gcc.a(halSleepTimerClock.o) (halPowerOn)
./../../../../BitCloud/lib/libHAL_RcbAtm128rfa1_Atmega128rfa1_8Mhz_Gcc.a(halAdc.o)
                              ./../../../../BitCloud/lib/libHAL_RcbAtm128rfa1_Atmega128rfa1_8Mhz_Gcc.a(adc.o) (halOpenAdc)
./../../../../BitCloud/lib/libHAL_RcbAtm128rfa1_Atmega128rfa1_8Mhz_Gcc.a(halSpi.o)
                              ./../../../../BitCloud/lib/libHAL_RcbAtm128rfa1_Atmega128rfa1_8Mhz_Gcc.a(spi.o) (halSetUsartSpiConfig)
./../../../../BitCloud/lib/libHAL_RcbAtm128rfa1_Atmega128rfa1_8Mhz_Gcc.a(calibration.o)
                              ./../../../../BitCloud/lib/libHAL_RcbAtm128rfa1_Atmega128rfa1_8Mhz_Gcc.a(halSleep.o) (halStartingCalibrate)
./../../../../BitCloud/lib/libHAL_RcbAtm128rfa1_Atmega128rfa1_8Mhz_Gcc.a(halW1.o)
                              ./../../../../BitCloud/lib/libHAL_RcbAtm128rfa1_Atmega128rfa1_8Mhz_Gcc.a(halAdc.o) (__delay_us)
./../../../../BitCloud/lib/libHAL_RcbAtm128rfa1_Atmega128rfa1_8Mhz_Gcc.a(halCalibration.o)
                              ./../../../../BitCloud/lib/libHAL_RcbAtm128rfa1_Atmega128rfa1_8Mhz_Gcc.a(calibration.o) (halMeasurement)
./../../../../BitCloud/lib/libHAL_RcbAtm128rfa1_Atmega128rfa1_8Mhz_Gcc.a(sleepTimer.o)
                              ./../../../../BitCloud/lib/libHAL_RcbAtm128rfa1_Atmega128rfa1_8Mhz_Gcc.a(halTaskManager.o) (halAsyncTimerHandler)
./../../../../BitCloud/lib/libHAL_RcbAtm128rfa1_Atmega128rfa1_8Mhz_Gcc.a(sleep.o)
                              ./../../../../BitCloud/lib/libHAL_RcbAtm128rfa1_Atmega128rfa1_8Mhz_Gcc.a(halSleepTimerClock.o) (halSleepControl)
./../../../../BitCloud/lib/libHAL_RcbAtm128rfa1_Atmega128rfa1_8Mhz_Gcc.a(halClkCtrl.o)
                              ./../../../../BitCloud/lib/libHAL_RcbAtm128rfa1_Atmega128rfa1_8Mhz_Gcc.a(calibration.o) (halGetClockSource)
./../../../../BitCloud/lib/libBc_Coordinator_Atmega128rfa1_Atmega128rfa1_Gcc.a(aps.o)
                              Coordinator_Rcb_Atmega128rfa1_8Mhz_Gcc/Obj/blink.o (APS_DataReq)
./../../../../BitCloud/lib/libBc_Coordinator_Atmega128rfa1_Atmega128rfa1_Gcc.a(macenvPib.o)
                              ./../../../../BitCloud/lib/libBc_Coordinator_Atmega128rfa1_Atmega128rfa1_Gcc.a(aps.o) (MAC_GetExtAddr)
./../../../../BitCloud/lib/libBc_Coordinator_Atmega128rfa1_Atmega128rfa1_Gcc.a(nwk.o)
                              ./../../../../BitCloud/lib/libBc_Coordinator_Atmega128rfa1_Atmega128rfa1_Gcc.a(aps.o) (NWK_GetShortAddr)
./../../../../BitCloud/lib/libBc_Coordinator_Atmega128rfa1_Atmega128rfa1_Gcc.a(phyRxTxIndicator.o)
                              ./../../../../BitCloud/lib/libHAL_RcbAtm128rfa1_Atmega128rfa1_8Mhz_Gcc.a(halSleep.o) (phyRxTxSwitcherOn)
./../../../../BitCloud/lib/libBc_Coordinator_Atmega128rfa1_Atmega128rfa1_Gcc.a(phyStateMachine.o)
                              ./../../../../BitCloud/lib/libBc_Coordinator_Atmega128rfa1_Atmega128rfa1_Gcc.a(phyRxTxIndicator.o) (__wasRequest)
./../../../../BitCloud/lib/libBc_Coordinator_Atmega128rfa1_Atmega128rfa1_Gcc.a(queue.o)
                              ./../../../../BitCloud/lib/libHAL_RcbAtm128rfa1_Atmega128rfa1_8Mhz_Gcc.a(halSecurityModule.o) (deleteHeadQueueElem)
./../../../../BitCloud/lib/libBc_Coordinator_Atmega128rfa1_Atmega128rfa1_Gcc.a(sysDuplicateTable.o)
                              ./../../../../BitCloud/lib/libBc_Coordinator_Atmega128rfa1_Atmega128rfa1_Gcc.a(aps.o) (SYS_DuplicateTableReset)
./../../../../BitCloud/lib/libBc_Coordinator_Atmega128rfa1_Atmega128rfa1_Gcc.a(sysEvents.o)
                              Coordinator_Rcb_Atmega128rfa1_8Mhz_Gcc/Obj/pdsWriteData.o (SYS_PostEvent)
./../../../../BitCloud/lib/libBc_Coordinator_Atmega128rfa1_Atmega128rfa1_Gcc.a(sysTimer.o)
                              ./../../../../BitCloud/lib/libBc_Coordinator_Atmega128rfa1_Atmega128rfa1_Gcc.a(aps.o) (SYS_StartTimer)
./../../../../BitCloud/lib/libBc_Coordinator_Atmega128rfa1_Atmega128rfa1_Gcc.a(taskManager.o)
                              Coordinator_Rcb_Atmega128rfa1_8Mhz_Gcc/Obj/blink.o (SYS_RunTask)
./../../../../BitCloud/lib/libBc_Coordinator_Atmega128rfa1_Atmega128rfa1_Gcc.a(zdo.o)
                              ./../../../../BitCloud/lib/libBc_Coordinator_Atmega128rfa1_Atmega128rfa1_Gcc.a(nwk.o) (NWK_JoinInd)
./../../../../BitCloud/lib/libBc_Coordinator_Atmega128rfa1_Atmega128rfa1_Gcc.a(bcSysSleep.o)
                              ./../../../../BitCloud/lib/libBc_Coordinator_Atmega128rfa1_Atmega128rfa1_Gcc.a(zdo.o) (SYS_Sleep)
./../../../../BitCloud/lib/libBc_Coordinator_Atmega128rfa1_Atmega128rfa1_Gcc.a(macMem.o)
                              ./../../../../BitCloud/lib/libBc_Coordinator_Atmega128rfa1_Atmega128rfa1_Gcc.a(phyRxTxIndicator.o) (macMem)
./../../../../BitCloud/lib/libBc_Coordinator_Atmega128rfa1_Atmega128rfa1_Gcc.a(machwdManager.o)
                              ./../../../../BitCloud/lib/libBc_Coordinator_Atmega128rfa1_Atmega128rfa1_Gcc.a(zdo.o) (RF_RandomReq)
./../../../../BitCloud/lib/libBc_Coordinator_Atmega128rfa1_Atmega128rfa1_Gcc.a(machwdRegAccessHandler.o)
                              ./../../../../BitCloud/lib/libBc_Coordinator_Atmega128rfa1_Atmega128rfa1_Gcc.a(machwdManager.o) (machwdRegAccessReqHandler)
./../../../../BitCloud/lib/libBc_Coordinator_Atmega128rfa1_Atmega128rfa1_Gcc.a(machwdResetHandler.o)
                              ./../../../../BitCloud/lib/libBc_Coordinator_Atmega128rfa1_Atmega128rfa1_Gcc.a(machwdManager.o) (machwdReset)
./../../../../BitCloud/lib/libBc_Coordinator_Atmega128rfa1_Atmega128rfa1_Gcc.a(machwdRndHandler.o)
                              ./../../../../BitCloud/lib/libBc_Coordinator_Atmega128rfa1_Atmega128rfa1_Gcc.a(machwdManager.o) (machwdRndReqHandler)
./../../../../BitCloud/lib/libBc_Coordinator_Atmega128rfa1_Atmega128rfa1_Gcc.a(machwdRxBuffer.o)
                              ./../../../../BitCloud/lib/libBc_Coordinator_Atmega128rfa1_Atmega128rfa1_Gcc.a(machwdResetHandler.o) (machwdResetRxBuffer)
./../../../../BitCloud/lib/libBc_Coordinator_Atmega128rfa1_Atmega128rfa1_Gcc.a(machwdRxFrameHandler.o)
                              ./../../../../BitCloud/lib/libBc_Coordinator_Atmega128rfa1_Atmega128rfa1_Gcc.a(machwdManager.o) (machwdRxFrameTaskHandler)
./../../../../BitCloud/lib/libBc_Coordinator_Atmega128rfa1_Atmega128rfa1_Gcc.a(machwdSetHandler.o)
                              ./../../../../BitCloud/lib/libBc_Coordinator_Atmega128rfa1_Atmega128rfa1_Gcc.a(machwdManager.o) (machwdSetReqHandler)
./../../../../BitCloud/lib/libBc_Coordinator_Atmega128rfa1_Atmega128rfa1_Gcc.a(machwdTrxCtrl.o)
                              ./../../../../BitCloud/lib/libBc_Coordinator_Atmega128rfa1_Atmega128rfa1_Gcc.a(machwdSetHandler.o) (machwdSendTrxCmd)
./../../../../BitCloud/lib/libBc_Coordinator_Atmega128rfa1_Atmega128rfa1_Gcc.a(machwdTrxHandler.o)
                              ./../../../../BitCloud/lib/libBc_Coordinator_Atmega128rfa1_Atmega128rfa1_Gcc.a(machwdManager.o) (machwdTrxReqHandler)
./../../../../BitCloud/lib/libBc_Coordinator_Atmega128rfa1_Atmega128rfa1_Gcc.a(machwdTxFrameHandler.o)
                              ./../../../../BitCloud/lib/libBc_Coordinator_Atmega128rfa1_Atmega128rfa1_Gcc.a(machwdManager.o) (machwdTxFrameReqHandler)
./../../../../BitCloud/lib/libBc_Coordinator_Atmega128rfa1_Atmega128rfa1_Gcc.a(machwiManager.o)
                              ./../../../../BitCloud/lib/libBc_Coordinator_Atmega128rfa1_Atmega128rfa1_Gcc.a(taskManager.o) (MAC_HWI_TaskHandler)
./../../../../BitCloud/lib/libBc_Coordinator_Atmega128rfa1_Atmega128rfa1_Gcc.a(machwiOrphanHandler.o)
                              ./../../../../BitCloud/lib/libBc_Coordinator_Atmega128rfa1_Atmega128rfa1_Gcc.a(machwiManager.o) (machwiOrphanRespHandler)
./../../../../BitCloud/lib/libBc_Coordinator_Atmega128rfa1_Atmega128rfa1_Gcc.a(machwiPanServer.o)
                              ./../../../../BitCloud/lib/libBc_Coordinator_Atmega128rfa1_Atmega128rfa1_Gcc.a(machwdRxFrameHandler.o) (MACHWD_DataInd)
./../../../../BitCloud/lib/libBc_Coordinator_Atmega128rfa1_Atmega128rfa1_Gcc.a(machwiPollHandler.o)
                              ./../../../../BitCloud/lib/libBc_Coordinator_Atmega128rfa1_Atmega128rfa1_Gcc.a(machwiPanServer.o) (machwiPollInd)
./../../../../BitCloud/lib/libBc_Coordinator_Atmega128rfa1_Atmega128rfa1_Gcc.a(machwiPurgeHandler.o)
                              ./../../../../BitCloud/lib/libBc_Coordinator_Atmega128rfa1_Atmega128rfa1_Gcc.a(machwiManager.o) (machwiPurgeReqHandler)
./../../../../BitCloud/lib/libBc_Coordinator_Atmega128rfa1_Atmega128rfa1_Gcc.a(machwiResetHandler.o)
                              ./../../../../BitCloud/lib/libBc_Coordinator_Atmega128rfa1_Atmega128rfa1_Gcc.a(machwiManager.o) (machwiResetReqHandler)
./../../../../BitCloud/lib/libBc_Coordinator_Atmega128rfa1_Atmega128rfa1_Gcc.a(machwiRxEnableHandler.o)
                              ./../../../../BitCloud/lib/libBc_Coordinator_Atmega128rfa1_Atmega128rfa1_Gcc.a(machwiManager.o) (machwiRxEnableReqHandler)
./../../../../BitCloud/lib/libBc_Coordinator_Atmega128rfa1_Atmega128rfa1_Gcc.a(machwiScanHandler.o)
                              ./../../../../BitCloud/lib/libBc_Coordinator_Atmega128rfa1_Atmega128rfa1_Gcc.a(machwiManager.o) (machwiScanReqHandler)
./../../../../BitCloud/lib/libBc_Coordinator_Atmega128rfa1_Atmega128rfa1_Gcc.a(machwiSetGetHandler.o)
                              ./../../../../BitCloud/lib/libBc_Coordinator_Atmega128rfa1_Atmega128rfa1_Gcc.a(machwiManager.o) (machwiGetReqHandler)
./../../../../BitCloud/lib/libBc_Coordinator_Atmega128rfa1_Atmega128rfa1_Gcc.a(machwiStartHandler.o)
                              ./../../../../BitCloud/lib/libBc_Coordinator_Atmega128rfa1_Atmega128rfa1_Gcc.a(machwiManager.o) (machwiStartReqHandler)
./../../../../BitCloud/lib/libBc_Coordinator_Atmega128rfa1_Atmega128rfa1_Gcc.a(machwiSwitchRxCtrl.o)
                              ./../../../../BitCloud/lib/libBc_Coordinator_Atmega128rfa1_Atmega128rfa1_Gcc.a(machwiPollHandler.o) (machwiSwitchRxAccordToRxOnWhenIdle)
./../../../../BitCloud/lib/libBc_Coordinator_Atmega128rfa1_Atmega128rfa1_Gcc.a(machwiTransactionHandler.o)
                              ./../../../../BitCloud/lib/libBc_Coordinator_Atmega128rfa1_Atmega128rfa1_Gcc.a(machwiResetHandler.o) (machwiResetTransactionHandler)
./../../../../BitCloud/lib/libBc_Coordinator_Atmega128rfa1_Atmega128rfa1_Gcc.a(machwiTransactionQueue.o)
                              ./../../../../BitCloud/lib/libBc_Coordinator_Atmega128rfa1_Atmega128rfa1_Gcc.a(machwiManager.o) (machwiGetActivatedTransactionFromQueue)
./../../../../BitCloud/lib/libBc_Coordinator_Atmega128rfa1_Atmega128rfa1_Gcc.a(phyInit.o)
                              ./../../../../BitCloud/lib/libBc_Coordinator_Atmega128rfa1_Atmega128rfa1_Gcc.a(taskManager.o) (RF_Init)
./../../../../BitCloud/lib/libBc_Coordinator_Atmega128rfa1_Atmega128rfa1_Gcc.a(phyRegAccess.o)
                              ./../../../../BitCloud/lib/libBc_Coordinator_Atmega128rfa1_Atmega128rfa1_Gcc.a(machwdRegAccessHandler.o) (PHY_RegWriteReq)
./../../../../BitCloud/lib/libBc_Coordinator_Atmega128rfa1_Atmega128rfa1_Gcc.a(phyReset.o)
                              ./../../../../BitCloud/lib/libBc_Coordinator_Atmega128rfa1_Atmega128rfa1_Gcc.a(machwdResetHandler.o) (PHY_Reset)
./../../../../BitCloud/lib/libBc_Coordinator_Atmega128rfa1_Atmega128rfa1_Gcc.a(phyRfIrqDispatcher.o)
                              ./../../../../BitCloud/lib/libBc_Coordinator_Atmega128rfa1_Atmega128rfa1_Gcc.a(phyRegAccess.o) (phyRestoreRfIrqMask)
./../../../../BitCloud/lib/libBc_Coordinator_Atmega128rfa1_Atmega128rfa1_Gcc.a(phyRnd.o)
                              ./../../../../BitCloud/lib/libBc_Coordinator_Atmega128rfa1_Atmega128rfa1_Gcc.a(machwdRndHandler.o) (PHY_RndReq)
./../../../../BitCloud/lib/libBc_Coordinator_Atmega128rfa1_Atmega128rfa1_Gcc.a(phyRxFrame.o)
                              ./../../../../BitCloud/lib/libBc_Coordinator_Atmega128rfa1_Atmega128rfa1_Gcc.a(machwdRxFrameHandler.o) (PHY_DownloadFrame)
./../../../../BitCloud/lib/libBc_Coordinator_Atmega128rfa1_Atmega128rfa1_Gcc.a(phySet.o)
                              ./../../../../BitCloud/lib/libBc_Coordinator_Atmega128rfa1_Atmega128rfa1_Gcc.a(machwdResetHandler.o) (PHY_SetReq)
./../../../../BitCloud/lib/libBc_Coordinator_Atmega128rfa1_Atmega128rfa1_Gcc.a(phySetTrxState.o)
                              ./../../../../BitCloud/lib/libBc_Coordinator_Atmega128rfa1_Atmega128rfa1_Gcc.a(machwdTrxCtrl.o) (PHY_SetTrxStateReq)
./../../../../BitCloud/lib/libBc_Coordinator_Atmega128rfa1_Atmega128rfa1_Gcc.a(phyTxFrame.o)
                              ./../../../../BitCloud/lib/libBc_Coordinator_Atmega128rfa1_Atmega128rfa1_Gcc.a(machwdTxFrameHandler.o) (PHY_DataReq)
./../../../../BitCloud/lib/libBc_Coordinator_Atmega128rfa1_Atmega128rfa1_Gcc.a(machwdCalibHandler.o)
                              ./../../../../BitCloud/lib/libBc_Coordinator_Atmega128rfa1_Atmega128rfa1_Gcc.a(machwdManager.o) (machwdCalibReqHandler)
./../../../../BitCloud/lib/libBc_Coordinator_Atmega128rfa1_Atmega128rfa1_Gcc.a(machwdEdHandler.o)
                              ./../../../../BitCloud/lib/libBc_Coordinator_Atmega128rfa1_Atmega128rfa1_Gcc.a(machwdManager.o) (machwdEdReqHandler)
./../../../../BitCloud/lib/libBc_Coordinator_Atmega128rfa1_Atmega128rfa1_Gcc.a(machwdFrameRoutine.o)
                              ./../../../../BitCloud/lib/libBc_Coordinator_Atmega128rfa1_Atmega128rfa1_Gcc.a(machwdRxFrameHandler.o) (machwdParseFrame)
./../../../../BitCloud/lib/libBc_Coordinator_Atmega128rfa1_Atmega128rfa1_Gcc.a(machwdHandlerCtrl.o)
                              ./../../../../BitCloud/lib/libBc_Coordinator_Atmega128rfa1_Atmega128rfa1_Gcc.a(machwdManager.o) (machwdGetHandlerId)
./../../../../BitCloud/lib/libBc_Coordinator_Atmega128rfa1_Atmega128rfa1_Gcc.a(machwiAssociateHandler.o)
                              ./../../../../BitCloud/lib/libBc_Coordinator_Atmega128rfa1_Atmega128rfa1_Gcc.a(machwiResetHandler.o) (machwiResetAssociateHandler)
./../../../../BitCloud/lib/libBc_Coordinator_Atmega128rfa1_Atmega128rfa1_Gcc.a(machwiBeaconHandler.o)
                              ./../../../../BitCloud/lib/libBc_Coordinator_Atmega128rfa1_Atmega128rfa1_Gcc.a(machwiManager.o) (machwiSendBeacon)
./../../../../BitCloud/lib/libBc_Coordinator_Atmega128rfa1_Atmega128rfa1_Gcc.a(machwiDataHandler.o)
                              ./../../../../BitCloud/lib/libBc_Coordinator_Atmega128rfa1_Atmega128rfa1_Gcc.a(machwiOrphanHandler.o) (machwiConvertmachwdDataConfirmTypes)
./../../../../BitCloud/lib/libBc_Coordinator_Atmega128rfa1_Atmega128rfa1_Gcc.a(machwiTransactionHash.o)
                              ./../../../../BitCloud/lib/libBc_Coordinator_Atmega128rfa1_Atmega128rfa1_Gcc.a(machwiTransactionQueue.o) (machwiTransctionHashInsert)
./../../../../BitCloud/lib/libBc_Coordinator_Atmega128rfa1_Atmega128rfa1_Gcc.a(phyCalib.o)
                              ./../../../../BitCloud/lib/libBc_Coordinator_Atmega128rfa1_Atmega128rfa1_Gcc.a(machwdCalibHandler.o) (PHY_CalibReq)
./../../../../BitCloud/lib/libBc_Coordinator_Atmega128rfa1_Atmega128rfa1_Gcc.a(phyEd.o)
                              ./../../../../BitCloud/lib/libBc_Coordinator_Atmega128rfa1_Atmega128rfa1_Gcc.a(machwdEdHandler.o) (PHY_EdReq)
./../../../../BitCloud/lib/libBc_Coordinator_Atmega128rfa1_Atmega128rfa1_Gcc.a(phyRtimerIrqDispatcher.o)
                              ./../../../../BitCloud/lib/libBc_Coordinator_Atmega128rfa1_Atmega128rfa1_Gcc.a(phyRxFrame.o) (phySetRTimerSource)
./../../../../BitCloud/lib/libHAL_RcbAtm128rfa1_Atmega128rfa1_8Mhz_Gcc.a(halDelay.o)
                              ./../../../../BitCloud/lib/libBc_Coordinator_Atmega128rfa1_Atmega128rfa1_Gcc.a(phyInit.o) (HAL_Delay)
./../../../../BitCloud/lib/libHAL_RcbAtm128rfa1_Atmega128rfa1_8Mhz_Gcc.a(halInit.o)
                              ./../../../../BitCloud/lib/libBc_Coordinator_Atmega128rfa1_Atmega128rfa1_Gcc.a(taskManager.o) (HAL_Init)
./../../../../BitCloud/lib/libHAL_RcbAtm128rfa1_Atmega128rfa1_8Mhz_Gcc.a(halRfCtrl.o)
                              ./../../../../BitCloud/lib/libBc_Coordinator_Atmega128rfa1_Atmega128rfa1_Gcc.a(phyInit.o) (HAL_EnableRxTxSwitcher)
./../../../../BitCloud/lib/libHAL_RcbAtm128rfa1_Atmega128rfa1_8Mhz_Gcc.a(halUid.o)
                              ./../../../../BitCloud/lib/libHAL_RcbAtm128rfa1_Atmega128rfa1_8Mhz_Gcc.a(halInit.o) (halReadUid)
./../../../../BitCloud/lib/libHAL_RcbAtm128rfa1_Atmega128rfa1_8Mhz_Gcc.a(halMacIsr.o)
                              ./../../../../BitCloud/lib/libBc_Coordinator_Atmega128rfa1_Atmega128rfa1_Gcc.a(phyInit.o) (HAL_InitMacIsr)
d:/program files/atmel/avr studio 5.1/extensions/atmel/avrgcc/3.3.1.27/avrtoolchain/bin/../lib/gcc/avr/4.5.1/avr51\libgcc.a(_mulsi3.o)
                              ./../../../../BitCloud/lib/libHAL_RcbAtm128rfa1_Atmega128rfa1_8Mhz_Gcc.a(halSleepTimerClock.o) (__mulsi3)
d:/program files/atmel/avr studio 5.1/extensions/atmel/avrgcc/3.3.1.27/avrtoolchain/bin/../lib/gcc/avr/4.5.1/avr51\libgcc.a(_udivmodqi4.o)
                              ./../../../../BitCloud/lib/libBc_Coordinator_Atmega128rfa1_Atmega128rfa1_Gcc.a(aps.o) (__udivmodqi4)
d:/program files/atmel/avr studio 5.1/extensions/atmel/avrgcc/3.3.1.27/avrtoolchain/bin/../lib/gcc/avr/4.5.1/avr51\libgcc.a(_udivmodhi4.o)
                              Coordinator_Rcb_Atmega128rfa1_8Mhz_Gcc/Obj/pdsInit.o (__udivmodhi4)
d:/program files/atmel/avr studio 5.1/extensions/atmel/avrgcc/3.3.1.27/avrtoolchain/bin/../lib/gcc/avr/4.5.1/avr51\libgcc.a(_udivmodsi4.o)
                              ./../../../../BitCloud/lib/libHAL_RcbAtm128rfa1_Atmega128rfa1_8Mhz_Gcc.a(sleepTimer.o) (__udivmodsi4)
d:/program files/atmel/avr studio 5.1/extensions/atmel/avrgcc/3.3.1.27/avrtoolchain/bin/../lib/gcc/avr/4.5.1/avr51\libgcc.a(_prologue.o)
                              Coordinator_Rcb_Atmega128rfa1_8Mhz_Gcc/Obj/blink.o (__prologue_saves__)
d:/program files/atmel/avr studio 5.1/extensions/atmel/avrgcc/3.3.1.27/avrtoolchain/bin/../lib/gcc/avr/4.5.1/avr51\libgcc.a(_epilogue.o)
                              Coordinator_Rcb_Atmega128rfa1_8Mhz_Gcc/Obj/blink.o (__epilogue_restores__)
d:/program files/atmel/avr studio 5.1/extensions/atmel/avrgcc/3.3.1.27/avrtoolchain/bin/../lib/gcc/avr/4.5.1/avr51\libgcc.a(_exit.o)
                              d:/program files/atmel/avr studio 5.1/extensions/atmel/avrgcc/3.3.1.27/avrtoolchain/bin/../lib/gcc/avr/4.5.1/../../../../avr/lib/avr51/crtm128rfa1.o (exit)
d:/program files/atmel/avr studio 5.1/extensions/atmel/avrgcc/3.3.1.27/avrtoolchain/bin/../lib/gcc/avr/4.5.1/avr51\libgcc.a(_tablejump.o)
                              ./../../../../BitCloud/lib/libBc_Coordinator_Atmega128rfa1_Atmega128rfa1_Gcc.a(macenvPib.o) (__tablejump2__)
d:/program files/atmel/avr studio 5.1/extensions/atmel/avrgcc/3.3.1.27/avrtoolchain/bin/../lib/gcc/avr/4.5.1/avr51\libgcc.a(_copy_data.o)
                              Coordinator_Rcb_Atmega128rfa1_8Mhz_Gcc/Obj/blink.o (__do_copy_data)
d:/program files/atmel/avr studio 5.1/extensions/atmel/avrgcc/3.3.1.27/avrtoolchain/bin/../lib/gcc/avr/4.5.1/avr51\libgcc.a(_clear_bss.o)
                              Coordinator_Rcb_Atmega128rfa1_8Mhz_Gcc/Obj/blink.o (__do_clear_bss)
d:/program files/atmel/avr studio 5.1/extensions/atmel/avrgcc/3.3.1.27/avrtoolchain/bin/../lib/gcc/avr/4.5.1/avr51\libgcc.a(_ashldi3.o)
                              ./../../../../BitCloud/lib/libHAL_RcbAtm128rfa1_Atmega128rfa1_8Mhz_Gcc.a(appTimer.o) (__ashldi3)
d:/program files/atmel/avr studio 5.1/extensions/atmel/avrgcc/3.3.1.27/avrtoolchain/bin/../lib/gcc/avr/4.5.1/../../../../avr/lib/avr51\libc.a(rand.o)
                              ./../../../../BitCloud/lib/libBc_Coordinator_Atmega128rfa1_Atmega128rfa1_Gcc.a(aps.o) (rand)
d:/program files/atmel/avr studio 5.1/extensions/atmel/avrgcc/3.3.1.27/avrtoolchain/bin/../lib/gcc/avr/4.5.1/../../../../avr/lib/avr51\libc.a(memcpy_P.o)
                              Coordinator_Rcb_Atmega128rfa1_8Mhz_Gcc/Obj/pdsInit.o (memcpy_P)
d:/program files/atmel/avr studio 5.1/extensions/atmel/avrgcc/3.3.1.27/avrtoolchain/bin/../lib/gcc/avr/4.5.1/../../../../avr/lib/avr51\libc.a(memcmp.o)
                              ./../../../../BitCloud/lib/libBc_Coordinator_Atmega128rfa1_Atmega128rfa1_Gcc.a(aps.o) (memcmp)
d:/program files/atmel/avr studio 5.1/extensions/atmel/avrgcc/3.3.1.27/avrtoolchain/bin/../lib/gcc/avr/4.5.1/../../../../avr/lib/avr51\libc.a(memcpy.o)
                              Coordinator_Rcb_Atmega128rfa1_8Mhz_Gcc/Obj/configServer.o (memcpy)
d:/program files/atmel/avr studio 5.1/extensions/atmel/avrgcc/3.3.1.27/avrtoolchain/bin/../lib/gcc/avr/4.5.1/../../../../avr/lib/avr51\libc.a(memmove.o)
                              ./../../../../BitCloud/lib/libBc_Coordinator_Atmega128rfa1_Atmega128rfa1_Gcc.a(nwk.o) (memmove)
d:/program files/atmel/avr studio 5.1/extensions/atmel/avrgcc/3.3.1.27/avrtoolchain/bin/../lib/gcc/avr/4.5.1/../../../../avr/lib/avr51\libc.a(memset.o)
                              Coordinator_Rcb_Atmega128rfa1_8Mhz_Gcc/Obj/pdsMemAccess.o (memset)
d:/program files/atmel/avr studio 5.1/extensions/atmel/avrgcc/3.3.1.27/avrtoolchain/bin/../lib/gcc/avr/4.5.1/../../../../avr/lib/avr51\libc.a(strcat.o)
                              Coordinator_Rcb_Atmega128rfa1_8Mhz_Gcc/Obj/blink.o (strcat)
d:/program files/atmel/avr studio 5.1/extensions/atmel/avrgcc/3.3.1.27/avrtoolchain/bin/../lib/gcc/avr/4.5.1/../../../../avr/lib/avr51\libc.a(strcpy.o)
                              Coordinator_Rcb_Atmega128rfa1_8Mhz_Gcc/Obj/blink.o (strcpy)
d:/program files/atmel/avr studio 5.1/extensions/atmel/avrgcc/3.3.1.27/avrtoolchain/bin/../lib/gcc/avr/4.5.1/../../../../avr/lib/avr51\libc.a(sprintf.o)
                              Coordinator_Rcb_Atmega128rfa1_8Mhz_Gcc/Obj/blink.o (sprintf)
d:/program files/atmel/avr studio 5.1/extensions/atmel/avrgcc/3.3.1.27/avrtoolchain/bin/../lib/gcc/avr/4.5.1/../../../../avr/lib/avr51\libc.a(vfprintf_std.o)
                              d:/program files/atmel/avr studio 5.1/extensions/atmel/avrgcc/3.3.1.27/avrtoolchain/bin/../lib/gcc/avr/4.5.1/../../../../avr/lib/avr51\libc.a(sprintf.o) (vfprintf)
d:/program files/atmel/avr studio 5.1/extensions/atmel/avrgcc/3.3.1.27/avrtoolchain/bin/../lib/gcc/avr/4.5.1/../../../../avr/lib/avr51\libc.a(strnlen_P.o)
                              d:/program files/atmel/avr studio 5.1/extensions/atmel/avrgcc/3.3.1.27/avrtoolchain/bin/../lib/gcc/avr/4.5.1/../../../../avr/lib/avr51\libc.a(vfprintf_std.o) (strnlen_P)
d:/program files/atmel/avr studio 5.1/extensions/atmel/avrgcc/3.3.1.27/avrtoolchain/bin/../lib/gcc/avr/4.5.1/../../../../avr/lib/avr51\libc.a(strnlen.o)
                              d:/program files/atmel/avr studio 5.1/extensions/atmel/avrgcc/3.3.1.27/avrtoolchain/bin/../lib/gcc/avr/4.5.1/../../../../avr/lib/avr51\libc.a(vfprintf_std.o) (strnlen)
d:/program files/atmel/avr studio 5.1/extensions/atmel/avrgcc/3.3.1.27/avrtoolchain/bin/../lib/gcc/avr/4.5.1/../../../../avr/lib/avr51\libc.a(fputc.o)
                              d:/program files/atmel/avr studio 5.1/extensions/atmel/avrgcc/3.3.1.27/avrtoolchain/bin/../lib/gcc/avr/4.5.1/../../../../avr/lib/avr51\libc.a(vfprintf_std.o) (fputc)
d:/program files/atmel/avr studio 5.1/extensions/atmel/avrgcc/3.3.1.27/avrtoolchain/bin/../lib/gcc/avr/4.5.1/../../../../avr/lib/avr51\libc.a(ultoa_invert.o)
                              d:/program files/atmel/avr studio 5.1/extensions/atmel/avrgcc/3.3.1.27/avrtoolchain/bin/../lib/gcc/avr/4.5.1/../../../../avr/lib/avr51\libc.a(vfprintf_std.o) (__ultoa_invert)
d:/program files/atmel/avr studio 5.1/extensions/atmel/avrgcc/3.3.1.27/avrtoolchain/bin/../lib/gcc/avr/4.5.1/avr51\libgcc.a(_divmodsi4.o)
                              d:/program files/atmel/avr studio 5.1/extensions/atmel/avrgcc/3.3.1.27/avrtoolchain/bin/../lib/gcc/avr/4.5.1/../../../../avr/lib/avr51\libc.a(rand.o) (__divmodsi4)

Allocating common symbols
Common symbol       size              file

stackBuffers        0x7be             Coordinator_Rcb_Atmega128rfa1_8Mhz_Gcc/Obj/csMem.o
readBatteryDataCallback
                    0x2               Coordinator_Rcb_Atmega128rfa1_8Mhz_Gcc/Obj/fakeBSP.o
csAIB               0x2               Coordinator_Rcb_Atmega128rfa1_8Mhz_Gcc/Obj/csMem.o
macMem              0x88              ./../../../../BitCloud/lib/libBc_Coordinator_Atmega128rfa1_Atmega128rfa1_Gcc.a(macMem.o)
extHandler          0x2               ./../../../../BitCloud/lib/libHAL_RcbAtm128rfa1_Atmega128rfa1_8Mhz_Gcc.a(halTaskManager.o)
nwkMem              0x10c             ./../../../../BitCloud/lib/libBc_Coordinator_Atmega128rfa1_Atmega128rfa1_Gcc.a(nwk.o)
csZIB               0x2f              Coordinator_Rcb_Atmega128rfa1_8Mhz_Gcc/Obj/csMem.o
csPIB               0x38              Coordinator_Rcb_Atmega128rfa1_8Mhz_Gcc/Obj/csMem.o
halEepromParams     0x6               ./../../../../BitCloud/lib/libHAL_RcbAtm128rfa1_Atmega128rfa1_8Mhz_Gcc.a(eeprom.o)
zdoMem              0x3ab             ./../../../../BitCloud/lib/libBc_Coordinator_Atmega128rfa1_Atmega128rfa1_Gcc.a(zdo.o)
readTemperatureDataCallback
                    0x2               Coordinator_Rcb_Atmega128rfa1_8Mhz_Gcc/Obj/fakeBSP.o
csSIB               0x3c              Coordinator_Rcb_Atmega128rfa1_8Mhz_Gcc/Obj/csMem.o
__energyLevel       0x1               ./../../../../BitCloud/lib/libBc_Coordinator_Atmega128rfa1_Atmega128rfa1_Gcc.a(machwdEdHandler.o)
rxBuffer            0x1f4             Coordinator_Rcb_Atmega128rfa1_8Mhz_Gcc/Obj/blink.o
apsMem              0xbc              ./../../../../BitCloud/lib/libBc_Coordinator_Atmega128rfa1_Atmega128rfa1_Gcc.a(aps.o)
rxSlaveBuffer       0xa               ./../../../../BitCloud/lib/libHAL_RcbAtm128rfa1_Atmega128rfa1_8Mhz_Gcc.a(halSpi.o)
txBuffer            0x21              ./../../../../BitCloud/lib/libBc_Coordinator_Atmega128rfa1_Atmega128rfa1_Gcc.a(machwdFrameRoutine.o)
__rtimer            0x5               ./../../../../BitCloud/lib/libHAL_RcbAtm128rfa1_Atmega128rfa1_8Mhz_Gcc.a(halMacIsr.o)
pdsMem              0x2e              Coordinator_Rcb_Atmega128rfa1_8Mhz_Gcc/Obj/pdsMem.o
dataBuffers         0x12              Coordinator_Rcb_Atmega128rfa1_8Mhz_Gcc/Obj/blink.o
__necessaryPhyTrxState
                    0x1               ./../../../../BitCloud/lib/libBc_Coordinator_Atmega128rfa1_Atmega128rfa1_Gcc.a(phySetTrxState.o)
__sourceHandler     0x1               ./../../../../BitCloud/lib/libBc_Coordinator_Atmega128rfa1_Atmega128rfa1_Gcc.a(machwdTrxCtrl.o)
readLightDataCallback
                    0x2               Coordinator_Rcb_Atmega128rfa1_8Mhz_Gcc/Obj/fakeBSP.o
halEepromDone       0x2               ./../../../../BitCloud/lib/libHAL_RcbAtm128rfa1_Atmega128rfa1_8Mhz_Gcc.a(eeprom.o)
csNIB               0x86              Coordinator_Rcb_Atmega128rfa1_8Mhz_Gcc/Obj/csMem.o

Discarded input sections

 .data          0x00000000        0x0 d:/program files/atmel/avr studio 5.1/extensions/atmel/avrgcc/3.3.1.27/avrtoolchain/bin/../lib/gcc/avr/4.5.1/../../../../avr/lib/avr51/crtm128rfa1.o
 .bss           0x00000000        0x0 d:/program files/atmel/avr studio 5.1/extensions/atmel/avrgcc/3.3.1.27/avrtoolchain/bin/../lib/gcc/avr/4.5.1/../../../../avr/lib/avr51/crtm128rfa1.o
 .init9         0x00000000        0x8 d:/program files/atmel/avr studio 5.1/extensions/atmel/avrgcc/3.3.1.27/avrtoolchain/bin/../lib/gcc/avr/4.5.1/../../../../avr/lib/avr51/crtm128rfa1.o
 .text          0x00000000        0x0 Coordinator_Rcb_Atmega128rfa1_8Mhz_Gcc/Obj/blink.o
 .text          0x00000000        0x0 Coordinator_Rcb_Atmega128rfa1_8Mhz_Gcc/Obj/pdsMem.o
 .data          0x00000000        0x0 Coordinator_Rcb_Atmega128rfa1_8Mhz_Gcc/Obj/pdsMem.o
 .bss           0x00000000        0x0 Coordinator_Rcb_Atmega128rfa1_8Mhz_Gcc/Obj/pdsMem.o
 .text          0x00000000        0x0 Coordinator_Rcb_Atmega128rfa1_8Mhz_Gcc/Obj/pdsWriteData.o
 .data          0x00000000        0x0 Coordinator_Rcb_Atmega128rfa1_8Mhz_Gcc/Obj/pdsWriteData.o
 .text.pdsUpdate
                0x00000000       0x98 Coordinator_Rcb_Atmega128rfa1_8Mhz_Gcc/Obj/pdsWriteData.o
 .text.pdsCorruptFiles
                0x00000000       0xa4 Coordinator_Rcb_Atmega128rfa1_8Mhz_Gcc/Obj/pdsWriteData.o
 .text          0x00000000        0x0 Coordinator_Rcb_Atmega128rfa1_8Mhz_Gcc/Obj/pdsDataServer.o
 .data          0x00000000        0x0 Coordinator_Rcb_Atmega128rfa1_8Mhz_Gcc/Obj/pdsDataServer.o
 .bss           0x00000000        0x0 Coordinator_Rcb_Atmega128rfa1_8Mhz_Gcc/Obj/pdsDataServer.o
 .text.PDS_Restore
                0x00000000       0x80 Coordinator_Rcb_Atmega128rfa1_8Mhz_Gcc/Obj/pdsDataServer.o
 .text.PDS_BlockingStore
                0x00000000       0x1a Coordinator_Rcb_Atmega128rfa1_8Mhz_Gcc/Obj/pdsDataServer.o
 .text.PDS_IsAbleToRestore
                0x00000000       0x44 Coordinator_Rcb_Atmega128rfa1_8Mhz_Gcc/Obj/pdsDataServer.o
 .text.PDS_IsAbleToStore
                0x00000000       0x2e Coordinator_Rcb_Atmega128rfa1_8Mhz_Gcc/Obj/pdsDataServer.o
 .text.PDS_ClearRestoredMemory
                0x00000000       0x3a Coordinator_Rcb_Atmega128rfa1_8Mhz_Gcc/Obj/pdsDataServer.o
 .text.PDS_ResetStorage
                0x00000000       0x54 Coordinator_Rcb_Atmega128rfa1_8Mhz_Gcc/Obj/pdsDataServer.o
 .text.PDS_FlushData
                0x00000000        0x6 Coordinator_Rcb_Atmega128rfa1_8Mhz_Gcc/Obj/pdsDataServer.o
 .text.PDS_ReadUserData
                0x00000000       0x6e Coordinator_Rcb_Atmega128rfa1_8Mhz_Gcc/Obj/pdsDataServer.o
 .text.PDS_WriteUserData
                0x00000000       0x6e Coordinator_Rcb_Atmega128rfa1_8Mhz_Gcc/Obj/pdsDataServer.o
 .text          0x00000000        0x0 Coordinator_Rcb_Atmega128rfa1_8Mhz_Gcc/Obj/pdsInit.o
 .data          0x00000000        0x0 Coordinator_Rcb_Atmega128rfa1_8Mhz_Gcc/Obj/pdsInit.o
 .bss           0x00000000        0x0 Coordinator_Rcb_Atmega128rfa1_8Mhz_Gcc/Obj/pdsInit.o
 .text          0x00000000        0x0 Coordinator_Rcb_Atmega128rfa1_8Mhz_Gcc/Obj/pdsTimer.o
 .data          0x00000000        0x0 Coordinator_Rcb_Atmega128rfa1_8Mhz_Gcc/Obj/pdsTimer.o
 .bss           0x00000000        0x0 Coordinator_Rcb_Atmega128rfa1_8Mhz_Gcc/Obj/pdsTimer.o
 .text.PDS_StoreByTimer
                0x00000000       0x5c Coordinator_Rcb_Atmega128rfa1_8Mhz_Gcc/Obj/pdsTimer.o
 .text.PDS_Stop
                0x00000000       0x1e Coordinator_Rcb_Atmega128rfa1_8Mhz_Gcc/Obj/pdsTimer.o
 .text.PDS_Run  0x00000000       0x1e Coordinator_Rcb_Atmega128rfa1_8Mhz_Gcc/Obj/pdsTimer.o
 .text          0x00000000        0x0 Coordinator_Rcb_Atmega128rfa1_8Mhz_Gcc/Obj/pdsEvents.o
 .data          0x00000000        0x8 Coordinator_Rcb_Atmega128rfa1_8Mhz_Gcc/Obj/pdsEvents.o
 .bss           0x00000000        0x0 Coordinator_Rcb_Atmega128rfa1_8Mhz_Gcc/Obj/pdsEvents.o
 .text.pdsObserver
                0x00000000       0x58 Coordinator_Rcb_Atmega128rfa1_8Mhz_Gcc/Obj/pdsEvents.o
 .text.PDS_StoreByEvents
                0x00000000       0xfc Coordinator_Rcb_Atmega128rfa1_8Mhz_Gcc/Obj/pdsEvents.o
 .progmem.data  0x00000000       0x39 Coordinator_Rcb_Atmega128rfa1_8Mhz_Gcc/Obj/pdsEvents.o
 .text          0x00000000        0x0 Coordinator_Rcb_Atmega128rfa1_8Mhz_Gcc/Obj/pdsMemAccess.o
 .data          0x00000000        0x0 Coordinator_Rcb_Atmega128rfa1_8Mhz_Gcc/Obj/pdsMemAccess.o
 .bss           0x00000000        0x0 Coordinator_Rcb_Atmega128rfa1_8Mhz_Gcc/Obj/pdsMemAccess.o
 .text.pdsGetDirectoryDescrRec
                0x00000000       0x66 Coordinator_Rcb_Atmega128rfa1_8Mhz_Gcc/Obj/pdsMemAccess.o
 .text          0x00000000        0x0 Coordinator_Rcb_Atmega128rfa1_8Mhz_Gcc/Obj/pdsCrcService.o
 .data          0x00000000        0x0 Coordinator_Rcb_Atmega128rfa1_8Mhz_Gcc/Obj/pdsCrcService.o
 .bss           0x00000000        0x0 Coordinator_Rcb_Atmega128rfa1_8Mhz_Gcc/Obj/pdsCrcService.o
 .text          0x00000000        0x0 Coordinator_Rcb_Atmega128rfa1_8Mhz_Gcc/Obj/usbFifoVirtualUsart.o
 .data          0x00000000        0x0 Coordinator_Rcb_Atmega128rfa1_8Mhz_Gcc/Obj/usbFifoVirtualUsart.o
 .bss           0x00000000        0x2 Coordinator_Rcb_Atmega128rfa1_8Mhz_Gcc/Obj/usbFifoVirtualUsart.o
 .text.USBFIFO_OpenUsart
                0x00000000       0x5c Coordinator_Rcb_Atmega128rfa1_8Mhz_Gcc/Obj/usbFifoVirtualUsart.o
 .text.USBFIFO_CloseUsart
                0x00000000       0x34 Coordinator_Rcb_Atmega128rfa1_8Mhz_Gcc/Obj/usbFifoVirtualUsart.o
 .text.USBFIFO_WriteUsart
                0x00000000       0xbe Coordinator_Rcb_Atmega128rfa1_8Mhz_Gcc/Obj/usbFifoVirtualUsart.o
 .text.USBFIFO_ReadUsart
                0x00000000       0x9e Coordinator_Rcb_Atmega128rfa1_8Mhz_Gcc/Obj/usbFifoVirtualUsart.o
 .text.USBFIFO_IsTxEmpty
                0x00000000       0x3a Coordinator_Rcb_Atmega128rfa1_8Mhz_Gcc/Obj/usbFifoVirtualUsart.o
 .text          0x00000000        0x0 Coordinator_Rcb_Atmega128rfa1_8Mhz_Gcc/Obj/usbFifoFT245RL.o
 .data          0x00000000        0x0 Coordinator_Rcb_Atmega128rfa1_8Mhz_Gcc/Obj/usbFifoFT245RL.o
 .bss           0x00000000        0x1 Coordinator_Rcb_Atmega128rfa1_8Mhz_Gcc/Obj/usbFifoFT245RL.o
 .text.usbfifoTxComplete
                0x00000000       0x26 Coordinator_Rcb_Atmega128rfa1_8Mhz_Gcc/Obj/usbFifoFT245RL.o
 .text.usbfifoRxComplete
                0x00000000       0x30 Coordinator_Rcb_Atmega128rfa1_8Mhz_Gcc/Obj/usbFifoFT245RL.o
 .text.usbfifoPostTask
                0x00000000       0x3c Coordinator_Rcb_Atmega128rfa1_8Mhz_Gcc/Obj/usbFifoFT245RL.o
 .text.usbfifoTxBufferCleaner
                0x00000000       0x5e Coordinator_Rcb_Atmega128rfa1_8Mhz_Gcc/Obj/usbFifoFT245RL.o
 .text.usbfifoRxBufferFiller
                0x00000000       0x64 Coordinator_Rcb_Atmega128rfa1_8Mhz_Gcc/Obj/usbFifoFT245RL.o
 .text.usbfifoInit
                0x00000000       0x2c Coordinator_Rcb_Atmega128rfa1_8Mhz_Gcc/Obj/usbFifoFT245RL.o
 .text.usbfifoUnInit
                0x00000000       0x2a Coordinator_Rcb_Atmega128rfa1_8Mhz_Gcc/Obj/usbFifoFT245RL.o
 .text.usbfifoHandler
                0x00000000       0x66 Coordinator_Rcb_Atmega128rfa1_8Mhz_Gcc/Obj/usbFifoFT245RL.o
 .progmem.data  0x00000000        0x4 Coordinator_Rcb_Atmega128rfa1_8Mhz_Gcc/Obj/usbFifoFT245RL.o
 .text          0x00000000        0x0 Coordinator_Rcb_Atmega128rfa1_8Mhz_Gcc/Obj/leds.o
 .data          0x00000000        0x0 Coordinator_Rcb_Atmega128rfa1_8Mhz_Gcc/Obj/leds.o
 .bss           0x00000000        0x0 Coordinator_Rcb_Atmega128rfa1_8Mhz_Gcc/Obj/leds.o
 .text.BSP_CloseLeds
                0x00000000        0xc Coordinator_Rcb_Atmega128rfa1_8Mhz_Gcc/Obj/leds.o
 .text          0x00000000        0x0 Coordinator_Rcb_Atmega128rfa1_8Mhz_Gcc/Obj/bspTaskManager.o
 .data          0x00000000        0x0 Coordinator_Rcb_Atmega128rfa1_8Mhz_Gcc/Obj/bspTaskManager.o
 .text          0x00000000        0x0 Coordinator_Rcb_Atmega128rfa1_8Mhz_Gcc/Obj/buttons.o
 .data          0x00000000        0x0 Coordinator_Rcb_Atmega128rfa1_8Mhz_Gcc/Obj/buttons.o
 .text.bspKey0InterruptHandler
                0x00000000       0x3e Coordinator_Rcb_Atmega128rfa1_8Mhz_Gcc/Obj/buttons.o
 .text.BSP_OpenButtons
                0x00000000       0x54 Coordinator_Rcb_Atmega128rfa1_8Mhz_Gcc/Obj/buttons.o
 .text.BSP_CloseButtons
                0x00000000       0x2a Coordinator_Rcb_Atmega128rfa1_8Mhz_Gcc/Obj/buttons.o
 .text.BSP_ReadButtonsState
                0x00000000        0x8 Coordinator_Rcb_Atmega128rfa1_8Mhz_Gcc/Obj/buttons.o
 .text          0x00000000        0x0 Coordinator_Rcb_Atmega128rfa1_8Mhz_Gcc/Obj/fakeBSP.o
 .data          0x00000000        0x0 Coordinator_Rcb_Atmega128rfa1_8Mhz_Gcc/Obj/fakeBSP.o
 .bss           0x00000000        0x0 Coordinator_Rcb_Atmega128rfa1_8Mhz_Gcc/Obj/fakeBSP.o
 .text.BSP_OpenTemperatureSensor
                0x00000000        0x4 Coordinator_Rcb_Atmega128rfa1_8Mhz_Gcc/Obj/fakeBSP.o
 .text.BSP_CloseTemperatureSensor
                0x00000000        0x4 Coordinator_Rcb_Atmega128rfa1_8Mhz_Gcc/Obj/fakeBSP.o
 .text.BSP_ReadTemperatureData
                0x00000000       0x2e Coordinator_Rcb_Atmega128rfa1_8Mhz_Gcc/Obj/fakeBSP.o
 .text.BSP_OpenLightSensor
                0x00000000        0x4 Coordinator_Rcb_Atmega128rfa1_8Mhz_Gcc/Obj/fakeBSP.o
 .text.BSP_CloseLightSensor
                0x00000000        0x4 Coordinator_Rcb_Atmega128rfa1_8Mhz_Gcc/Obj/fakeBSP.o
 .text.BSP_ReadLightData
                0x00000000       0x2e Coordinator_Rcb_Atmega128rfa1_8Mhz_Gcc/Obj/fakeBSP.o
 .text.BSP_OpenBatterySensor
                0x00000000        0x4 Coordinator_Rcb_Atmega128rfa1_8Mhz_Gcc/Obj/fakeBSP.o
 .text.BSP_CloseBatterySensor
                0x00000000        0x4 Coordinator_Rcb_Atmega128rfa1_8Mhz_Gcc/Obj/fakeBSP.o
 .text.BSP_ReadBatteryData
                0x00000000       0x2e Coordinator_Rcb_Atmega128rfa1_8Mhz_Gcc/Obj/fakeBSP.o
 .text.BSP_ReadSliders
                0x00000000        0x4 Coordinator_Rcb_Atmega128rfa1_8Mhz_Gcc/Obj/fakeBSP.o
 .text.BSP_OpenJoystick
                0x00000000        0x4 Coordinator_Rcb_Atmega128rfa1_8Mhz_Gcc/Obj/fakeBSP.o
 .text.BSP_CloseJoystick
                0x00000000        0x4 Coordinator_Rcb_Atmega128rfa1_8Mhz_Gcc/Obj/fakeBSP.o
 .text.BSP_ReadJoystickState
                0x00000000        0x4 Coordinator_Rcb_Atmega128rfa1_8Mhz_Gcc/Obj/fakeBSP.o
 .text          0x00000000        0x0 Coordinator_Rcb_Atmega128rfa1_8Mhz_Gcc/Obj/csPersistentMem.o
 .data          0x00000000        0x0 Coordinator_Rcb_Atmega128rfa1_8Mhz_Gcc/Obj/csPersistentMem.o
 .bss           0x00000000        0x0 Coordinator_Rcb_Atmega128rfa1_8Mhz_Gcc/Obj/csPersistentMem.o
 .text          0x00000000        0x0 Coordinator_Rcb_Atmega128rfa1_8Mhz_Gcc/Obj/csMem.o
 .data          0x00000000        0x0 Coordinator_Rcb_Atmega128rfa1_8Mhz_Gcc/Obj/csMem.o
 .bss           0x00000000        0x0 Coordinator_Rcb_Atmega128rfa1_8Mhz_Gcc/Obj/csMem.o
 .text          0x00000000        0x0 Coordinator_Rcb_Atmega128rfa1_8Mhz_Gcc/Obj/configServer.o
 .data          0x00000000        0x0 Coordinator_Rcb_Atmega128rfa1_8Mhz_Gcc/Obj/configServer.o
 .bss           0x00000000        0x0 Coordinator_Rcb_Atmega128rfa1_8Mhz_Gcc/Obj/configServer.o
 .text.CS_PdsDefaultValue
                0x00000000       0xee Coordinator_Rcb_Atmega128rfa1_8Mhz_Gcc/Obj/configServer.o
 .text          0x00000000        0x0 ./../../../../BitCloud/lib/libHAL_RcbAtm128rfa1_Atmega128rfa1_8Mhz_Gcc.a(appTimer.o)
 .data          0x00000000        0x0 ./../../../../BitCloud/lib/libHAL_RcbAtm128rfa1_Atmega128rfa1_8Mhz_Gcc.a(appTimer.o)
 .text          0x00000000        0x0 ./../../../../BitCloud/lib/libHAL_RcbAtm128rfa1_Atmega128rfa1_8Mhz_Gcc.a(halTaskManager.o)
 .data          0x00000000        0x0 ./../../../../BitCloud/lib/libHAL_RcbAtm128rfa1_Atmega128rfa1_8Mhz_Gcc.a(halTaskManager.o)
 .text          0x00000000        0x0 ./../../../../BitCloud/lib/libHAL_RcbAtm128rfa1_Atmega128rfa1_8Mhz_Gcc.a(usart.o)
 .text.HAL_EnableDtrWakeUp
                0x00000000       0x10 ./../../../../BitCloud/lib/libHAL_RcbAtm128rfa1_Atmega128rfa1_8Mhz_Gcc.a(usart.o)
 .text.HAL_DisableDtrWakeUp
                0x00000000        0x6 ./../../../../BitCloud/lib/libHAL_RcbAtm128rfa1_Atmega128rfa1_8Mhz_Gcc.a(usart.o)
 .text.HAL_IsTxEmpty
                0x00000000       0x6c ./../../../../BitCloud/lib/libHAL_RcbAtm128rfa1_Atmega128rfa1_8Mhz_Gcc.a(usart.o)
 .text.HAL_ReadUsart
                0x00000000       0xc6 ./../../../../BitCloud/lib/libHAL_RcbAtm128rfa1_Atmega128rfa1_8Mhz_Gcc.a(usart.o)
 .text.HAL_CloseUsart
                0x00000000       0x7e ./../../../../BitCloud/lib/libHAL_RcbAtm128rfa1_Atmega128rfa1_8Mhz_Gcc.a(usart.o)
 .text          0x00000000        0x0 ./../../../../BitCloud/lib/libHAL_RcbAtm128rfa1_Atmega128rfa1_8Mhz_Gcc.a(irq.o)
 .data          0x00000000        0x0 ./../../../../BitCloud/lib/libHAL_RcbAtm128rfa1_Atmega128rfa1_8Mhz_Gcc.a(irq.o)
 .bss           0x00000000        0x0 ./../../../../BitCloud/lib/libHAL_RcbAtm128rfa1_Atmega128rfa1_8Mhz_Gcc.a(irq.o)
 .text.HAL_RegisterIrq
                0x00000000       0x5a ./../../../../BitCloud/lib/libHAL_RcbAtm128rfa1_Atmega128rfa1_8Mhz_Gcc.a(irq.o)
 .text.HAL_DisableIrq
                0x00000000       0x3e ./../../../../BitCloud/lib/libHAL_RcbAtm128rfa1_Atmega128rfa1_8Mhz_Gcc.a(irq.o)
 .text.HAL_UnregisterIrq
                0x00000000       0x50 ./../../../../BitCloud/lib/libHAL_RcbAtm128rfa1_Atmega128rfa1_8Mhz_Gcc.a(irq.o)
 .text          0x00000000        0x0 ./../../../../BitCloud/lib/libHAL_RcbAtm128rfa1_Atmega128rfa1_8Mhz_Gcc.a(i2cPacket.o)
 .data          0x00000000        0x0 ./../../../../BitCloud/lib/libHAL_RcbAtm128rfa1_Atmega128rfa1_8Mhz_Gcc.a(i2cPacket.o)
 .text.HAL_OpenI2cPacket
                0x00000000       0x40 ./../../../../BitCloud/lib/libHAL_RcbAtm128rfa1_Atmega128rfa1_8Mhz_Gcc.a(i2cPacket.o)
 .text.HAL_CloseI2cPacket
                0x00000000       0x32 ./../../../../BitCloud/lib/libHAL_RcbAtm128rfa1_Atmega128rfa1_8Mhz_Gcc.a(i2cPacket.o)
 .text.HAL_WriteI2cPacket
                0x00000000       0x52 ./../../../../BitCloud/lib/libHAL_RcbAtm128rfa1_Atmega128rfa1_8Mhz_Gcc.a(i2cPacket.o)
 .text.HAL_ReadI2cPacket
                0x00000000       0x52 ./../../../../BitCloud/lib/libHAL_RcbAtm128rfa1_Atmega128rfa1_8Mhz_Gcc.a(i2cPacket.o)
 .text          0x00000000        0x0 ./../../../../BitCloud/lib/libHAL_RcbAtm128rfa1_Atmega128rfa1_8Mhz_Gcc.a(eeprom.o)
 .data          0x00000000        0x0 ./../../../../BitCloud/lib/libHAL_RcbAtm128rfa1_Atmega128rfa1_8Mhz_Gcc.a(eeprom.o)
 .text          0x00000000        0x0 ./../../../../BitCloud/lib/libHAL_RcbAtm128rfa1_Atmega128rfa1_8Mhz_Gcc.a(timer.o)
 .data          0x00000000        0x0 ./../../../../BitCloud/lib/libHAL_RcbAtm128rfa1_Atmega128rfa1_8Mhz_Gcc.a(timer.o)
 .bss           0x00000000        0x0 ./../../../../BitCloud/lib/libHAL_RcbAtm128rfa1_Atmega128rfa1_8Mhz_Gcc.a(timer.o)
 .text          0x00000000        0x0 ./../../../../BitCloud/lib/libHAL_RcbAtm128rfa1_Atmega128rfa1_8Mhz_Gcc.a(adc.o)
 .data          0x00000000        0x0 ./../../../../BitCloud/lib/libHAL_RcbAtm128rfa1_Atmega128rfa1_8Mhz_Gcc.a(adc.o)
 .text.HAL_OpenAdc
                0x00000000       0x54 ./../../../../BitCloud/lib/libHAL_RcbAtm128rfa1_Atmega128rfa1_8Mhz_Gcc.a(adc.o)
 .text.HAL_ReadAdc
                0x00000000       0x2e ./../../../../BitCloud/lib/libHAL_RcbAtm128rfa1_Atmega128rfa1_8Mhz_Gcc.a(adc.o)
 .text.HAL_CloseAdc
                0x00000000       0x28 ./../../../../BitCloud/lib/libHAL_RcbAtm128rfa1_Atmega128rfa1_8Mhz_Gcc.a(adc.o)
 .text          0x00000000        0x0 ./../../../../BitCloud/lib/libHAL_RcbAtm128rfa1_Atmega128rfa1_8Mhz_Gcc.a(spi.o)
 .data          0x00000000        0x0 ./../../../../BitCloud/lib/libHAL_RcbAtm128rfa1_Atmega128rfa1_8Mhz_Gcc.a(spi.o)
 .bss           0x00000000        0x0 ./../../../../BitCloud/lib/libHAL_RcbAtm128rfa1_Atmega128rfa1_8Mhz_Gcc.a(spi.o)
 .text.isClosedPd
                0x00000000        0xc ./../../../../BitCloud/lib/libHAL_RcbAtm128rfa1_Atmega128rfa1_8Mhz_Gcc.a(spi.o)
 .text.isOpenedPd
                0x00000000        0xc ./../../../../BitCloud/lib/libHAL_RcbAtm128rfa1_Atmega128rfa1_8Mhz_Gcc.a(spi.o)
 .text.halCheckSpiDescriptor
                0x00000000       0x2a ./../../../../BitCloud/lib/libHAL_RcbAtm128rfa1_Atmega128rfa1_8Mhz_Gcc.a(spi.o)
 .text.halCheckUsartDescriptor
                0x00000000       0x5a ./../../../../BitCloud/lib/libHAL_RcbAtm128rfa1_Atmega128rfa1_8Mhz_Gcc.a(spi.o)
 .text.HAL_OpenSpi
                0x00000000       0x8c ./../../../../BitCloud/lib/libHAL_RcbAtm128rfa1_Atmega128rfa1_8Mhz_Gcc.a(spi.o)
 .text.HAL_CloseSpi
                0x00000000       0x64 ./../../../../BitCloud/lib/libHAL_RcbAtm128rfa1_Atmega128rfa1_8Mhz_Gcc.a(spi.o)
 .text.HAL_WriteSpi
                0x00000000      0x120 ./../../../../BitCloud/lib/libHAL_RcbAtm128rfa1_Atmega128rfa1_8Mhz_Gcc.a(spi.o)
 .text.HAL_ReadSpi
                0x00000000      0x146 ./../../../../BitCloud/lib/libHAL_RcbAtm128rfa1_Atmega128rfa1_8Mhz_Gcc.a(spi.o)
 .text          0x00000000        0x0 ./../../../../BitCloud/lib/libHAL_RcbAtm128rfa1_Atmega128rfa1_8Mhz_Gcc.a(halSleepTimerClock.o)
 .data          0x00000000        0x0 ./../../../../BitCloud/lib/libHAL_RcbAtm128rfa1_Atmega128rfa1_8Mhz_Gcc.a(halSleepTimerClock.o)
 .text          0x00000000        0x0 ./../../../../BitCloud/lib/libHAL_RcbAtm128rfa1_Atmega128rfa1_8Mhz_Gcc.a(halSecurityModule.o)
 .data          0x00000000        0x0 ./../../../../BitCloud/lib/libHAL_RcbAtm128rfa1_Atmega128rfa1_8Mhz_Gcc.a(halSecurityModule.o)
 .text.HAL_SmEncryptReq
                0x00000000       0x2e ./../../../../BitCloud/lib/libHAL_RcbAtm128rfa1_Atmega128rfa1_8Mhz_Gcc.a(halSecurityModule.o)
 .text          0x00000000        0x0 ./../../../../BitCloud/lib/libHAL_RcbAtm128rfa1_Atmega128rfa1_8Mhz_Gcc.a(halAppClock.o)
 .data          0x00000000        0x0 ./../../../../BitCloud/lib/libHAL_RcbAtm128rfa1_Atmega128rfa1_8Mhz_Gcc.a(halAppClock.o)
 .text.halGetSystemTimeUs
                0x00000000       0x58 ./../../../../BitCloud/lib/libHAL_RcbAtm128rfa1_Atmega128rfa1_8Mhz_Gcc.a(halAppClock.o)
 .text          0x00000000        0x0 ./../../../../BitCloud/lib/libHAL_RcbAtm128rfa1_Atmega128rfa1_8Mhz_Gcc.a(halUsart.o)
 .data          0x00000000        0x0 ./../../../../BitCloud/lib/libHAL_RcbAtm128rfa1_Atmega128rfa1_8Mhz_Gcc.a(halUsart.o)
 .bss           0x00000000        0x0 ./../../../../BitCloud/lib/libHAL_RcbAtm128rfa1_Atmega128rfa1_8Mhz_Gcc.a(halUsart.o)
 .text          0x00000000        0x0 ./../../../../BitCloud/lib/libHAL_RcbAtm128rfa1_Atmega128rfa1_8Mhz_Gcc.a(halIrq.o)
 .data          0x00000000        0x0 ./../../../../BitCloud/lib/libHAL_RcbAtm128rfa1_Atmega128rfa1_8Mhz_Gcc.a(halIrq.o)
 .text.halSetIrqConfig
                0x00000000       0xd0 ./../../../../BitCloud/lib/libHAL_RcbAtm128rfa1_Atmega128rfa1_8Mhz_Gcc.a(halIrq.o)
 .text.halClrIrqConfig
                0x00000000       0x7e ./../../../../BitCloud/lib/libHAL_RcbAtm128rfa1_Atmega128rfa1_8Mhz_Gcc.a(halIrq.o)
 .text          0x00000000        0x0 ./../../../../BitCloud/lib/libHAL_RcbAtm128rfa1_Atmega128rfa1_8Mhz_Gcc.a(halTwi.o)
 .data          0x00000000        0x0 ./../../../../BitCloud/lib/libHAL_RcbAtm128rfa1_Atmega128rfa1_8Mhz_Gcc.a(halTwi.o)
 .bss           0x00000000        0x0 ./../../../../BitCloud/lib/libHAL_RcbAtm128rfa1_Atmega128rfa1_8Mhz_Gcc.a(halTwi.o)
 .text.halInitI2c
                0x00000000        0xe ./../../../../BitCloud/lib/libHAL_RcbAtm128rfa1_Atmega128rfa1_8Mhz_Gcc.a(halTwi.o)
 .text          0x00000000        0x0 ./../../../../BitCloud/lib/libHAL_RcbAtm128rfa1_Atmega128rfa1_8Mhz_Gcc.a(halEeprom.o)
 .data          0x00000000        0x0 ./../../../../BitCloud/lib/libHAL_RcbAtm128rfa1_Atmega128rfa1_8Mhz_Gcc.a(halEeprom.o)
 .bss           0x00000000        0x0 ./../../../../BitCloud/lib/libHAL_RcbAtm128rfa1_Atmega128rfa1_8Mhz_Gcc.a(halEeprom.o)
 .text          0x00000000        0x0 ./../../../../BitCloud/lib/libHAL_RcbAtm128rfa1_Atmega128rfa1_8Mhz_Gcc.a(halSleep.o)
 .data          0x00000000        0x0 ./../../../../BitCloud/lib/libHAL_RcbAtm128rfa1_Atmega128rfa1_8Mhz_Gcc.a(halSleep.o)
 .text.HAL_IdleMode
                0x00000000        0xa ./../../../../BitCloud/lib/libHAL_RcbAtm128rfa1_Atmega128rfa1_8Mhz_Gcc.a(halSleep.o)
 .text          0x00000000        0x0 ./../../../../BitCloud/lib/libHAL_RcbAtm128rfa1_Atmega128rfa1_8Mhz_Gcc.a(halAdc.o)
 .data          0x00000000        0x0 ./../../../../BitCloud/lib/libHAL_RcbAtm128rfa1_Atmega128rfa1_8Mhz_Gcc.a(halAdc.o)
 .bss           0x00000000        0x0 ./../../../../BitCloud/lib/libHAL_RcbAtm128rfa1_Atmega128rfa1_8Mhz_Gcc.a(halAdc.o)
 .text.halOpenAdc
                0x00000000       0x56 ./../../../../BitCloud/lib/libHAL_RcbAtm128rfa1_Atmega128rfa1_8Mhz_Gcc.a(halAdc.o)
 .text.halStartAdc
                0x00000000       0xa6 ./../../../../BitCloud/lib/libHAL_RcbAtm128rfa1_Atmega128rfa1_8Mhz_Gcc.a(halAdc.o)
 .text.halCloseAdc
                0x00000000        0xe ./../../../../BitCloud/lib/libHAL_RcbAtm128rfa1_Atmega128rfa1_8Mhz_Gcc.a(halAdc.o)
 .progmem.data  0x00000000        0x5 ./../../../../BitCloud/lib/libHAL_RcbAtm128rfa1_Atmega128rfa1_8Mhz_Gcc.a(halAdc.o)
 .text          0x00000000        0x0 ./../../../../BitCloud/lib/libHAL_RcbAtm128rfa1_Atmega128rfa1_8Mhz_Gcc.a(halSpi.o)
 .data          0x00000000        0x0 ./../../../../BitCloud/lib/libHAL_RcbAtm128rfa1_Atmega128rfa1_8Mhz_Gcc.a(halSpi.o)
 .text.halSetUsartSpiConfig
                0x00000000       0x98 ./../../../../BitCloud/lib/libHAL_RcbAtm128rfa1_Atmega128rfa1_8Mhz_Gcc.a(halSpi.o)
 .text.halClearUsartSpi
                0x00000000       0x16 ./../../../../BitCloud/lib/libHAL_RcbAtm128rfa1_Atmega128rfa1_8Mhz_Gcc.a(halSpi.o)
 .text.halSetSlaveSpiConfig
                0x00000000       0x58 ./../../../../BitCloud/lib/libHAL_RcbAtm128rfa1_Atmega128rfa1_8Mhz_Gcc.a(halSpi.o)
 .text.halSyncUsartSpiWriteData
                0x00000000       0x3c ./../../../../BitCloud/lib/libHAL_RcbAtm128rfa1_Atmega128rfa1_8Mhz_Gcc.a(halSpi.o)
 .text.halSyncUsartSpiReadData
                0x00000000       0x3c ./../../../../BitCloud/lib/libHAL_RcbAtm128rfa1_Atmega128rfa1_8Mhz_Gcc.a(halSpi.o)
 .text          0x00000000        0x0 ./../../../../BitCloud/lib/libHAL_RcbAtm128rfa1_Atmega128rfa1_8Mhz_Gcc.a(calibration.o)
 .data          0x00000000        0x0 ./../../../../BitCloud/lib/libHAL_RcbAtm128rfa1_Atmega128rfa1_8Mhz_Gcc.a(calibration.o)
 .bss           0x00000000        0x0 ./../../../../BitCloud/lib/libHAL_RcbAtm128rfa1_Atmega128rfa1_8Mhz_Gcc.a(calibration.o)
 .data          0x00000000        0x0 ./../../../../BitCloud/lib/libHAL_RcbAtm128rfa1_Atmega128rfa1_8Mhz_Gcc.a(halW1.o)
 .bss           0x00000000        0x0 ./../../../../BitCloud/lib/libHAL_RcbAtm128rfa1_Atmega128rfa1_8Mhz_Gcc.a(halW1.o)
 .data          0x00000000        0x0 ./../../../../BitCloud/lib/libHAL_RcbAtm128rfa1_Atmega128rfa1_8Mhz_Gcc.a(halCalibration.o)
 .bss           0x00000000        0x0 ./../../../../BitCloud/lib/libHAL_RcbAtm128rfa1_Atmega128rfa1_8Mhz_Gcc.a(halCalibration.o)
 .text          0x00000000        0x0 ./../../../../BitCloud/lib/libHAL_RcbAtm128rfa1_Atmega128rfa1_8Mhz_Gcc.a(sleepTimer.o)
 .data          0x00000000        0x0 ./../../../../BitCloud/lib/libHAL_RcbAtm128rfa1_Atmega128rfa1_8Mhz_Gcc.a(sleepTimer.o)
 .bss           0x00000000        0x0 ./../../../../BitCloud/lib/libHAL_RcbAtm128rfa1_Atmega128rfa1_8Mhz_Gcc.a(sleepTimer.o)
 .text.HAL_StopSleepTimer
                0x00000000       0x24 ./../../../../BitCloud/lib/libHAL_RcbAtm128rfa1_Atmega128rfa1_8Mhz_Gcc.a(sleepTimer.o)
 .text          0x00000000        0x0 ./../../../../BitCloud/lib/libHAL_RcbAtm128rfa1_Atmega128rfa1_8Mhz_Gcc.a(sleep.o)
 .data          0x00000000        0x0 ./../../../../BitCloud/lib/libHAL_RcbAtm128rfa1_Atmega128rfa1_8Mhz_Gcc.a(sleep.o)
 .text          0x00000000        0x0 ./../../../../BitCloud/lib/libHAL_RcbAtm128rfa1_Atmega128rfa1_8Mhz_Gcc.a(halClkCtrl.o)
 .data          0x00000000        0x0 ./../../../../BitCloud/lib/libHAL_RcbAtm128rfa1_Atmega128rfa1_8Mhz_Gcc.a(halClkCtrl.o)
 .text.HAL_ReadFreq
                0x00000000        0xa ./../../../../BitCloud/lib/libHAL_RcbAtm128rfa1_Atmega128rfa1_8Mhz_Gcc.a(halClkCtrl.o)
 .text          0x00000000        0x0 ./../../../../BitCloud/lib/libBc_Coordinator_Atmega128rfa1_Atmega128rfa1_Gcc.a(aps.o)
 .data          0x00000000        0x0 ./../../../../BitCloud/lib/libBc_Coordinator_Atmega128rfa1_Atmega128rfa1_Gcc.a(aps.o)
 .text.APS_DeactivateBindRecords
                0x00000000       0x5a ./../../../../BitCloud/lib/libBc_Coordinator_Atmega128rfa1_Atmega128rfa1_Gcc.a(aps.o)
 .text.APS_ActivateBindRecords
                0x00000000       0x5a ./../../../../BitCloud/lib/libBc_Coordinator_Atmega128rfa1_Atmega128rfa1_Gcc.a(aps.o)
 .text.APS_NextBindingEntry
                0x00000000       0x46 ./../../../../BitCloud/lib/libBc_Coordinator_Atmega128rfa1_Atmega128rfa1_Gcc.a(aps.o)
 .text.APS_UnregisterEndpointReq
                0x00000000       0x2c ./../../../../BitCloud/lib/libBc_Coordinator_Atmega128rfa1_Atmega128rfa1_Gcc.a(aps.o)
 .text.apsSetNoIndicationFlag
                0x00000000       0x42 ./../../../../BitCloud/lib/libBc_Coordinator_Atmega128rfa1_Atmega128rfa1_Gcc.a(aps.o)
 .text.APS_StopEndpointIndication
                0x00000000        0x8 ./../../../../BitCloud/lib/libBc_Coordinator_Atmega128rfa1_Atmega128rfa1_Gcc.a(aps.o)
 .text.APS_ResumeEndpointIndication
                0x00000000        0x8 ./../../../../BitCloud/lib/libBc_Coordinator_Atmega128rfa1_Atmega128rfa1_Gcc.a(aps.o)
 .text.APS_AddGroupReq
                0x00000000       0x22 ./../../../../BitCloud/lib/libBc_Coordinator_Atmega128rfa1_Atmega128rfa1_Gcc.a(aps.o)
 .text.APS_RemoveGroupReq
                0x00000000       0x22 ./../../../../BitCloud/lib/libBc_Coordinator_Atmega128rfa1_Atmega128rfa1_Gcc.a(aps.o)
 .text.APS_RemoveAllGroupsReq
                0x00000000       0x1e ./../../../../BitCloud/lib/libBc_Coordinator_Atmega128rfa1_Atmega128rfa1_Gcc.a(aps.o)
 .text.APS_IsStarted
                0x00000000       0x16 ./../../../../BitCloud/lib/libBc_Coordinator_Atmega128rfa1_Atmega128rfa1_Gcc.a(aps.o)
 .text          0x00000000        0x0 ./../../../../BitCloud/lib/libBc_Coordinator_Atmega128rfa1_Atmega128rfa1_Gcc.a(macenvPib.o)
 .data          0x00000000        0x0 ./../../../../BitCloud/lib/libBc_Coordinator_Atmega128rfa1_Atmega128rfa1_Gcc.a(macenvPib.o)
 .bss           0x00000000        0x0 ./../../../../BitCloud/lib/libBc_Coordinator_Atmega128rfa1_Atmega128rfa1_Gcc.a(macenvPib.o)
 .text          0x00000000        0x0 ./../../../../BitCloud/lib/libBc_Coordinator_Atmega128rfa1_Atmega128rfa1_Gcc.a(nwk.o)
 .bss           0x00000000       0x12 ./../../../../BitCloud/lib/libBc_Coordinator_Atmega128rfa1_Atmega128rfa1_Gcc.a(nwk.o)
 .text.nwkAddressMacSetConf
                0x00000000       0x5a ./../../../../BitCloud/lib/libBc_Coordinator_Atmega128rfa1_Atmega128rfa1_Gcc.a(nwk.o)
 .text.NWK_SetShortAddr
                0x00000000       0x52 ./../../../../BitCloud/lib/libBc_Coordinator_Atmega128rfa1_Atmega128rfa1_Gcc.a(nwk.o)
 .text.NWK_NetworkDiscoveryReq
                0x00000000       0x20 ./../../../../BitCloud/lib/libBc_Coordinator_Atmega128rfa1_Atmega128rfa1_Gcc.a(nwk.o)
 .text.NWK_AddGroup
                0x00000000       0x36 ./../../../../BitCloud/lib/libBc_Coordinator_Atmega128rfa1_Atmega128rfa1_Gcc.a(nwk.o)
 .text.NWK_RemoveGroup
                0x00000000       0x58 ./../../../../BitCloud/lib/libBc_Coordinator_Atmega128rfa1_Atmega128rfa1_Gcc.a(nwk.o)
 .text.NWK_RemoveAllGroups
                0x00000000       0x42 ./../../../../BitCloud/lib/libBc_Coordinator_Atmega128rfa1_Atmega128rfa1_Gcc.a(nwk.o)
 .text.NWK_GroupCapacity
                0x00000000       0x24 ./../../../../BitCloud/lib/libBc_Coordinator_Atmega128rfa1_Atmega128rfa1_Gcc.a(nwk.o)
 .text.NWK_NextGroup
                0x00000000       0x32 ./../../../../BitCloud/lib/libBc_Coordinator_Atmega128rfa1_Atmega128rfa1_Gcc.a(nwk.o)
 .text.NWK_GetUpdateId
                0x00000000        0x6 ./../../../../BitCloud/lib/libBc_Coordinator_Atmega128rfa1_Atmega128rfa1_Gcc.a(nwk.o)
 .text.NWK_SetSymLink
                0x00000000        0x6 ./../../../../BitCloud/lib/libBc_Coordinator_Atmega128rfa1_Atmega128rfa1_Gcc.a(nwk.o)
 .text.NWK_GetProtocolVersion
                0x00000000        0x6 ./../../../../BitCloud/lib/libBc_Coordinator_Atmega128rfa1_Atmega128rfa1_Gcc.a(nwk.o)
 .text.NWK_FindAnyRouteAtFirstTime
                0x00000000        0x6 ./../../../../BitCloud/lib/libBc_Coordinator_Atmega128rfa1_Atmega128rfa1_Gcc.a(nwk.o)
 .text.NWK_NextEDChild
                0x00000000       0x46 ./../../../../BitCloud/lib/libBc_Coordinator_Atmega128rfa1_Atmega128rfa1_Gcc.a(nwk.o)
 .text.NWK_GetNeighborsRssi
                0x00000000       0x3e ./../../../../BitCloud/lib/libBc_Coordinator_Atmega128rfa1_Atmega128rfa1_Gcc.a(nwk.o)
 .text.NWK_SetRejoinPermit
                0x00000000        0xa ./../../../../BitCloud/lib/libBc_Coordinator_Atmega128rfa1_Atmega128rfa1_Gcc.a(nwk.o)
 .text.NWK_GetNextHop
                0x00000000       0x4c ./../../../../BitCloud/lib/libBc_Coordinator_Atmega128rfa1_Atmega128rfa1_Gcc.a(nwk.o)
 .text.NWK_SetFailRouteOrder
                0x00000000       0x10 ./../../../../BitCloud/lib/libBc_Coordinator_Atmega128rfa1_Atmega128rfa1_Gcc.a(nwk.o)
 .text          0x00000000        0x0 ./../../../../BitCloud/lib/libBc_Coordinator_Atmega128rfa1_Atmega128rfa1_Gcc.a(phyRxTxIndicator.o)
 .data          0x00000000        0x0 ./../../../../BitCloud/lib/libBc_Coordinator_Atmega128rfa1_Atmega128rfa1_Gcc.a(phyRxTxIndicator.o)
 .bss           0x00000000        0x0 ./../../../../BitCloud/lib/libBc_Coordinator_Atmega128rfa1_Atmega128rfa1_Gcc.a(phyRxTxIndicator.o)
 .text          0x00000000        0x0 ./../../../../BitCloud/lib/libBc_Coordinator_Atmega128rfa1_Atmega128rfa1_Gcc.a(phyStateMachine.o)
 .data          0x00000000        0x0 ./../../../../BitCloud/lib/libBc_Coordinator_Atmega128rfa1_Atmega128rfa1_Gcc.a(phyStateMachine.o)
 .text          0x00000000        0x0 ./../../../../BitCloud/lib/libBc_Coordinator_Atmega128rfa1_Atmega128rfa1_Gcc.a(queue.o)
 .data          0x00000000        0x0 ./../../../../BitCloud/lib/libBc_Coordinator_Atmega128rfa1_Atmega128rfa1_Gcc.a(queue.o)
 .bss           0x00000000        0x0 ./../../../../BitCloud/lib/libBc_Coordinator_Atmega128rfa1_Atmega128rfa1_Gcc.a(queue.o)
 .text          0x00000000        0x0 ./../../../../BitCloud/lib/libBc_Coordinator_Atmega128rfa1_Atmega128rfa1_Gcc.a(sysDuplicateTable.o)
 .data          0x00000000        0x0 ./../../../../BitCloud/lib/libBc_Coordinator_Atmega128rfa1_Atmega128rfa1_Gcc.a(sysDuplicateTable.o)
 .bss           0x00000000        0x0 ./../../../../BitCloud/lib/libBc_Coordinator_Atmega128rfa1_Atmega128rfa1_Gcc.a(sysDuplicateTable.o)
 .text          0x00000000        0x0 ./../../../../BitCloud/lib/libBc_Coordinator_Atmega128rfa1_Atmega128rfa1_Gcc.a(sysEvents.o)
 .data          0x00000000        0x0 ./../../../../BitCloud/lib/libBc_Coordinator_Atmega128rfa1_Atmega128rfa1_Gcc.a(sysEvents.o)
 .text.SYS_UnsubscribeFromEvent
                0x00000000       0x7c ./../../../../BitCloud/lib/libBc_Coordinator_Atmega128rfa1_Atmega128rfa1_Gcc.a(sysEvents.o)
 .text          0x00000000        0x0 ./../../../../BitCloud/lib/libBc_Coordinator_Atmega128rfa1_Atmega128rfa1_Gcc.a(sysTimer.o)
 .data          0x00000000        0x0 ./../../../../BitCloud/lib/libBc_Coordinator_Atmega128rfa1_Atmega128rfa1_Gcc.a(sysTimer.o)
 .bss           0x00000000        0x0 ./../../../../BitCloud/lib/libBc_Coordinator_Atmega128rfa1_Atmega128rfa1_Gcc.a(sysTimer.o)
 .text          0x00000000        0x0 ./../../../../BitCloud/lib/libBc_Coordinator_Atmega128rfa1_Atmega128rfa1_Gcc.a(taskManager.o)
 .text          0x00000000        0x0 ./../../../../BitCloud/lib/libBc_Coordinator_Atmega128rfa1_Atmega128rfa1_Gcc.a(zdo.o)
 .bss           0x00000000        0x0 ./../../../../BitCloud/lib/libBc_Coordinator_Atmega128rfa1_Atmega128rfa1_Gcc.a(zdo.o)
 .text.setTxPowerConf
                0x00000000       0x30 ./../../../../BitCloud/lib/libBc_Coordinator_Atmega128rfa1_Atmega128rfa1_Gcc.a(zdo.o)
 .text.zdoResetNetworkConf
                0x00000000       0x3c ./../../../../BitCloud/lib/libBc_Coordinator_Atmega128rfa1_Atmega128rfa1_Gcc.a(zdo.o)
 .text.ZDO_GetNwkStatus
                0x00000000       0x10 ./../../../../BitCloud/lib/libBc_Coordinator_Atmega128rfa1_Atmega128rfa1_Gcc.a(zdo.o)
 .text.ZDO_NotifyGeneral
                0x00000000        0x6 ./../../../../BitCloud/lib/libBc_Coordinator_Atmega128rfa1_Atmega128rfa1_Gcc.a(zdo.o)
 .text.ZDO_GetLqiRssi
                0x00000000       0x36 ./../../../../BitCloud/lib/libBc_Coordinator_Atmega128rfa1_Atmega128rfa1_Gcc.a(zdo.o)
 .text.ZDO_GetParentAddr
                0x00000000       0x62 ./../../../../BitCloud/lib/libBc_Coordinator_Atmega128rfa1_Atmega128rfa1_Gcc.a(zdo.o)
 .text.ZDO_GetChildrenAddr
                0x00000000       0xd0 ./../../../../BitCloud/lib/libBc_Coordinator_Atmega128rfa1_Atmega128rfa1_Gcc.a(zdo.o)
 .text.ZDO_SetTxPowerReq
                0x00000000       0x4c ./../../../../BitCloud/lib/libBc_Coordinator_Atmega128rfa1_Atmega128rfa1_Gcc.a(zdo.o)
 .text.ZDO_GetNeibAmount
                0x00000000       0x66 ./../../../../BitCloud/lib/libBc_Coordinator_Atmega128rfa1_Atmega128rfa1_Gcc.a(zdo.o)
 .text.ZDO_GetNeibTable
                0x00000000      0x176 ./../../../../BitCloud/lib/libBc_Coordinator_Atmega128rfa1_Atmega128rfa1_Gcc.a(zdo.o)
 .text.ZDO_SleepReq
                0x00000000       0x3a ./../../../../BitCloud/lib/libBc_Coordinator_Atmega128rfa1_Atmega128rfa1_Gcc.a(zdo.o)
 .text.ZDO_WakeUpReq
                0x00000000       0x1e ./../../../../BitCloud/lib/libBc_Coordinator_Atmega128rfa1_Atmega128rfa1_Gcc.a(zdo.o)
 .text.ZDO_SoftwareResetReq
                0x00000000       0x18 ./../../../../BitCloud/lib/libBc_Coordinator_Atmega128rfa1_Atmega128rfa1_Gcc.a(zdo.o)
 .text.ZDO_ResetNetworkReq
                0x00000000       0x2a ./../../../../BitCloud/lib/libBc_Coordinator_Atmega128rfa1_Atmega128rfa1_Gcc.a(zdo.o)
 .text.zdoAuthenticationStart
                0x00000000        0x2 ./../../../../BitCloud/lib/libBc_Coordinator_Atmega128rfa1_Atmega128rfa1_Gcc.a(zdo.o)
 .text.zdoAuthenticationConf
                0x00000000        0x2 ./../../../../BitCloud/lib/libBc_Coordinator_Atmega128rfa1_Atmega128rfa1_Gcc.a(zdo.o)
 .text.NWK_NwkStatusInd
                0x00000000       0xa6 ./../../../../BitCloud/lib/libBc_Coordinator_Atmega128rfa1_Atmega128rfa1_Gcc.a(zdo.o)
 .text          0x00000000        0x0 ./../../../../BitCloud/lib/libBc_Coordinator_Atmega128rfa1_Atmega128rfa1_Gcc.a(bcSysSleep.o)
 .data          0x00000000        0x0 ./../../../../BitCloud/lib/libBc_Coordinator_Atmega128rfa1_Atmega128rfa1_Gcc.a(bcSysSleep.o)
 .bss           0x00000000        0x0 ./../../../../BitCloud/lib/libBc_Coordinator_Atmega128rfa1_Atmega128rfa1_Gcc.a(bcSysSleep.o)
 .text          0x00000000        0x0 ./../../../../BitCloud/lib/libBc_Coordinator_Atmega128rfa1_Atmega128rfa1_Gcc.a(macMem.o)
 .data          0x00000000        0x0 ./../../../../BitCloud/lib/libBc_Coordinator_Atmega128rfa1_Atmega128rfa1_Gcc.a(macMem.o)
 .bss           0x00000000        0x0 ./../../../../BitCloud/lib/libBc_Coordinator_Atmega128rfa1_Atmega128rfa1_Gcc.a(macMem.o)
 .text          0x00000000        0x0 ./../../../../BitCloud/lib/libBc_Coordinator_Atmega128rfa1_Atmega128rfa1_Gcc.a(machwdManager.o)
 .data          0x00000000        0x0 ./../../../../BitCloud/lib/libBc_Coordinator_Atmega128rfa1_Atmega128rfa1_Gcc.a(machwdManager.o)
 .text.RF_RandomSeqReq
                0x00000000        0xc ./../../../../BitCloud/lib/libBc_Coordinator_Atmega128rfa1_Atmega128rfa1_Gcc.a(machwdManager.o)
 .text.RF_CalibrationReq
                0x00000000        0xc ./../../../../BitCloud/lib/libBc_Coordinator_Atmega128rfa1_Atmega128rfa1_Gcc.a(machwdManager.o)
 .text.RF_RegWriteReq
                0x00000000        0xc ./../../../../BitCloud/lib/libBc_Coordinator_Atmega128rfa1_Atmega128rfa1_Gcc.a(machwdManager.o)
 .text.RF_RegReadReq
                0x00000000        0xc ./../../../../BitCloud/lib/libBc_Coordinator_Atmega128rfa1_Atmega128rfa1_Gcc.a(machwdManager.o)
 .text          0x00000000        0x0 ./../../../../BitCloud/lib/libBc_Coordinator_Atmega128rfa1_Atmega128rfa1_Gcc.a(machwdRegAccessHandler.o)
 .data          0x00000000        0x0 ./../../../../BitCloud/lib/libBc_Coordinator_Atmega128rfa1_Atmega128rfa1_Gcc.a(machwdRegAccessHandler.o)
 .text.machwdResetRegAccessHandler
                0x00000000        0x6 ./../../../../BitCloud/lib/libBc_Coordinator_Atmega128rfa1_Atmega128rfa1_Gcc.a(machwdRegAccessHandler.o)
 .text          0x00000000        0x0 ./../../../../BitCloud/lib/libBc_Coordinator_Atmega128rfa1_Atmega128rfa1_Gcc.a(machwdResetHandler.o)
 .data          0x00000000        0x0 ./../../../../BitCloud/lib/libBc_Coordinator_Atmega128rfa1_Atmega128rfa1_Gcc.a(machwdResetHandler.o)
 .bss           0x00000000        0x0 ./../../../../BitCloud/lib/libBc_Coordinator_Atmega128rfa1_Atmega128rfa1_Gcc.a(machwdResetHandler.o)
 .text          0x00000000        0x0 ./../../../../BitCloud/lib/libBc_Coordinator_Atmega128rfa1_Atmega128rfa1_Gcc.a(machwdRndHandler.o)
 .data          0x00000000        0x0 ./../../../../BitCloud/lib/libBc_Coordinator_Atmega128rfa1_Atmega128rfa1_Gcc.a(machwdRndHandler.o)
 .text          0x00000000        0x0 ./../../../../BitCloud/lib/libBc_Coordinator_Atmega128rfa1_Atmega128rfa1_Gcc.a(machwdRxBuffer.o)
 .data          0x00000000        0x0 ./../../../../BitCloud/lib/libBc_Coordinator_Atmega128rfa1_Atmega128rfa1_Gcc.a(machwdRxBuffer.o)
 .bss           0x00000000        0x0 ./../../../../BitCloud/lib/libBc_Coordinator_Atmega128rfa1_Atmega128rfa1_Gcc.a(machwdRxBuffer.o)
 .text          0x00000000        0x0 ./../../../../BitCloud/lib/libBc_Coordinator_Atmega128rfa1_Atmega128rfa1_Gcc.a(machwdRxFrameHandler.o)
 .data          0x00000000        0x0 ./../../../../BitCloud/lib/libBc_Coordinator_Atmega128rfa1_Atmega128rfa1_Gcc.a(machwdRxFrameHandler.o)
 .bss           0x00000000        0x0 ./../../../../BitCloud/lib/libBc_Coordinator_Atmega128rfa1_Atmega128rfa1_Gcc.a(machwdRxFrameHandler.o)
 .text          0x00000000        0x0 ./../../../../BitCloud/lib/libBc_Coordinator_Atmega128rfa1_Atmega128rfa1_Gcc.a(machwdSetHandler.o)
 .data          0x00000000        0x0 ./../../../../BitCloud/lib/libBc_Coordinator_Atmega128rfa1_Atmega128rfa1_Gcc.a(machwdSetHandler.o)
 .text.machwdIsBeaconRxMode
                0x00000000        0x6 ./../../../../BitCloud/lib/libBc_Coordinator_Atmega128rfa1_Atmega128rfa1_Gcc.a(machwdSetHandler.o)
 .text          0x00000000        0x0 ./../../../../BitCloud/lib/libBc_Coordinator_Atmega128rfa1_Atmega128rfa1_Gcc.a(machwdTrxCtrl.o)
 .bss           0x00000000        0x0 ./../../../../BitCloud/lib/libBc_Coordinator_Atmega128rfa1_Atmega128rfa1_Gcc.a(machwdTrxCtrl.o)
 .text          0x00000000        0x0 ./../../../../BitCloud/lib/libBc_Coordinator_Atmega128rfa1_Atmega128rfa1_Gcc.a(machwdTrxHandler.o)
 .data          0x00000000        0x0 ./../../../../BitCloud/lib/libBc_Coordinator_Atmega128rfa1_Atmega128rfa1_Gcc.a(machwdTrxHandler.o)
 .text          0x00000000        0x0 ./../../../../BitCloud/lib/libBc_Coordinator_Atmega128rfa1_Atmega128rfa1_Gcc.a(machwdTxFrameHandler.o)
 .data          0x00000000        0x0 ./../../../../BitCloud/lib/libBc_Coordinator_Atmega128rfa1_Atmega128rfa1_Gcc.a(machwdTxFrameHandler.o)
 .text          0x00000000        0x0 ./../../../../BitCloud/lib/libBc_Coordinator_Atmega128rfa1_Atmega128rfa1_Gcc.a(machwiManager.o)
 .data          0x00000000        0x0 ./../../../../BitCloud/lib/libBc_Coordinator_Atmega128rfa1_Atmega128rfa1_Gcc.a(machwiManager.o)
 .bss           0x00000000        0x0 ./../../../../BitCloud/lib/libBc_Coordinator_Atmega128rfa1_Atmega128rfa1_Gcc.a(machwiManager.o)
 .text.MAC_AssociateReq
                0x00000000        0xc ./../../../../BitCloud/lib/libBc_Coordinator_Atmega128rfa1_Atmega128rfa1_Gcc.a(machwiManager.o)
 .text.MAC_OrphanResp
                0x00000000        0xc ./../../../../BitCloud/lib/libBc_Coordinator_Atmega128rfa1_Atmega128rfa1_Gcc.a(machwiManager.o)
 .text.MAC_GetReq
                0x00000000        0xc ./../../../../BitCloud/lib/libBc_Coordinator_Atmega128rfa1_Atmega128rfa1_Gcc.a(machwiManager.o)
 .text.MAC_PollReq
                0x00000000        0xc ./../../../../BitCloud/lib/libBc_Coordinator_Atmega128rfa1_Atmega128rfa1_Gcc.a(machwiManager.o)
 .text.MAC_PurgeReq
                0x00000000        0xc ./../../../../BitCloud/lib/libBc_Coordinator_Atmega128rfa1_Atmega128rfa1_Gcc.a(machwiManager.o)
 .text          0x00000000        0x0 ./../../../../BitCloud/lib/libBc_Coordinator_Atmega128rfa1_Atmega128rfa1_Gcc.a(machwiOrphanHandler.o)
 .data          0x00000000        0x0 ./../../../../BitCloud/lib/libBc_Coordinator_Atmega128rfa1_Atmega128rfa1_Gcc.a(machwiOrphanHandler.o)
 .bss           0x00000000        0x0 ./../../../../BitCloud/lib/libBc_Coordinator_Atmega128rfa1_Atmega128rfa1_Gcc.a(machwiOrphanHandler.o)
 .text          0x00000000        0x0 ./../../../../BitCloud/lib/libBc_Coordinator_Atmega128rfa1_Atmega128rfa1_Gcc.a(machwiPanServer.o)
 .data          0x00000000        0x0 ./../../../../BitCloud/lib/libBc_Coordinator_Atmega128rfa1_Atmega128rfa1_Gcc.a(machwiPanServer.o)
 .bss           0x00000000        0x0 ./../../../../BitCloud/lib/libBc_Coordinator_Atmega128rfa1_Atmega128rfa1_Gcc.a(machwiPanServer.o)
 .text          0x00000000        0x0 ./../../../../BitCloud/lib/libBc_Coordinator_Atmega128rfa1_Atmega128rfa1_Gcc.a(machwiPollHandler.o)
 .data          0x00000000        0x0 ./../../../../BitCloud/lib/libBc_Coordinator_Atmega128rfa1_Atmega128rfa1_Gcc.a(machwiPollHandler.o)
 .bss           0x00000000        0x0 ./../../../../BitCloud/lib/libBc_Coordinator_Atmega128rfa1_Atmega128rfa1_Gcc.a(machwiPollHandler.o)
 .text          0x00000000        0x0 ./../../../../BitCloud/lib/libBc_Coordinator_Atmega128rfa1_Atmega128rfa1_Gcc.a(machwiPurgeHandler.o)
 .data          0x00000000        0x0 ./../../../../BitCloud/lib/libBc_Coordinator_Atmega128rfa1_Atmega128rfa1_Gcc.a(machwiPurgeHandler.o)
 .bss           0x00000000        0x0 ./../../../../BitCloud/lib/libBc_Coordinator_Atmega128rfa1_Atmega128rfa1_Gcc.a(machwiPurgeHandler.o)
 .text          0x00000000        0x0 ./../../../../BitCloud/lib/libBc_Coordinator_Atmega128rfa1_Atmega128rfa1_Gcc.a(machwiResetHandler.o)
 .data          0x00000000        0x0 ./../../../../BitCloud/lib/libBc_Coordinator_Atmega128rfa1_Atmega128rfa1_Gcc.a(machwiResetHandler.o)
 .bss           0x00000000        0x0 ./../../../../BitCloud/lib/libBc_Coordinator_Atmega128rfa1_Atmega128rfa1_Gcc.a(machwiResetHandler.o)
 .text          0x00000000        0x0 ./../../../../BitCloud/lib/libBc_Coordinator_Atmega128rfa1_Atmega128rfa1_Gcc.a(machwiRxEnableHandler.o)
 .data          0x00000000        0x0 ./../../../../BitCloud/lib/libBc_Coordinator_Atmega128rfa1_Atmega128rfa1_Gcc.a(machwiRxEnableHandler.o)
 .bss           0x00000000        0x0 ./../../../../BitCloud/lib/libBc_Coordinator_Atmega128rfa1_Atmega128rfa1_Gcc.a(machwiRxEnableHandler.o)
 .text          0x00000000        0x0 ./../../../../BitCloud/lib/libBc_Coordinator_Atmega128rfa1_Atmega128rfa1_Gcc.a(machwiScanHandler.o)
 .data          0x00000000        0x0 ./../../../../BitCloud/lib/libBc_Coordinator_Atmega128rfa1_Atmega128rfa1_Gcc.a(machwiScanHandler.o)
 .text          0x00000000        0x0 ./../../../../BitCloud/lib/libBc_Coordinator_Atmega128rfa1_Atmega128rfa1_Gcc.a(machwiSetGetHandler.o)
 .bss           0x00000000        0x0 ./../../../../BitCloud/lib/libBc_Coordinator_Atmega128rfa1_Atmega128rfa1_Gcc.a(machwiSetGetHandler.o)
 .text          0x00000000        0x0 ./../../../../BitCloud/lib/libBc_Coordinator_Atmega128rfa1_Atmega128rfa1_Gcc.a(machwiStartHandler.o)
 .data          0x00000000        0x0 ./../../../../BitCloud/lib/libBc_Coordinator_Atmega128rfa1_Atmega128rfa1_Gcc.a(machwiStartHandler.o)
 .bss           0x00000000        0x0 ./../../../../BitCloud/lib/libBc_Coordinator_Atmega128rfa1_Atmega128rfa1_Gcc.a(machwiStartHandler.o)
 .text          0x00000000        0x0 ./../../../../BitCloud/lib/libBc_Coordinator_Atmega128rfa1_Atmega128rfa1_Gcc.a(machwiSwitchRxCtrl.o)
 .data          0x00000000        0x0 ./../../../../BitCloud/lib/libBc_Coordinator_Atmega128rfa1_Atmega128rfa1_Gcc.a(machwiSwitchRxCtrl.o)
 .bss           0x00000000        0x0 ./../../../../BitCloud/lib/libBc_Coordinator_Atmega128rfa1_Atmega128rfa1_Gcc.a(machwiSwitchRxCtrl.o)
 .text          0x00000000        0x0 ./../../../../BitCloud/lib/libBc_Coordinator_Atmega128rfa1_Atmega128rfa1_Gcc.a(machwiTransactionHandler.o)
 .data          0x00000000        0x0 ./../../../../BitCloud/lib/libBc_Coordinator_Atmega128rfa1_Atmega128rfa1_Gcc.a(machwiTransactionHandler.o)
 .bss           0x00000000        0x0 ./../../../../BitCloud/lib/libBc_Coordinator_Atmega128rfa1_Atmega128rfa1_Gcc.a(machwiTransactionHandler.o)
 .text          0x00000000        0x0 ./../../../../BitCloud/lib/libBc_Coordinator_Atmega128rfa1_Atmega128rfa1_Gcc.a(machwiTransactionQueue.o)
 .data          0x00000000        0x0 ./../../../../BitCloud/lib/libBc_Coordinator_Atmega128rfa1_Atmega128rfa1_Gcc.a(machwiTransactionQueue.o)
 .bss           0x00000000        0x0 ./../../../../BitCloud/lib/libBc_Coordinator_Atmega128rfa1_Atmega128rfa1_Gcc.a(machwiTransactionQueue.o)
 .text          0x00000000        0x0 ./../../../../BitCloud/lib/libBc_Coordinator_Atmega128rfa1_Atmega128rfa1_Gcc.a(phyInit.o)
 .data          0x00000000        0x0 ./../../../../BitCloud/lib/libBc_Coordinator_Atmega128rfa1_Atmega128rfa1_Gcc.a(phyInit.o)
 .bss           0x00000000        0x0 ./../../../../BitCloud/lib/libBc_Coordinator_Atmega128rfa1_Atmega128rfa1_Gcc.a(phyInit.o)
 .text          0x00000000        0x0 ./../../../../BitCloud/lib/libBc_Coordinator_Atmega128rfa1_Atmega128rfa1_Gcc.a(phyRegAccess.o)
 .data          0x00000000        0x0 ./../../../../BitCloud/lib/libBc_Coordinator_Atmega128rfa1_Atmega128rfa1_Gcc.a(phyRegAccess.o)
 .bss           0x00000000        0x0 ./../../../../BitCloud/lib/libBc_Coordinator_Atmega128rfa1_Atmega128rfa1_Gcc.a(phyRegAccess.o)
 .text          0x00000000        0x0 ./../../../../BitCloud/lib/libBc_Coordinator_Atmega128rfa1_Atmega128rfa1_Gcc.a(phyReset.o)
 .data          0x00000000        0x0 ./../../../../BitCloud/lib/libBc_Coordinator_Atmega128rfa1_Atmega128rfa1_Gcc.a(phyReset.o)
 .bss           0x00000000        0x0 ./../../../../BitCloud/lib/libBc_Coordinator_Atmega128rfa1_Atmega128rfa1_Gcc.a(phyReset.o)
 .text          0x00000000        0x0 ./../../../../BitCloud/lib/libBc_Coordinator_Atmega128rfa1_Atmega128rfa1_Gcc.a(phyRfIrqDispatcher.o)
 .text          0x00000000        0x0 ./../../../../BitCloud/lib/libBc_Coordinator_Atmega128rfa1_Atmega128rfa1_Gcc.a(phyRnd.o)
 .data          0x00000000        0x0 ./../../../../BitCloud/lib/libBc_Coordinator_Atmega128rfa1_Atmega128rfa1_Gcc.a(phyRnd.o)
 .bss           0x00000000        0x0 ./../../../../BitCloud/lib/libBc_Coordinator_Atmega128rfa1_Atmega128rfa1_Gcc.a(phyRnd.o)
 .text          0x00000000        0x0 ./../../../../BitCloud/lib/libBc_Coordinator_Atmega128rfa1_Atmega128rfa1_Gcc.a(phyRxFrame.o)
 .data          0x00000000        0x0 ./../../../../BitCloud/lib/libBc_Coordinator_Atmega128rfa1_Atmega128rfa1_Gcc.a(phyRxFrame.o)
 .bss           0x00000000        0x0 ./../../../../BitCloud/lib/libBc_Coordinator_Atmega128rfa1_Atmega128rfa1_Gcc.a(phyRxFrame.o)
 .text          0x00000000        0x0 ./../../../../BitCloud/lib/libBc_Coordinator_Atmega128rfa1_Atmega128rfa1_Gcc.a(phySet.o)
 .data          0x00000000        0x0 ./../../../../BitCloud/lib/libBc_Coordinator_Atmega128rfa1_Atmega128rfa1_Gcc.a(phySet.o)
 .text          0x00000000        0x0 ./../../../../BitCloud/lib/libBc_Coordinator_Atmega128rfa1_Atmega128rfa1_Gcc.a(phySetTrxState.o)
 .data          0x00000000        0x0 ./../../../../BitCloud/lib/libBc_Coordinator_Atmega128rfa1_Atmega128rfa1_Gcc.a(phySetTrxState.o)
 .bss           0x00000000        0x0 ./../../../../BitCloud/lib/libBc_Coordinator_Atmega128rfa1_Atmega128rfa1_Gcc.a(phySetTrxState.o)
 COMMON         0x00000000        0x1 ./../../../../BitCloud/lib/libBc_Coordinator_Atmega128rfa1_Atmega128rfa1_Gcc.a(phySetTrxState.o)
 .text          0x00000000        0x0 ./../../../../BitCloud/lib/libBc_Coordinator_Atmega128rfa1_Atmega128rfa1_Gcc.a(phyTxFrame.o)
 .data          0x00000000        0x0 ./../../../../BitCloud/lib/libBc_Coordinator_Atmega128rfa1_Atmega128rfa1_Gcc.a(phyTxFrame.o)
 .bss           0x00000000        0x0 ./../../../../BitCloud/lib/libBc_Coordinator_Atmega128rfa1_Atmega128rfa1_Gcc.a(phyTxFrame.o)
 .text          0x00000000        0x0 ./../../../../BitCloud/lib/libBc_Coordinator_Atmega128rfa1_Atmega128rfa1_Gcc.a(machwdCalibHandler.o)
 .data          0x00000000        0x0 ./../../../../BitCloud/lib/libBc_Coordinator_Atmega128rfa1_Atmega128rfa1_Gcc.a(machwdCalibHandler.o)
 .text          0x00000000        0x0 ./../../../../BitCloud/lib/libBc_Coordinator_Atmega128rfa1_Atmega128rfa1_Gcc.a(machwdEdHandler.o)
 .data          0x00000000        0x0 ./../../../../BitCloud/lib/libBc_Coordinator_Atmega128rfa1_Atmega128rfa1_Gcc.a(machwdEdHandler.o)
 .text          0x00000000        0x0 ./../../../../BitCloud/lib/libBc_Coordinator_Atmega128rfa1_Atmega128rfa1_Gcc.a(machwdFrameRoutine.o)
 .bss           0x00000000        0x0 ./../../../../BitCloud/lib/libBc_Coordinator_Atmega128rfa1_Atmega128rfa1_Gcc.a(machwdFrameRoutine.o)
 .text          0x00000000        0x0 ./../../../../BitCloud/lib/libBc_Coordinator_Atmega128rfa1_Atmega128rfa1_Gcc.a(machwdHandlerCtrl.o)
 .data          0x00000000        0x0 ./../../../../BitCloud/lib/libBc_Coordinator_Atmega128rfa1_Atmega128rfa1_Gcc.a(machwdHandlerCtrl.o)
 .text          0x00000000        0x0 ./../../../../BitCloud/lib/libBc_Coordinator_Atmega128rfa1_Atmega128rfa1_Gcc.a(machwiAssociateHandler.o)
 .data          0x00000000        0x0 ./../../../../BitCloud/lib/libBc_Coordinator_Atmega128rfa1_Atmega128rfa1_Gcc.a(machwiAssociateHandler.o)
 .bss           0x00000000        0x0 ./../../../../BitCloud/lib/libBc_Coordinator_Atmega128rfa1_Atmega128rfa1_Gcc.a(machwiAssociateHandler.o)
 .text          0x00000000        0x0 ./../../../../BitCloud/lib/libBc_Coordinator_Atmega128rfa1_Atmega128rfa1_Gcc.a(machwiBeaconHandler.o)
 .data          0x00000000        0x0 ./../../../../BitCloud/lib/libBc_Coordinator_Atmega128rfa1_Atmega128rfa1_Gcc.a(machwiBeaconHandler.o)
 .bss           0x00000000        0x0 ./../../../../BitCloud/lib/libBc_Coordinator_Atmega128rfa1_Atmega128rfa1_Gcc.a(machwiBeaconHandler.o)
 .text          0x00000000        0x0 ./../../../../BitCloud/lib/libBc_Coordinator_Atmega128rfa1_Atmega128rfa1_Gcc.a(machwiDataHandler.o)
 .bss           0x00000000        0x0 ./../../../../BitCloud/lib/libBc_Coordinator_Atmega128rfa1_Atmega128rfa1_Gcc.a(machwiDataHandler.o)
 .text          0x00000000        0x0 ./../../../../BitCloud/lib/libBc_Coordinator_Atmega128rfa1_Atmega128rfa1_Gcc.a(machwiTransactionHash.o)
 .data          0x00000000        0x0 ./../../../../BitCloud/lib/libBc_Coordinator_Atmega128rfa1_Atmega128rfa1_Gcc.a(machwiTransactionHash.o)
 .text.machwiIsDataPending
                0x00000000      0x1c4 ./../../../../BitCloud/lib/libBc_Coordinator_Atmega128rfa1_Atmega128rfa1_Gcc.a(machwiTransactionHash.o)
 .text          0x00000000        0x0 ./../../../../BitCloud/lib/libBc_Coordinator_Atmega128rfa1_Atmega128rfa1_Gcc.a(phyCalib.o)
 .data          0x00000000        0x0 ./../../../../BitCloud/lib/libBc_Coordinator_Atmega128rfa1_Atmega128rfa1_Gcc.a(phyCalib.o)
 .bss           0x00000000        0x0 ./../../../../BitCloud/lib/libBc_Coordinator_Atmega128rfa1_Atmega128rfa1_Gcc.a(phyCalib.o)
 .text          0x00000000        0x0 ./../../../../BitCloud/lib/libBc_Coordinator_Atmega128rfa1_Atmega128rfa1_Gcc.a(phyEd.o)
 .data          0x00000000        0x0 ./../../../../BitCloud/lib/libBc_Coordinator_Atmega128rfa1_Atmega128rfa1_Gcc.a(phyEd.o)
 .bss           0x00000000        0x0 ./../../../../BitCloud/lib/libBc_Coordinator_Atmega128rfa1_Atmega128rfa1_Gcc.a(phyEd.o)
 .text          0x00000000        0x0 ./../../../../BitCloud/lib/libBc_Coordinator_Atmega128rfa1_Atmega128rfa1_Gcc.a(phyRtimerIrqDispatcher.o)
 .data          0x00000000        0x0 ./../../../../BitCloud/lib/libBc_Coordinator_Atmega128rfa1_Atmega128rfa1_Gcc.a(phyRtimerIrqDispatcher.o)
 .bss           0x00000000        0x0 ./../../../../BitCloud/lib/libBc_Coordinator_Atmega128rfa1_Atmega128rfa1_Gcc.a(phyRtimerIrqDispatcher.o)
 .text          0x00000000        0x0 ./../../../../BitCloud/lib/WdtInitatmega128rfa1_Gcc.o
 .data          0x00000000        0x0 ./../../../../BitCloud/lib/WdtInitatmega128rfa1_Gcc.o
 .bss           0x00000000        0x0 ./../../../../BitCloud/lib/WdtInitatmega128rfa1_Gcc.o
 .text          0x00000000        0x0 ./../../../../BitCloud/lib/libHAL_RcbAtm128rfa1_Atmega128rfa1_8Mhz_Gcc.a(halDelay.o)
 .data          0x00000000        0x0 ./../../../../BitCloud/lib/libHAL_RcbAtm128rfa1_Atmega128rfa1_8Mhz_Gcc.a(halDelay.o)
 .bss           0x00000000        0x0 ./../../../../BitCloud/lib/libHAL_RcbAtm128rfa1_Atmega128rfa1_8Mhz_Gcc.a(halDelay.o)
 .text          0x00000000        0x0 ./../../../../BitCloud/lib/libHAL_RcbAtm128rfa1_Atmega128rfa1_8Mhz_Gcc.a(halInit.o)
 .data          0x00000000        0x0 ./../../../../BitCloud/lib/libHAL_RcbAtm128rfa1_Atmega128rfa1_8Mhz_Gcc.a(halInit.o)
 .bss           0x00000000        0x0 ./../../../../BitCloud/lib/libHAL_RcbAtm128rfa1_Atmega128rfa1_8Mhz_Gcc.a(halInit.o)
 .text          0x00000000        0x0 ./../../../../BitCloud/lib/libHAL_RcbAtm128rfa1_Atmega128rfa1_8Mhz_Gcc.a(halRfCtrl.o)
 .data          0x00000000        0x0 ./../../../../BitCloud/lib/libHAL_RcbAtm128rfa1_Atmega128rfa1_8Mhz_Gcc.a(halRfCtrl.o)
 .bss           0x00000000        0x0 ./../../../../BitCloud/lib/libHAL_RcbAtm128rfa1_Atmega128rfa1_8Mhz_Gcc.a(halRfCtrl.o)
 .text          0x00000000        0x0 ./../../../../BitCloud/lib/libHAL_RcbAtm128rfa1_Atmega128rfa1_8Mhz_Gcc.a(halUid.o)
 .data          0x00000000        0x0 ./../../../../BitCloud/lib/libHAL_RcbAtm128rfa1_Atmega128rfa1_8Mhz_Gcc.a(halUid.o)
 .text          0x00000000        0x0 ./../../../../BitCloud/lib/libHAL_RcbAtm128rfa1_Atmega128rfa1_8Mhz_Gcc.a(halMacIsr.o)
 .data          0x00000000        0x0 ./../../../../BitCloud/lib/libHAL_RcbAtm128rfa1_Atmega128rfa1_8Mhz_Gcc.a(halMacIsr.o)
 .bss           0x00000000        0x0 ./../../../../BitCloud/lib/libHAL_RcbAtm128rfa1_Atmega128rfa1_8Mhz_Gcc.a(halMacIsr.o)
 .text          0x00000000        0x0 d:/program files/atmel/avr studio 5.1/extensions/atmel/avrgcc/3.3.1.27/avrtoolchain/bin/../lib/gcc/avr/4.5.1/avr51\libgcc.a(_mulsi3.o)
 .data          0x00000000        0x0 d:/program files/atmel/avr studio 5.1/extensions/atmel/avrgcc/3.3.1.27/avrtoolchain/bin/../lib/gcc/avr/4.5.1/avr51\libgcc.a(_mulsi3.o)
 .bss           0x00000000        0x0 d:/program files/atmel/avr studio 5.1/extensions/atmel/avrgcc/3.3.1.27/avrtoolchain/bin/../lib/gcc/avr/4.5.1/avr51\libgcc.a(_mulsi3.o)
 .text          0x00000000        0x0 d:/program files/atmel/avr studio 5.1/extensions/atmel/avrgcc/3.3.1.27/avrtoolchain/bin/../lib/gcc/avr/4.5.1/avr51\libgcc.a(_udivmodqi4.o)
 .data          0x00000000        0x0 d:/program files/atmel/avr studio 5.1/extensions/atmel/avrgcc/3.3.1.27/avrtoolchain/bin/../lib/gcc/avr/4.5.1/avr51\libgcc.a(_udivmodqi4.o)
 .bss           0x00000000        0x0 d:/program files/atmel/avr studio 5.1/extensions/atmel/avrgcc/3.3.1.27/avrtoolchain/bin/../lib/gcc/avr/4.5.1/avr51\libgcc.a(_udivmodqi4.o)
 .text          0x00000000        0x0 d:/program files/atmel/avr studio 5.1/extensions/atmel/avrgcc/3.3.1.27/avrtoolchain/bin/../lib/gcc/avr/4.5.1/avr51\libgcc.a(_udivmodhi4.o)
 .data          0x00000000        0x0 d:/program files/atmel/avr studio 5.1/extensions/atmel/avrgcc/3.3.1.27/avrtoolchain/bin/../lib/gcc/avr/4.5.1/avr51\libgcc.a(_udivmodhi4.o)
 .bss           0x00000000        0x0 d:/program files/atmel/avr studio 5.1/extensions/atmel/avrgcc/3.3.1.27/avrtoolchain/bin/../lib/gcc/avr/4.5.1/avr51\libgcc.a(_udivmodhi4.o)
 .text          0x00000000        0x0 d:/program files/atmel/avr studio 5.1/extensions/atmel/avrgcc/3.3.1.27/avrtoolchain/bin/../lib/gcc/avr/4.5.1/avr51\libgcc.a(_udivmodsi4.o)
 .data          0x00000000        0x0 d:/program files/atmel/avr studio 5.1/extensions/atmel/avrgcc/3.3.1.27/avrtoolchain/bin/../lib/gcc/avr/4.5.1/avr51\libgcc.a(_udivmodsi4.o)
 .bss           0x00000000        0x0 d:/program files/atmel/avr studio 5.1/extensions/atmel/avrgcc/3.3.1.27/avrtoolchain/bin/../lib/gcc/avr/4.5.1/avr51\libgcc.a(_udivmodsi4.o)
 .text          0x00000000        0x0 d:/program files/atmel/avr studio 5.1/extensions/atmel/avrgcc/3.3.1.27/avrtoolchain/bin/../lib/gcc/avr/4.5.1/avr51\libgcc.a(_prologue.o)
 .data          0x00000000        0x0 d:/program files/atmel/avr studio 5.1/extensions/atmel/avrgcc/3.3.1.27/avrtoolchain/bin/../lib/gcc/avr/4.5.1/avr51\libgcc.a(_prologue.o)
 .bss           0x00000000        0x0 d:/program files/atmel/avr studio 5.1/extensions/atmel/avrgcc/3.3.1.27/avrtoolchain/bin/../lib/gcc/avr/4.5.1/avr51\libgcc.a(_prologue.o)
 .text          0x00000000        0x0 d:/program files/atmel/avr studio 5.1/extensions/atmel/avrgcc/3.3.1.27/avrtoolchain/bin/../lib/gcc/avr/4.5.1/avr51\libgcc.a(_epilogue.o)
 .data          0x00000000        0x0 d:/program files/atmel/avr studio 5.1/extensions/atmel/avrgcc/3.3.1.27/avrtoolchain/bin/../lib/gcc/avr/4.5.1/avr51\libgcc.a(_epilogue.o)
 .bss           0x00000000        0x0 d:/program files/atmel/avr studio 5.1/extensions/atmel/avrgcc/3.3.1.27/avrtoolchain/bin/../lib/gcc/avr/4.5.1/avr51\libgcc.a(_epilogue.o)
 .text          0x00000000        0x0 d:/program files/atmel/avr studio 5.1/extensions/atmel/avrgcc/3.3.1.27/avrtoolchain/bin/../lib/gcc/avr/4.5.1/avr51\libgcc.a(_exit.o)
 .data          0x00000000        0x0 d:/program files/atmel/avr studio 5.1/extensions/atmel/avrgcc/3.3.1.27/avrtoolchain/bin/../lib/gcc/avr/4.5.1/avr51\libgcc.a(_exit.o)
 .bss           0x00000000        0x0 d:/program files/atmel/avr studio 5.1/extensions/atmel/avrgcc/3.3.1.27/avrtoolchain/bin/../lib/gcc/avr/4.5.1/avr51\libgcc.a(_exit.o)
 .text.libgcc   0x00000000        0x0 d:/program files/atmel/avr studio 5.1/extensions/atmel/avrgcc/3.3.1.27/avrtoolchain/bin/../lib/gcc/avr/4.5.1/avr51\libgcc.a(_exit.o)
 .fini9         0x00000000        0x0 d:/program files/atmel/avr studio 5.1/extensions/atmel/avrgcc/3.3.1.27/avrtoolchain/bin/../lib/gcc/avr/4.5.1/avr51\libgcc.a(_exit.o)
 .fini0         0x00000000        0x4 d:/program files/atmel/avr studio 5.1/extensions/atmel/avrgcc/3.3.1.27/avrtoolchain/bin/../lib/gcc/avr/4.5.1/avr51\libgcc.a(_exit.o)
 .text          0x00000000        0x0 d:/program files/atmel/avr studio 5.1/extensions/atmel/avrgcc/3.3.1.27/avrtoolchain/bin/../lib/gcc/avr/4.5.1/avr51\libgcc.a(_tablejump.o)
 .data          0x00000000        0x0 d:/program files/atmel/avr studio 5.1/extensions/atmel/avrgcc/3.3.1.27/avrtoolchain/bin/../lib/gcc/avr/4.5.1/avr51\libgcc.a(_tablejump.o)
 .bss           0x00000000        0x0 d:/program files/atmel/avr studio 5.1/extensions/atmel/avrgcc/3.3.1.27/avrtoolchain/bin/../lib/gcc/avr/4.5.1/avr51\libgcc.a(_tablejump.o)
 .text          0x00000000        0x0 d:/program files/atmel/avr studio 5.1/extensions/atmel/avrgcc/3.3.1.27/avrtoolchain/bin/../lib/gcc/avr/4.5.1/avr51\libgcc.a(_copy_data.o)
 .data          0x00000000        0x0 d:/program files/atmel/avr studio 5.1/extensions/atmel/avrgcc/3.3.1.27/avrtoolchain/bin/../lib/gcc/avr/4.5.1/avr51\libgcc.a(_copy_data.o)
 .bss           0x00000000        0x0 d:/program files/atmel/avr studio 5.1/extensions/atmel/avrgcc/3.3.1.27/avrtoolchain/bin/../lib/gcc/avr/4.5.1/avr51\libgcc.a(_copy_data.o)
 .text.libgcc   0x00000000        0x0 d:/program files/atmel/avr studio 5.1/extensions/atmel/avrgcc/3.3.1.27/avrtoolchain/bin/../lib/gcc/avr/4.5.1/avr51\libgcc.a(_copy_data.o)
 .text          0x00000000        0x0 d:/program files/atmel/avr studio 5.1/extensions/atmel/avrgcc/3.3.1.27/avrtoolchain/bin/../lib/gcc/avr/4.5.1/avr51\libgcc.a(_clear_bss.o)
 .data          0x00000000        0x0 d:/program files/atmel/avr studio 5.1/extensions/atmel/avrgcc/3.3.1.27/avrtoolchain/bin/../lib/gcc/avr/4.5.1/avr51\libgcc.a(_clear_bss.o)
 .bss           0x00000000        0x0 d:/program files/atmel/avr studio 5.1/extensions/atmel/avrgcc/3.3.1.27/avrtoolchain/bin/../lib/gcc/avr/4.5.1/avr51\libgcc.a(_clear_bss.o)
 .text.libgcc   0x00000000        0x0 d:/program files/atmel/avr studio 5.1/extensions/atmel/avrgcc/3.3.1.27/avrtoolchain/bin/../lib/gcc/avr/4.5.1/avr51\libgcc.a(_clear_bss.o)
 .data          0x00000000        0x0 d:/program files/atmel/avr studio 5.1/extensions/atmel/avrgcc/3.3.1.27/avrtoolchain/bin/../lib/gcc/avr/4.5.1/avr51\libgcc.a(_ashldi3.o)
 .bss           0x00000000        0x0 d:/program files/atmel/avr studio 5.1/extensions/atmel/avrgcc/3.3.1.27/avrtoolchain/bin/../lib/gcc/avr/4.5.1/avr51\libgcc.a(_ashldi3.o)
 .text          0x00000000        0x0 d:/program files/atmel/avr studio 5.1/extensions/atmel/avrgcc/3.3.1.27/avrtoolchain/bin/../lib/gcc/avr/4.5.1/../../../../avr/lib/avr51\libc.a(rand.o)
 .bss           0x00000000        0x0 d:/program files/atmel/avr studio 5.1/extensions/atmel/avrgcc/3.3.1.27/avrtoolchain/bin/../lib/gcc/avr/4.5.1/../../../../avr/lib/avr51\libc.a(rand.o)
 .text          0x00000000        0x0 d:/program files/atmel/avr studio 5.1/extensions/atmel/avrgcc/3.3.1.27/avrtoolchain/bin/../lib/gcc/avr/4.5.1/../../../../avr/lib/avr51\libc.a(memcpy_P.o)
 .data          0x00000000        0x0 d:/program files/atmel/avr studio 5.1/extensions/atmel/avrgcc/3.3.1.27/avrtoolchain/bin/../lib/gcc/avr/4.5.1/../../../../avr/lib/avr51\libc.a(memcpy_P.o)
 .bss           0x00000000        0x0 d:/program files/atmel/avr studio 5.1/extensions/atmel/avrgcc/3.3.1.27/avrtoolchain/bin/../lib/gcc/avr/4.5.1/../../../../avr/lib/avr51\libc.a(memcpy_P.o)
 .text          0x00000000        0x0 d:/program files/atmel/avr studio 5.1/extensions/atmel/avrgcc/3.3.1.27/avrtoolchain/bin/../lib/gcc/avr/4.5.1/../../../../avr/lib/avr51\libc.a(memcmp.o)
 .data          0x00000000        0x0 d:/program files/atmel/avr studio 5.1/extensions/atmel/avrgcc/3.3.1.27/avrtoolchain/bin/../lib/gcc/avr/4.5.1/../../../../avr/lib/avr51\libc.a(memcmp.o)
 .bss           0x00000000        0x0 d:/program files/atmel/avr studio 5.1/extensions/atmel/avrgcc/3.3.1.27/avrtoolchain/bin/../lib/gcc/avr/4.5.1/../../../../avr/lib/avr51\libc.a(memcmp.o)
 .text          0x00000000        0x0 d:/program files/atmel/avr studio 5.1/extensions/atmel/avrgcc/3.3.1.27/avrtoolchain/bin/../lib/gcc/avr/4.5.1/../../../../avr/lib/avr51\libc.a(memcpy.o)
 .data          0x00000000        0x0 d:/program files/atmel/avr studio 5.1/extensions/atmel/avrgcc/3.3.1.27/avrtoolchain/bin/../lib/gcc/avr/4.5.1/../../../../avr/lib/avr51\libc.a(memcpy.o)
 .bss           0x00000000        0x0 d:/program files/atmel/avr studio 5.1/extensions/atmel/avrgcc/3.3.1.27/avrtoolchain/bin/../lib/gcc/avr/4.5.1/../../../../avr/lib/avr51\libc.a(memcpy.o)
 .text          0x00000000        0x0 d:/program files/atmel/avr studio 5.1/extensions/atmel/avrgcc/3.3.1.27/avrtoolchain/bin/../lib/gcc/avr/4.5.1/../../../../avr/lib/avr51\libc.a(memmove.o)
 .data          0x00000000        0x0 d:/program files/atmel/avr studio 5.1/extensions/atmel/avrgcc/3.3.1.27/avrtoolchain/bin/../lib/gcc/avr/4.5.1/../../../../avr/lib/avr51\libc.a(memmove.o)
 .bss           0x00000000        0x0 d:/program files/atmel/avr studio 5.1/extensions/atmel/avrgcc/3.3.1.27/avrtoolchain/bin/../lib/gcc/avr/4.5.1/../../../../avr/lib/avr51\libc.a(memmove.o)
 .text          0x00000000        0x0 d:/program files/atmel/avr studio 5.1/extensions/atmel/avrgcc/3.3.1.27/avrtoolchain/bin/../lib/gcc/avr/4.5.1/../../../../avr/lib/avr51\libc.a(memset.o)
 .data          0x00000000        0x0 d:/program files/atmel/avr studio 5.1/extensions/atmel/avrgcc/3.3.1.27/avrtoolchain/bin/../lib/gcc/avr/4.5.1/../../../../avr/lib/avr51\libc.a(memset.o)
 .bss           0x00000000        0x0 d:/program files/atmel/avr studio 5.1/extensions/atmel/avrgcc/3.3.1.27/avrtoolchain/bin/../lib/gcc/avr/4.5.1/../../../../avr/lib/avr51\libc.a(memset.o)
 .text          0x00000000        0x0 d:/program files/atmel/avr studio 5.1/extensions/atmel/avrgcc/3.3.1.27/avrtoolchain/bin/../lib/gcc/avr/4.5.1/../../../../avr/lib/avr51\libc.a(strcat.o)
 .data          0x00000000        0x0 d:/program files/atmel/avr studio 5.1/extensions/atmel/avrgcc/3.3.1.27/avrtoolchain/bin/../lib/gcc/avr/4.5.1/../../../../avr/lib/avr51\libc.a(strcat.o)
 .bss           0x00000000        0x0 d:/program files/atmel/avr studio 5.1/extensions/atmel/avrgcc/3.3.1.27/avrtoolchain/bin/../lib/gcc/avr/4.5.1/../../../../avr/lib/avr51\libc.a(strcat.o)
 .text          0x00000000        0x0 d:/program files/atmel/avr studio 5.1/extensions/atmel/avrgcc/3.3.1.27/avrtoolchain/bin/../lib/gcc/avr/4.5.1/../../../../avr/lib/avr51\libc.a(strcpy.o)
 .data          0x00000000        0x0 d:/program files/atmel/avr studio 5.1/extensions/atmel/avrgcc/3.3.1.27/avrtoolchain/bin/../lib/gcc/avr/4.5.1/../../../../avr/lib/avr51\libc.a(strcpy.o)
 .bss           0x00000000        0x0 d:/program files/atmel/avr studio 5.1/extensions/atmel/avrgcc/3.3.1.27/avrtoolchain/bin/../lib/gcc/avr/4.5.1/../../../../avr/lib/avr51\libc.a(strcpy.o)
 .text          0x00000000        0x0 d:/program files/atmel/avr studio 5.1/extensions/atmel/avrgcc/3.3.1.27/avrtoolchain/bin/../lib/gcc/avr/4.5.1/../../../../avr/lib/avr51\libc.a(sprintf.o)
 .data          0x00000000        0x0 d:/program files/atmel/avr studio 5.1/extensions/atmel/avrgcc/3.3.1.27/avrtoolchain/bin/../lib/gcc/avr/4.5.1/../../../../avr/lib/avr51\libc.a(sprintf.o)
 .bss           0x00000000        0x0 d:/program files/atmel/avr studio 5.1/extensions/atmel/avrgcc/3.3.1.27/avrtoolchain/bin/../lib/gcc/avr/4.5.1/../../../../avr/lib/avr51\libc.a(sprintf.o)
 .text          0x00000000        0x0 d:/program files/atmel/avr studio 5.1/extensions/atmel/avrgcc/3.3.1.27/avrtoolchain/bin/../lib/gcc/avr/4.5.1/../../../../avr/lib/avr51\libc.a(vfprintf_std.o)
 .data          0x00000000        0x0 d:/program files/atmel/avr studio 5.1/extensions/atmel/avrgcc/3.3.1.27/avrtoolchain/bin/../lib/gcc/avr/4.5.1/../../../../avr/lib/avr51\libc.a(vfprintf_std.o)
 .bss           0x00000000        0x0 d:/program files/atmel/avr studio 5.1/extensions/atmel/avrgcc/3.3.1.27/avrtoolchain/bin/../lib/gcc/avr/4.5.1/../../../../avr/lib/avr51\libc.a(vfprintf_std.o)
 .text          0x00000000        0x0 d:/program files/atmel/avr studio 5.1/extensions/atmel/avrgcc/3.3.1.27/avrtoolchain/bin/../lib/gcc/avr/4.5.1/../../../../avr/lib/avr51\libc.a(strnlen_P.o)
 .data          0x00000000        0x0 d:/program files/atmel/avr studio 5.1/extensions/atmel/avrgcc/3.3.1.27/avrtoolchain/bin/../lib/gcc/avr/4.5.1/../../../../avr/lib/avr51\libc.a(strnlen_P.o)
 .bss           0x00000000        0x0 d:/program files/atmel/avr studio 5.1/extensions/atmel/avrgcc/3.3.1.27/avrtoolchain/bin/../lib/gcc/avr/4.5.1/../../../../avr/lib/avr51\libc.a(strnlen_P.o)
 .text          0x00000000        0x0 d:/program files/atmel/avr studio 5.1/extensions/atmel/avrgcc/3.3.1.27/avrtoolchain/bin/../lib/gcc/avr/4.5.1/../../../../avr/lib/avr51\libc.a(strnlen.o)
 .data          0x00000000        0x0 d:/program files/atmel/avr studio 5.1/extensions/atmel/avrgcc/3.3.1.27/avrtoolchain/bin/../lib/gcc/avr/4.5.1/../../../../avr/lib/avr51\libc.a(strnlen.o)
 .bss           0x00000000        0x0 d:/program files/atmel/avr studio 5.1/extensions/atmel/avrgcc/3.3.1.27/avrtoolchain/bin/../lib/gcc/avr/4.5.1/../../../../avr/lib/avr51\libc.a(strnlen.o)
 .text          0x00000000        0x0 d:/program files/atmel/avr studio 5.1/extensions/atmel/avrgcc/3.3.1.27/avrtoolchain/bin/../lib/gcc/avr/4.5.1/../../../../avr/lib/avr51\libc.a(fputc.o)
 .data          0x00000000        0x0 d:/program files/atmel/avr studio 5.1/extensions/atmel/avrgcc/3.3.1.27/avrtoolchain/bin/../lib/gcc/avr/4.5.1/../../../../avr/lib/avr51\libc.a(fputc.o)
 .bss           0x00000000        0x0 d:/program files/atmel/avr studio 5.1/extensions/atmel/avrgcc/3.3.1.27/avrtoolchain/bin/../lib/gcc/avr/4.5.1/../../../../avr/lib/avr51\libc.a(fputc.o)
 .text          0x00000000        0x0 d:/program files/atmel/avr studio 5.1/extensions/atmel/avrgcc/3.3.1.27/avrtoolchain/bin/../lib/gcc/avr/4.5.1/../../../../avr/lib/avr51\libc.a(ultoa_invert.o)
 .data          0x00000000        0x0 d:/program files/atmel/avr studio 5.1/extensions/atmel/avrgcc/3.3.1.27/avrtoolchain/bin/../lib/gcc/avr/4.5.1/../../../../avr/lib/avr51\libc.a(ultoa_invert.o)
 .bss           0x00000000        0x0 d:/program files/atmel/avr studio 5.1/extensions/atmel/avrgcc/3.3.1.27/avrtoolchain/bin/../lib/gcc/avr/4.5.1/../../../../avr/lib/avr51\libc.a(ultoa_invert.o)
 .text          0x00000000        0x0 d:/program files/atmel/avr studio 5.1/extensions/atmel/avrgcc/3.3.1.27/avrtoolchain/bin/../lib/gcc/avr/4.5.1/avr51\libgcc.a(_divmodsi4.o)
 .data          0x00000000        0x0 d:/program files/atmel/avr studio 5.1/extensions/atmel/avrgcc/3.3.1.27/avrtoolchain/bin/../lib/gcc/avr/4.5.1/avr51\libgcc.a(_divmodsi4.o)
 .bss           0x00000000        0x0 d:/program files/atmel/avr studio 5.1/extensions/atmel/avrgcc/3.3.1.27/avrtoolchain/bin/../lib/gcc/avr/4.5.1/avr51\libgcc.a(_divmodsi4.o)

Memory Configuration

Name             Origin             Length             Attributes
text             0x00000000         0x00020000         xr
data             0x00800190         0x00003e0c         rw !x
eeprom           0x00810000         0x00001000         rw !x
*default*        0x00000000         0xffffffff

Linker script and memory map

Address of section .data set to 0x800200
LOAD d:/program files/atmel/avr studio 5.1/extensions/atmel/avrgcc/3.3.1.27/avrtoolchain/bin/../lib/gcc/avr/4.5.1/../../../../avr/lib/avr51/crtm128rfa1.o

.text           0x00000000    0x1617c
                0x00000000                PROVIDE (__text_start, .)
 *(.vectors)
 .vectors       0x00000000      0x120 d:/program files/atmel/avr studio 5.1/extensions/atmel/avrgcc/3.3.1.27/avrtoolchain/bin/../lib/gcc/avr/4.5.1/../../../../avr/lib/avr51/crtm128rfa1.o
                0x00000000                __vector_default
                0x00000000                __vectors
 *(.vectors)
                0x00000120                PROVIDE (__pds_ff_start, .)
 *(.pds_ff)
 .pds_ff        0x00000120       0x8a Coordinator_Rcb_Atmega128rfa1_8Mhz_Gcc/Obj/csPersistentMem.o
                0x00000120                csGeneralFileDescriptors
                0x00000180                csExtendedFileDescriptors
                0x00000198                csNeighborTableFileDescriptor
                0x0000019e                csGroupTableFileDescriptor
                0x000001a4                csBindingTableFileDescriptor
                0x000001aa                PROVIDE (__pds_ff_end, .)
                0x000001aa                PROVIDE (__pds_fd_start, .)
 *(.pds_fd)
 .pds_fd        0x000001aa       0x24 Coordinator_Rcb_Atmega128rfa1_8Mhz_Gcc/Obj/csPersistentMem.o
                0x000001aa                csGeneralParamsDirDescr
                0x000001b0                csExtendedParamsDirDescr
                0x000001b6                csNwkSecurityTablesDirDescr
                0x000001bc                BCSystemDirDescr
                0x000001c2                BCExtGenParamsDirDescr
                0x000001c8                BCRejoinParamsDirDescr
                0x000001ce                PROVIDE (__pds_fd_end, .)
 *(.progmem.gcc*)
 .progmem.gcc_sw_table
                0x000001ce      0x110 ./../../../../BitCloud/lib/libBc_Coordinator_Atmega128rfa1_Atmega128rfa1_Gcc.a(macenvPib.o)
 .progmem.gcc_sw_table
                0x000002de       0x34 ./../../../../BitCloud/lib/libBc_Coordinator_Atmega128rfa1_Atmega128rfa1_Gcc.a(nwk.o)
 .progmem.gcc_sw_table
                0x00000312       0x58 ./../../../../BitCloud/lib/libBc_Coordinator_Atmega128rfa1_Atmega128rfa1_Gcc.a(zdo.o)
 .progmem.gcc_sw_table
                0x0000036a       0x28 ./../../../../BitCloud/lib/libBc_Coordinator_Atmega128rfa1_Atmega128rfa1_Gcc.a(machwdManager.o)
 .progmem.gcc_sw_table
                0x00000392       0x3c ./../../../../BitCloud/lib/libBc_Coordinator_Atmega128rfa1_Atmega128rfa1_Gcc.a(machwiManager.o)
 .progmem.gcc_sw_table
                0x000003ce       0x16 ./../../../../BitCloud/lib/libBc_Coordinator_Atmega128rfa1_Atmega128rfa1_Gcc.a(machwiPanServer.o)
 .progmem.gcc_sw_table
                0x000003e4       0x20 ./../../../../BitCloud/lib/libBc_Coordinator_Atmega128rfa1_Atmega128rfa1_Gcc.a(machwiScanHandler.o)
 .progmem.gcc_sw_table
                0x00000404       0x26 ./../../../../BitCloud/lib/libBc_Coordinator_Atmega128rfa1_Atmega128rfa1_Gcc.a(machwdFrameRoutine.o)
 *(.progmem*)
 .progmem.data  0x0000042a       0xa4 Coordinator_Rcb_Atmega128rfa1_8Mhz_Gcc/Obj/csPersistentMem.o
                0x0000042a                CsGeneralMemoryIdsTable
                0x0000044a                CsExtendedMemoryIdsTable
                0x00000452                CsNwkSecurityMemoryIdsTable
                0x00000456                BCSystemMemoryIdsTable
                0x00000484                BCExtGenParamsMemoryIdsTable
                0x000004ac                BCRejoinParamsMemoryIdsTable
 .progmem.data  0x000004ce      0x25e Coordinator_Rcb_Atmega128rfa1_8Mhz_Gcc/Obj/csMem.o
                0x000004ce                defaultNIB
                0x00000554                defaultZIB
                0x00000583                defaultAIB
                0x00000585                defaultSIB
                0x000005c1                csReadOnlyItems
                0x000005e0                csMemoryItems
 .progmem.data  0x0000072c        0xc ./../../../../BitCloud/lib/libHAL_RcbAtm128rfa1_Atmega128rfa1_8Mhz_Gcc.a(usart.o)
 .progmem.data  0x00000738       0x10 ./../../../../BitCloud/lib/libBc_Coordinator_Atmega128rfa1_Atmega128rfa1_Gcc.a(aps.o)
 .progmem.data  0x00000748      0x132 ./../../../../BitCloud/lib/libBc_Coordinator_Atmega128rfa1_Atmega128rfa1_Gcc.a(nwk.o)
                0x0000087a                . = ALIGN (0x2)
 *(.trampolines*)
 .trampolines   0x0000087a        0x0 linker stubs
 *(.jumptables*)
 *(.lowtext*)
 *(.init0)
 .init0         0x0000087a        0x0 d:/program files/atmel/avr studio 5.1/extensions/atmel/avrgcc/3.3.1.27/avrtoolchain/bin/../lib/gcc/avr/4.5.1/../../../../avr/lib/avr51/crtm128rfa1.o
                0x0000087a                __init
 .init0         0x0000087a       0x30 ./../../../../BitCloud/lib/WdtInitatmega128rfa1_Gcc.o
                0x0000087a                halWdtInit
 *(.init0)
 *(.init1)
 *(.init1)
 *(.init2)
 .init2         0x000008aa        0xc d:/program files/atmel/avr studio 5.1/extensions/atmel/avrgcc/3.3.1.27/avrtoolchain/bin/../lib/gcc/avr/4.5.1/../../../../avr/lib/avr51/crtm128rfa1.o
 *(.init2)
 *(.init3)
 *(.init3)
 *(.init4)
 .init4         0x000008b6       0x1a d:/program files/atmel/avr studio 5.1/extensions/atmel/avrgcc/3.3.1.27/avrtoolchain/bin/../lib/gcc/avr/4.5.1/avr51\libgcc.a(_copy_data.o)
                0x000008b6                __do_copy_data
 .init4         0x000008d0       0x10 d:/program files/atmel/avr studio 5.1/extensions/atmel/avrgcc/3.3.1.27/avrtoolchain/bin/../lib/gcc/avr/4.5.1/avr51\libgcc.a(_clear_bss.o)
                0x000008d0                __do_clear_bss
 *(.init4)
 *(.init5)
 *(.init5)
 *(.init6)
 *(.init6)
 *(.init7)
 *(.init7)
 *(.init8)
 *(.init8)
 *(.text.main)
 .text.main     0x000008e0        0xa Coordinator_Rcb_Atmega128rfa1_8Mhz_Gcc/Obj/blink.o
                0x000008e0                main
 *(.text.main)
 *(.text)
 .text          0x000008ea        0x4 d:/program files/atmel/avr studio 5.1/extensions/atmel/avrgcc/3.3.1.27/avrtoolchain/bin/../lib/gcc/avr/4.5.1/../../../../avr/lib/avr51/crtm128rfa1.o
                0x000008ea                __vector_22
                0x000008ea                __vector_28
                0x000008ea                __vector_67
                0x000008ea                __vector_32
                0x000008ea                __vector_71
                0x000008ea                __vector_34
                0x000008ea                __vector_62
                0x000008ea                __vector_12
                0x000008ea                __vector_55
                0x000008ea                __vector_69
                0x000008ea                __vector_46
                0x000008ea                __bad_interrupt
                0x000008ea                __vector_31
                0x000008ea                __vector_35
                0x000008ea                __vector_23
                0x000008ea                __vector_68
                0x000008ea                __vector_45
                0x000008ea                __vector_61
                0x000008ea                __vector_11
                0x000008ea                __vector_54
                0x000008ea                __vector_17
                0x000008ea                __vector_19
                0x000008ea                __vector_56
                0x000008ea                __vector_49
                0x000008ea                __vector_41
                0x000008ea                __vector_64
                0x000008ea                __vector_33
                0x000008ea                __vector_47
                0x000008ea                __vector_52
                0x000008ea                __vector_44
                0x000008ea                __vector_51
                0x000008ea                __vector_9
                0x000008ea                __vector_21
                0x000008ea                __vector_66
                0x000008ea                __vector_58
                0x000008ea                __vector_70
                0x000008ea                __vector_40
                0x000008ea                __vector_48
                0x000008ea                __vector_14
                0x000008ea                __vector_57
                0x000008ea                __vector_53
                0x000008ea                __vector_10
                0x000008ea                __vector_50
                0x000008ea                __vector_16
                0x000008ea                __vector_59
                0x000008ea                __vector_18
                0x000008ea                __vector_20
                0x000008ea                __vector_65
 .text          0x000008ee       0xce ./../../../../BitCloud/lib/libHAL_RcbAtm128rfa1_Atmega128rfa1_8Mhz_Gcc.a(halW1.o)
                0x000008ee                halResetW1
                0x00000922                halReadW1Bit
                0x00000952                halReadW1
                0x0000096e                halWriteW1bit
                0x0000099a                halWriteW1
                0x000009ac                __delay_us
 .text          0x000009bc       0x3a ./../../../../BitCloud/lib/libHAL_RcbAtm128rfa1_Atmega128rfa1_8Mhz_Gcc.a(halCalibration.o)
                0x000009bc                halMeasurement
 .text          0x000009f6       0xe2 d:/program files/atmel/avr studio 5.1/extensions/atmel/avrgcc/3.3.1.27/avrtoolchain/bin/../lib/gcc/avr/4.5.1/avr51\libgcc.a(_ashldi3.o)
                0x000009f6                __ashldi3
 *(.text.*)
 .text.APS_DataInd
                0x00000ad8        0x2 Coordinator_Rcb_Atmega128rfa1_8Mhz_Gcc/Obj/blink.o
 .text.ZDO_StartNetworkConf
                0x00000ada       0xea Coordinator_Rcb_Atmega128rfa1_8Mhz_Gcc/Obj/blink.o
 .text.APS_DataInd2
                0x00000bc4        0x8 Coordinator_Rcb_Atmega128rfa1_8Mhz_Gcc/Obj/blink.o
 .text.APS_DataConf
                0x00000bcc        0x8 Coordinator_Rcb_Atmega128rfa1_8Mhz_Gcc/Obj/blink.o
 .text.Timer_Handler
                0x00000bd4       0xf4 Coordinator_Rcb_Atmega128rfa1_8Mhz_Gcc/Obj/blink.o
                0x00000bd4                Timer_Handler
 .text.APL_TaskHandler
                0x00000cc8      0x180 Coordinator_Rcb_Atmega128rfa1_8Mhz_Gcc/Obj/blink.o
                0x00000cc8                APL_TaskHandler
 .text.ZDO_MgmtNwkUpdateNotf
                0x00000e48       0x8c Coordinator_Rcb_Atmega128rfa1_8Mhz_Gcc/Obj/blink.o
                0x00000e48                ZDO_MgmtNwkUpdateNotf
 .text.ZDO_WakeUpInd
                0x00000ed4        0x2 Coordinator_Rcb_Atmega128rfa1_8Mhz_Gcc/Obj/blink.o
                0x00000ed4                ZDO_WakeUpInd
 .text.ZDO_BindIndication
                0x00000ed6        0x2 Coordinator_Rcb_Atmega128rfa1_8Mhz_Gcc/Obj/blink.o
                0x00000ed6                ZDO_BindIndication
 .text.ZDO_UnbindIndication
                0x00000ed8        0x2 Coordinator_Rcb_Atmega128rfa1_8Mhz_Gcc/Obj/blink.o
                0x00000ed8                ZDO_UnbindIndication
 .text.pdsDummyCallback
                0x00000eda        0x2 Coordinator_Rcb_Atmega128rfa1_8Mhz_Gcc/Obj/pdsWriteData.o
                0x00000eda                pdsDummyCallback
 .text.pdsAddDataForCommitment
                0x00000edc       0x70 Coordinator_Rcb_Atmega128rfa1_8Mhz_Gcc/Obj/pdsWriteData.o
                0x00000edc                pdsAddDataForCommitment
 .text.pdsWaitMemoryFree
                0x00000f4c       0x10 Coordinator_Rcb_Atmega128rfa1_8Mhz_Gcc/Obj/pdsWriteData.o
                0x00000f4c                pdsWaitMemoryFree
 .text.pdsRead  0x00000f5c       0x3e Coordinator_Rcb_Atmega128rfa1_8Mhz_Gcc/Obj/pdsWriteData.o
                0x00000f5c                pdsRead
 .text.pdsWrite
                0x00000f9a       0x3e Coordinator_Rcb_Atmega128rfa1_8Mhz_Gcc/Obj/pdsWriteData.o
                0x00000f9a                pdsWrite
 .text.pdsStartCommitment
                0x00000fd8      0x1e6 Coordinator_Rcb_Atmega128rfa1_8Mhz_Gcc/Obj/pdsWriteData.o
                0x00000fd8                pdsStartCommitment
 .text.pdsMemMaskIsAnyBitSet
                0x000011be       0x1c Coordinator_Rcb_Atmega128rfa1_8Mhz_Gcc/Obj/pdsDataServer.o
 .text.pdsInitMemMask
                0x000011da       0x3c Coordinator_Rcb_Atmega128rfa1_8Mhz_Gcc/Obj/pdsDataServer.o
 .text.pdsGetMemoryAllowed
                0x00001216       0x38 Coordinator_Rcb_Atmega128rfa1_8Mhz_Gcc/Obj/pdsDataServer.o
 .text.PDS_Store
                0x0000124e       0x14 Coordinator_Rcb_Atmega128rfa1_8Mhz_Gcc/Obj/pdsDataServer.o
                0x0000124e                PDS_Store
 .text.PDS_IsMemoryRestored
                0x00001262       0x54 Coordinator_Rcb_Atmega128rfa1_8Mhz_Gcc/Obj/pdsDataServer.o
                0x00001262                PDS_IsMemoryRestored
 .text.PDS_Init
                0x000012b6      0x226 Coordinator_Rcb_Atmega128rfa1_8Mhz_Gcc/Obj/pdsInit.o
                0x000012b6                PDS_Init
 .text.pdsTimerFired
                0x000014dc        0xe Coordinator_Rcb_Atmega128rfa1_8Mhz_Gcc/Obj/pdsTimer.o
 .text.pdsTimerInit
                0x000014ea       0x12 Coordinator_Rcb_Atmega128rfa1_8Mhz_Gcc/Obj/pdsTimer.o
                0x000014ea                pdsTimerInit
 .text.pdsGetFileDescrRec
                0x000014fc       0x66 Coordinator_Rcb_Atmega128rfa1_8Mhz_Gcc/Obj/pdsMemAccess.o
                0x000014fc                pdsGetFileDescrRec
 .text.pdsGetFileOffset
                0x00001562      0x112 Coordinator_Rcb_Atmega128rfa1_8Mhz_Gcc/Obj/pdsMemAccess.o
                0x00001562                pdsGetFileOffset
 .text.pdsPrepareMemoryAccess
                0x00001674       0xc0 Coordinator_Rcb_Atmega128rfa1_8Mhz_Gcc/Obj/pdsMemAccess.o
                0x00001674                pdsPrepareMemoryAccess
 .text.pdsExpandMemoryMask
                0x00001734      0x162 Coordinator_Rcb_Atmega128rfa1_8Mhz_Gcc/Obj/pdsMemAccess.o
                0x00001734                pdsExpandMemoryMask
 .text.pdsPrepareAccessContext
                0x00001896       0x40 Coordinator_Rcb_Atmega128rfa1_8Mhz_Gcc/Obj/pdsMemAccess.o
                0x00001896                pdsPrepareAccessContext
 .text.pdsCalculateRAMDataCrc
                0x000018d6       0x1c Coordinator_Rcb_Atmega128rfa1_8Mhz_Gcc/Obj/pdsCrcService.o
                0x000018d6                pdsCalculateRAMDataCrc
 .text.pdsCheckFile
                0x000018f2       0xc8 Coordinator_Rcb_Atmega128rfa1_8Mhz_Gcc/Obj/pdsCrcService.o
                0x000018f2                pdsCheckFile
 .text.pdsCheckStorage
                0x000019ba       0x8e Coordinator_Rcb_Atmega128rfa1_8Mhz_Gcc/Obj/pdsCrcService.o
                0x000019ba                pdsCheckStorage
 .text.BSP_OpenLeds
                0x00001a48        0x8 Coordinator_Rcb_Atmega128rfa1_8Mhz_Gcc/Obj/leds.o
                0x00001a48                BSP_OpenLeds
 .text.BSP_OnLed
                0x00001a50       0x20 Coordinator_Rcb_Atmega128rfa1_8Mhz_Gcc/Obj/leds.o
                0x00001a50                BSP_OnLed
 .text.BSP_OffLed
                0x00001a70       0x20 Coordinator_Rcb_Atmega128rfa1_8Mhz_Gcc/Obj/leds.o
                0x00001a70                BSP_OffLed
 .text.BSP_ToggleLed
                0x00001a90       0x1e Coordinator_Rcb_Atmega128rfa1_8Mhz_Gcc/Obj/leds.o
                0x00001a90                BSP_ToggleLed
 .text.BSP_TaskHandler
                0x00001aae       0x7a Coordinator_Rcb_Atmega128rfa1_8Mhz_Gcc/Obj/bspTaskManager.o
                0x00001aae                BSP_TaskHandler
 .text.bspButtonsHandler
                0x00001b28       0x88 Coordinator_Rcb_Atmega128rfa1_8Mhz_Gcc/Obj/buttons.o
                0x00001b28                bspButtonsHandler
 .text.bspTemperatureSensorHandler
                0x00001bb0       0x12 Coordinator_Rcb_Atmega128rfa1_8Mhz_Gcc/Obj/fakeBSP.o
                0x00001bb0                bspTemperatureSensorHandler
 .text.bspLightSensorHandler
                0x00001bc2       0x12 Coordinator_Rcb_Atmega128rfa1_8Mhz_Gcc/Obj/fakeBSP.o
                0x00001bc2                bspLightSensorHandler
 .text.bspEmptyBatteryHandler
                0x00001bd4       0x10 Coordinator_Rcb_Atmega128rfa1_8Mhz_Gcc/Obj/fakeBSP.o
                0x00001bd4                bspEmptyBatteryHandler
 .text.csSetToDefault
                0x00001be4       0x80 Coordinator_Rcb_Atmega128rfa1_8Mhz_Gcc/Obj/csMem.o
                0x00001be4                csSetToDefault
 .text.csGetItem
                0x00001c64       0x38 Coordinator_Rcb_Atmega128rfa1_8Mhz_Gcc/Obj/configServer.o
 .text.CS_Init  0x00001c9c        0xa Coordinator_Rcb_Atmega128rfa1_8Mhz_Gcc/Obj/configServer.o
                0x00001c9c                CS_Init
 .text.CS_ReadParameter
                0x00001ca6       0x36 Coordinator_Rcb_Atmega128rfa1_8Mhz_Gcc/Obj/configServer.o
                0x00001ca6                CS_ReadParameter
 .text.CS_WriteParameter
                0x00001cdc       0x34 Coordinator_Rcb_Atmega128rfa1_8Mhz_Gcc/Obj/configServer.o
                0x00001cdc                CS_WriteParameter
 .text.CS_GetMemory
                0x00001d10       0x18 Coordinator_Rcb_Atmega128rfa1_8Mhz_Gcc/Obj/configServer.o
                0x00001d10                CS_GetMemory
 .text.halAppTimerHandler
                0x00001d28       0x8a ./../../../../BitCloud/lib/libHAL_RcbAtm128rfa1_Atmega128rfa1_8Mhz_Gcc.a(appTimer.o)
                0x00001d28                halAppTimerHandler
 .text.HAL_StartAppTimer
                0x00001db2       0x58 ./../../../../BitCloud/lib/libHAL_RcbAtm128rfa1_Atmega128rfa1_8Mhz_Gcc.a(appTimer.o)
                0x00001db2                HAL_StartAppTimer
 .text.HAL_StopAppTimer
                0x00001e0a       0x4a ./../../../../BitCloud/lib/libHAL_RcbAtm128rfa1_Atmega128rfa1_8Mhz_Gcc.a(appTimer.o)
                0x00001e0a                HAL_StopAppTimer
 .text.HAL_GetSystemTime
                0x00001e54       0x4e ./../../../../BitCloud/lib/libHAL_RcbAtm128rfa1_Atmega128rfa1_8Mhz_Gcc.a(appTimer.o)
                0x00001e54                HAL_GetSystemTime
 .text.HAL_TaskHandler
                0x00001ea2      0x1b2 ./../../../../BitCloud/lib/libHAL_RcbAtm128rfa1_Atmega128rfa1_8Mhz_Gcc.a(halTaskManager.o)
                0x00001ea2                HAL_TaskHandler
 .text.halUsartHwController
                0x00002054       0x9a ./../../../../BitCloud/lib/libHAL_RcbAtm128rfa1_Atmega128rfa1_8Mhz_Gcc.a(usart.o)
 .text.halSigUsartReceptionComplete
                0x000020ee       0x54 ./../../../../BitCloud/lib/libHAL_RcbAtm128rfa1_Atmega128rfa1_8Mhz_Gcc.a(usart.o)
 .text.halSetUsartClockPinDirection
                0x00002142       0x36 ./../../../../BitCloud/lib/libHAL_RcbAtm128rfa1_Atmega128rfa1_8Mhz_Gcc.a(usart.o)
 .text.halUsartTaskUsart0Dre
                0x00002178        0x8 ./../../../../BitCloud/lib/libHAL_RcbAtm128rfa1_Atmega128rfa1_8Mhz_Gcc.a(usart.o)
 .text.halUsartTaskUsart0Rxc
                0x00002180        0x8 ./../../../../BitCloud/lib/libHAL_RcbAtm128rfa1_Atmega128rfa1_8Mhz_Gcc.a(usart.o)
 .text.halUsartTaskUsart1Dre
                0x00002188        0x8 ./../../../../BitCloud/lib/libHAL_RcbAtm128rfa1_Atmega128rfa1_8Mhz_Gcc.a(usart.o)
 .text.halUsartTaskUsart1Rxc
                0x00002190        0x8 ./../../../../BitCloud/lib/libHAL_RcbAtm128rfa1_Atmega128rfa1_8Mhz_Gcc.a(usart.o)
 .text.halSigUsartHandler
                0x00002198       0x6e ./../../../../BitCloud/lib/libHAL_RcbAtm128rfa1_Atmega128rfa1_8Mhz_Gcc.a(usart.o)
                0x00002198                halSigUsartHandler
 .text.halPostUsartTask
                0x00002206       0x3c ./../../../../BitCloud/lib/libHAL_RcbAtm128rfa1_Atmega128rfa1_8Mhz_Gcc.a(usart.o)
                0x00002206                halPostUsartTask
 .text.halUsartRxBufferFiller
                0x00002242       0xa4 ./../../../../BitCloud/lib/libHAL_RcbAtm128rfa1_Atmega128rfa1_8Mhz_Gcc.a(usart.o)
                0x00002242                halUsartRxBufferFiller
 .text.halSigUsartTransmissionComplete
                0x000022e6       0x68 ./../../../../BitCloud/lib/libHAL_RcbAtm128rfa1_Atmega128rfa1_8Mhz_Gcc.a(usart.o)
                0x000022e6                halSigUsartTransmissionComplete
 .text.halUsartTaskUsart1Txc
                0x0000234e        0x8 ./../../../../BitCloud/lib/libHAL_RcbAtm128rfa1_Atmega128rfa1_8Mhz_Gcc.a(usart.o)
 .text.halUsartTaskUsart0Txc
                0x00002356        0x8 ./../../../../BitCloud/lib/libHAL_RcbAtm128rfa1_Atmega128rfa1_8Mhz_Gcc.a(usart.o)
 .text.halIsUsartChannelCorrect
                0x0000235e       0x16 ./../../../../BitCloud/lib/libHAL_RcbAtm128rfa1_Atmega128rfa1_8Mhz_Gcc.a(usart.o)
                0x0000235e                halIsUsartChannelCorrect
 .text.HAL_WriteUsart
                0x00002374       0xfc ./../../../../BitCloud/lib/libHAL_RcbAtm128rfa1_Atmega128rfa1_8Mhz_Gcc.a(usart.o)
                0x00002374                HAL_WriteUsart
 .text.HAL_OpenUsart
                0x00002470       0x92 ./../../../../BitCloud/lib/libHAL_RcbAtm128rfa1_Atmega128rfa1_8Mhz_Gcc.a(usart.o)
                0x00002470                HAL_OpenUsart
 .text.HAL_EnableIrq
                0x00002502       0x3c ./../../../../BitCloud/lib/libHAL_RcbAtm128rfa1_Atmega128rfa1_8Mhz_Gcc.a(irq.o)
                0x00002502                HAL_EnableIrq
 .text.halI2cBusReset
                0x0000253e       0x36 ./../../../../BitCloud/lib/libHAL_RcbAtm128rfa1_Atmega128rfa1_8Mhz_Gcc.a(i2cPacket.o)
                0x0000253e                halI2cBusReset
 .text.halSendStartDoneI2c
                0x00002574       0x3e ./../../../../BitCloud/lib/libHAL_RcbAtm128rfa1_Atmega128rfa1_8Mhz_Gcc.a(i2cPacket.o)
                0x00002574                halSendStartDoneI2c
 .text.halWriteData
                0x000025b2       0x64 ./../../../../BitCloud/lib/libHAL_RcbAtm128rfa1_Atmega128rfa1_8Mhz_Gcc.a(i2cPacket.o)
                0x000025b2                halWriteData
 .text.halWriteInternalAddress
                0x00002616       0x5c ./../../../../BitCloud/lib/libHAL_RcbAtm128rfa1_Atmega128rfa1_8Mhz_Gcc.a(i2cPacket.o)
                0x00002616                halWriteInternalAddress
 .text.halWriteDoneI2c
                0x00002672       0x3a ./../../../../BitCloud/lib/libHAL_RcbAtm128rfa1_Atmega128rfa1_8Mhz_Gcc.a(i2cPacket.o)
                0x00002672                halWriteDoneI2c
 .text.halMasterReadWriteAddressAckI2c
                0x000026ac       0x3c ./../../../../BitCloud/lib/libHAL_RcbAtm128rfa1_Atmega128rfa1_8Mhz_Gcc.a(i2cPacket.o)
                0x000026ac                halMasterReadWriteAddressAckI2c
 .text.halReadDoneI2c
                0x000026e8       0x58 ./../../../../BitCloud/lib/libHAL_RcbAtm128rfa1_Atmega128rfa1_8Mhz_Gcc.a(i2cPacket.o)
                0x000026e8                halReadDoneI2c
 .text.halReadLastByteDoneI2c
                0x00002740       0x58 ./../../../../BitCloud/lib/libHAL_RcbAtm128rfa1_Atmega128rfa1_8Mhz_Gcc.a(i2cPacket.o)
                0x00002740                halReadLastByteDoneI2c
 .text.halSig2WireSerialHandler
                0x00002798       0x46 ./../../../../BitCloud/lib/libHAL_RcbAtm128rfa1_Atmega128rfa1_8Mhz_Gcc.a(i2cPacket.o)
                0x00002798                halSig2WireSerialHandler
 .text.HAL_ReadEeprom
                0x000027de       0xc8 ./../../../../BitCloud/lib/libHAL_RcbAtm128rfa1_Atmega128rfa1_8Mhz_Gcc.a(eeprom.o)
                0x000027de                HAL_ReadEeprom
 .text.HAL_WriteEeprom
                0x000028a6       0xea ./../../../../BitCloud/lib/libHAL_RcbAtm128rfa1_Atmega128rfa1_8Mhz_Gcc.a(eeprom.o)
                0x000028a6                HAL_WriteEeprom
 .text.HAL_IsEepromBusy
                0x00002990        0xe ./../../../../BitCloud/lib/libHAL_RcbAtm128rfa1_Atmega128rfa1_8Mhz_Gcc.a(eeprom.o)
                0x00002990                HAL_IsEepromBusy
 .text.halSigEepromReadyHandler
                0x0000299e       0x60 ./../../../../BitCloud/lib/libHAL_RcbAtm128rfa1_Atmega128rfa1_8Mhz_Gcc.a(eeprom.o)
                0x0000299e                halSigEepromReadyHandler
 .text.halAddTimer
                0x000029fe      0x370 ./../../../../BitCloud/lib/libHAL_RcbAtm128rfa1_Atmega128rfa1_8Mhz_Gcc.a(timer.o)
                0x000029fe                halAddTimer
 .text.halRemoveTimer
                0x00002d6e       0x3e ./../../../../BitCloud/lib/libHAL_RcbAtm128rfa1_Atmega128rfa1_8Mhz_Gcc.a(timer.o)
                0x00002d6e                halRemoveTimer
 .text.halFindPrevTimer
                0x00002dac       0x1e ./../../../../BitCloud/lib/libHAL_RcbAtm128rfa1_Atmega128rfa1_8Mhz_Gcc.a(timer.o)
                0x00002dac                halFindPrevTimer
 .text.halSigAdcHandler
                0x00002dca       0x16 ./../../../../BitCloud/lib/libHAL_RcbAtm128rfa1_Atmega128rfa1_8Mhz_Gcc.a(adc.o)
                0x00002dca                halSigAdcHandler
 .text.halClearRealSpi
                0x00002de0        0x8 ./../../../../BitCloud/lib/libHAL_RcbAtm128rfa1_Atmega128rfa1_8Mhz_Gcc.a(spi.o)
 .text.halSpiTxByteComplete
                0x00002de8       0x32 ./../../../../BitCloud/lib/libHAL_RcbAtm128rfa1_Atmega128rfa1_8Mhz_Gcc.a(spi.o)
                0x00002de8                halSpiTxByteComplete
 .text.halSpiRxBufferFiller
                0x00002e1a       0x58 ./../../../../BitCloud/lib/libHAL_RcbAtm128rfa1_Atmega128rfa1_8Mhz_Gcc.a(spi.o)
                0x00002e1a                halSpiRxBufferFiller
 .text.halSpiRxByteComplete
                0x00002e72       0x24 ./../../../../BitCloud/lib/libHAL_RcbAtm128rfa1_Atmega128rfa1_8Mhz_Gcc.a(spi.o)
                0x00002e72                halSpiRxByteComplete
 .text.halClearTimeControl
                0x00002e96       0x14 ./../../../../BitCloud/lib/libHAL_RcbAtm128rfa1_Atmega128rfa1_8Mhz_Gcc.a(halSleepTimerClock.o)
                0x00002e96                halClearTimeControl
 .text.halWakeupFromIrq
                0x00002eaa       0x28 ./../../../../BitCloud/lib/libHAL_RcbAtm128rfa1_Atmega128rfa1_8Mhz_Gcc.a(halSleepTimerClock.o)
                0x00002eaa                halWakeupFromIrq
 .text.halStartSleepTimerClock
                0x00002ed2       0x48 ./../../../../BitCloud/lib/libHAL_RcbAtm128rfa1_Atmega128rfa1_8Mhz_Gcc.a(halSleepTimerClock.o)
                0x00002ed2                halStartSleepTimerClock
 .text.halStopSleepTimerClock
                0x00002f1a       0x42 ./../../../../BitCloud/lib/libHAL_RcbAtm128rfa1_Atmega128rfa1_8Mhz_Gcc.a(halSleepTimerClock.o)
                0x00002f1a                halStopSleepTimerClock
 .text.halSetSleepTimerInterval
                0x00002f5c       0x6a ./../../../../BitCloud/lib/libHAL_RcbAtm128rfa1_Atmega128rfa1_8Mhz_Gcc.a(halSleepTimerClock.o)
                0x00002f5c                halSetSleepTimerInterval
 .text.halGetTimeOfSleepTimer
                0x00002fc6       0xbc ./../../../../BitCloud/lib/libHAL_RcbAtm128rfa1_Atmega128rfa1_8Mhz_Gcc.a(halSleepTimerClock.o)
                0x00002fc6                halGetTimeOfSleepTimer
 .text.halSleepTimerFrequency
                0x00003082        0xa ./../../../../BitCloud/lib/libHAL_RcbAtm128rfa1_Atmega128rfa1_8Mhz_Gcc.a(halSleepTimerClock.o)
                0x00003082                halSleepTimerFrequency
 .text.halSleepSystemTimeSynchronize
                0x0000308c       0x62 ./../../../../BitCloud/lib/libHAL_RcbAtm128rfa1_Atmega128rfa1_8Mhz_Gcc.a(halSleepTimerClock.o)
                0x0000308c                halSleepSystemTimeSynchronize
 .text.__vector_13
                0x000030ee       0x92 ./../../../../BitCloud/lib/libHAL_RcbAtm128rfa1_Atmega128rfa1_8Mhz_Gcc.a(halSleepTimerClock.o)
                0x000030ee                __vector_13
 .text.__vector_15
                0x00003180      0x10a ./../../../../BitCloud/lib/libHAL_RcbAtm128rfa1_Atmega128rfa1_8Mhz_Gcc.a(halSleepTimerClock.o)
                0x00003180                __vector_15
 .text.halSmRequestHandler
                0x0000328a      0x15c ./../../../../BitCloud/lib/libHAL_RcbAtm128rfa1_Atmega128rfa1_8Mhz_Gcc.a(halSecurityModule.o)
                0x0000328a                halSmRequestHandler
 .text.halInitAppClock
                0x000033e6       0x26 ./../../../../BitCloud/lib/libHAL_RcbAtm128rfa1_Atmega128rfa1_8Mhz_Gcc.a(halAppClock.o)
                0x000033e6                halInitAppClock
 .text.halAdjustSleepInterval
                0x0000340c       0x50 ./../../../../BitCloud/lib/libHAL_RcbAtm128rfa1_Atmega128rfa1_8Mhz_Gcc.a(halAppClock.o)
                0x0000340c                halAdjustSleepInterval
 .text.halAppSystemTimeSynchronize
                0x0000345c       0x62 ./../../../../BitCloud/lib/libHAL_RcbAtm128rfa1_Atmega128rfa1_8Mhz_Gcc.a(halAppClock.o)
                0x0000345c                halAppSystemTimeSynchronize
 .text.halGetTimeOfAppTimer
                0x000034be       0x16 ./../../../../BitCloud/lib/libHAL_RcbAtm128rfa1_Atmega128rfa1_8Mhz_Gcc.a(halAppClock.o)
                0x000034be                halGetTimeOfAppTimer
 .text.__vector_42
                0x000034d4       0x4c ./../../../../BitCloud/lib/libHAL_RcbAtm128rfa1_Atmega128rfa1_8Mhz_Gcc.a(halAppClock.o)
                0x000034d4                __vector_42
 .text.halSetUsartConfig
                0x00003520       0xb2 ./../../../../BitCloud/lib/libHAL_RcbAtm128rfa1_Atmega128rfa1_8Mhz_Gcc.a(halUsart.o)
                0x00003520                halSetUsartConfig
 .text.__vector_26
                0x000035d2       0x5c ./../../../../BitCloud/lib/libHAL_RcbAtm128rfa1_Atmega128rfa1_8Mhz_Gcc.a(halUsart.o)
                0x000035d2                __vector_26
 .text.__vector_27
                0x0000362e       0x5c ./../../../../BitCloud/lib/libHAL_RcbAtm128rfa1_Atmega128rfa1_8Mhz_Gcc.a(halUsart.o)
                0x0000362e                __vector_27
 .text.__vector_25
                0x0000368a       0x64 ./../../../../BitCloud/lib/libHAL_RcbAtm128rfa1_Atmega128rfa1_8Mhz_Gcc.a(halUsart.o)
                0x0000368a                __vector_25
 .text.__vector_37
                0x000036ee       0x5c ./../../../../BitCloud/lib/libHAL_RcbAtm128rfa1_Atmega128rfa1_8Mhz_Gcc.a(halUsart.o)
                0x000036ee                __vector_37
 .text.__vector_38
                0x0000374a       0x5c ./../../../../BitCloud/lib/libHAL_RcbAtm128rfa1_Atmega128rfa1_8Mhz_Gcc.a(halUsart.o)
                0x0000374a                __vector_38
 .text.__vector_36
                0x000037a6       0x64 ./../../../../BitCloud/lib/libHAL_RcbAtm128rfa1_Atmega128rfa1_8Mhz_Gcc.a(halUsart.o)
                0x000037a6                __vector_36
 .text.__vector_1
                0x0000380a       0x5a ./../../../../BitCloud/lib/libHAL_RcbAtm128rfa1_Atmega128rfa1_8Mhz_Gcc.a(halIrq.o)
                0x0000380a                __vector_1
 .text.__vector_2
                0x00003864       0x5a ./../../../../BitCloud/lib/libHAL_RcbAtm128rfa1_Atmega128rfa1_8Mhz_Gcc.a(halIrq.o)
                0x00003864                __vector_2
 .text.__vector_3
                0x000038be       0x5a ./../../../../BitCloud/lib/libHAL_RcbAtm128rfa1_Atmega128rfa1_8Mhz_Gcc.a(halIrq.o)
                0x000038be                __vector_3
 .text.__vector_4
                0x00003918       0x5a ./../../../../BitCloud/lib/libHAL_RcbAtm128rfa1_Atmega128rfa1_8Mhz_Gcc.a(halIrq.o)
                0x00003918                __vector_4
 .text.__vector_5
                0x00003972       0x5a ./../../../../BitCloud/lib/libHAL_RcbAtm128rfa1_Atmega128rfa1_8Mhz_Gcc.a(halIrq.o)
                0x00003972                __vector_5
 .text.__vector_6
                0x000039cc       0x5a ./../../../../BitCloud/lib/libHAL_RcbAtm128rfa1_Atmega128rfa1_8Mhz_Gcc.a(halIrq.o)
                0x000039cc                __vector_6
 .text.__vector_7
                0x00003a26       0x5a ./../../../../BitCloud/lib/libHAL_RcbAtm128rfa1_Atmega128rfa1_8Mhz_Gcc.a(halIrq.o)
                0x00003a26                __vector_7
 .text.__vector_8
                0x00003a80       0x5a ./../../../../BitCloud/lib/libHAL_RcbAtm128rfa1_Atmega128rfa1_8Mhz_Gcc.a(halIrq.o)
                0x00003a80                __vector_8
 .text.__vector_39
                0x00003ada       0xda ./../../../../BitCloud/lib/libHAL_RcbAtm128rfa1_Atmega128rfa1_8Mhz_Gcc.a(halTwi.o)
                0x00003ada                __vector_39
 .text.halEepromWrite
                0x00003bb4       0x1c ./../../../../BitCloud/lib/libHAL_RcbAtm128rfa1_Atmega128rfa1_8Mhz_Gcc.a(halEeprom.o)
                0x00003bb4                halEepromWrite
 .text.__vector_30
                0x00003bd0       0x44 ./../../../../BitCloud/lib/libHAL_RcbAtm128rfa1_Atmega128rfa1_8Mhz_Gcc.a(halEeprom.o)
                0x00003bd0                __vector_30
 .text.halPowerOn
                0x00003c14       0x3e ./../../../../BitCloud/lib/libHAL_RcbAtm128rfa1_Atmega128rfa1_8Mhz_Gcc.a(halSleep.o)
                0x00003c14                halPowerOn
 .text.halPowerOff
                0x00003c52       0x9a ./../../../../BitCloud/lib/libHAL_RcbAtm128rfa1_Atmega128rfa1_8Mhz_Gcc.a(halSleep.o)
                0x00003c52                halPowerOff
 .text.HAL_Sleep
                0x00003cec       0x40 ./../../../../BitCloud/lib/libHAL_RcbAtm128rfa1_Atmega128rfa1_8Mhz_Gcc.a(halSleep.o)
                0x00003cec                HAL_Sleep
 .text.halWakeupHandler
                0x00003d2c       0x6a ./../../../../BitCloud/lib/libHAL_RcbAtm128rfa1_Atmega128rfa1_8Mhz_Gcc.a(halSleep.o)
                0x00003d2c                halWakeupHandler
 .text.__vector_29
                0x00003d96       0xcc ./../../../../BitCloud/lib/libHAL_RcbAtm128rfa1_Atmega128rfa1_8Mhz_Gcc.a(halAdc.o)
                0x00003d96                __vector_29
 .text.__vector_24
                0x00003e62       0x8c ./../../../../BitCloud/lib/libHAL_RcbAtm128rfa1_Atmega128rfa1_8Mhz_Gcc.a(halSpi.o)
                0x00003e62                __vector_24
 .text.halCalibrateInternalRc
                0x00003eee       0xda ./../../../../BitCloud/lib/libHAL_RcbAtm128rfa1_Atmega128rfa1_8Mhz_Gcc.a(calibration.o)
                0x00003eee                halCalibrateInternalRc
 .text.HAL_CalibrateMainClock
                0x00003fc8        0xe ./../../../../BitCloud/lib/libHAL_RcbAtm128rfa1_Atmega128rfa1_8Mhz_Gcc.a(calibration.o)
                0x00003fc8                HAL_CalibrateMainClock
 .text.halStartingCalibrate
                0x00003fd6       0x1c ./../../../../BitCloud/lib/libHAL_RcbAtm128rfa1_Atmega128rfa1_8Mhz_Gcc.a(calibration.o)
                0x00003fd6                halStartingCalibrate
 .text.HAL_StartSleepTimer
                0x00003ff2       0x72 ./../../../../BitCloud/lib/libHAL_RcbAtm128rfa1_Atmega128rfa1_8Mhz_Gcc.a(sleepTimer.o)
                0x00003ff2                HAL_StartSleepTimer
 .text.halAsyncTimerHandler
                0x00004064       0x52 ./../../../../BitCloud/lib/libHAL_RcbAtm128rfa1_Atmega128rfa1_8Mhz_Gcc.a(sleepTimer.o)
                0x00004064                halAsyncTimerHandler
 .text.HAL_StartSystemSleep
                0x000040b6       0x7a ./../../../../BitCloud/lib/libHAL_RcbAtm128rfa1_Atmega128rfa1_8Mhz_Gcc.a(sleep.o)
                0x000040b6                HAL_StartSystemSleep
 .text.halInitFreq
                0x00004130       0x6c ./../../../../BitCloud/lib/libHAL_RcbAtm128rfa1_Atmega128rfa1_8Mhz_Gcc.a(halClkCtrl.o)
                0x00004130                halInitFreq
 .text.halGetClockSource
                0x0000419c        0x6 ./../../../../BitCloud/lib/libHAL_RcbAtm128rfa1_Atmega128rfa1_8Mhz_Gcc.a(halClkCtrl.o)
                0x0000419c                halGetClockSource
 .text.apsGetApsCounter
                0x000041a2        0xe ./../../../../BitCloud/lib/libBc_Coordinator_Atmega128rfa1_Atmega128rfa1_Gcc.a(aps.o)
 .text.apsPrepareFragmentedTransmission
                0x000041b0       0x70 ./../../../../BitCloud/lib/libBc_Coordinator_Atmega128rfa1_Atmega128rfa1_Gcc.a(aps.o)
 .text.apsIsFragmentationDataReq
                0x00004220       0x22 ./../../../../BitCloud/lib/libBc_Coordinator_Atmega128rfa1_Atmega128rfa1_Gcc.a(aps.o)
 .text.apsGetBuffer
                0x00004242       0xd6 ./../../../../BitCloud/lib/libBc_Coordinator_Atmega128rfa1_Atmega128rfa1_Gcc.a(aps.o)
 .text.apsFreeBuffer
                0x00004318       0x8e ./../../../../BitCloud/lib/libBc_Coordinator_Atmega128rfa1_Atmega128rfa1_Gcc.a(aps.o)
 .text.apsPostTask
                0x000043a6       0x32 ./../../../../BitCloud/lib/libBc_Coordinator_Atmega128rfa1_Atmega128rfa1_Gcc.a(aps.o)
 .text.apsMakeApsDataConf
                0x000043d8       0x5a ./../../../../BitCloud/lib/libBc_Coordinator_Atmega128rfa1_Atmega128rfa1_Gcc.a(aps.o)
 .text.apsAckForFragmentedReceiveConfirmHandler
                0x00004432       0x9e ./../../../../BitCloud/lib/libBc_Coordinator_Atmega128rfa1_Atmega128rfa1_Gcc.a(aps.o)
 .text.apsStopConf
                0x000044d0       0x4a ./../../../../BitCloud/lib/libBc_Coordinator_Atmega128rfa1_Atmega128rfa1_Gcc.a(aps.o)
 .text.apsSendNwkDataReq
                0x0000451a       0x10 ./../../../../BitCloud/lib/libBc_Coordinator_Atmega128rfa1_Atmega128rfa1_Gcc.a(aps.o)
 .text.apsProcessShortAddrModeDataReq
                0x0000452a      0x296 ./../../../../BitCloud/lib/libBc_Coordinator_Atmega128rfa1_Atmega128rfa1_Gcc.a(aps.o)
 .text.apsSendNextBlock
                0x000047c0       0x14 ./../../../../BitCloud/lib/libBc_Coordinator_Atmega128rfa1_Atmega128rfa1_Gcc.a(aps.o)
 .text.apsSendAckForFragmentedReceive
                0x000047d4       0xce ./../../../../BitCloud/lib/libBc_Coordinator_Atmega128rfa1_Atmega128rfa1_Gcc.a(aps.o)
 .text.apsDataManagerNwkDataConf
                0x000048a2       0x1c ./../../../../BitCloud/lib/libBc_Coordinator_Atmega128rfa1_Atmega128rfa1_Gcc.a(aps.o)
 .text.apsProcessEvent
                0x000048be       0x26 ./../../../../BitCloud/lib/libBc_Coordinator_Atmega128rfa1_Atmega128rfa1_Gcc.a(aps.o)
 .text.apsProcessGroupAddrModeDataReq
                0x000048e4      0x190 ./../../../../BitCloud/lib/libBc_Coordinator_Atmega128rfa1_Atmega128rfa1_Gcc.a(aps.o)
 .text.apsCalculateApsAckTimeout
                0x00004a74       0x56 ./../../../../BitCloud/lib/libBc_Coordinator_Atmega128rfa1_Atmega128rfa1_Gcc.a(aps.o)
 .text.apsGroupNwkDataConf
                0x00004aca       0x4a ./../../../../BitCloud/lib/libBc_Coordinator_Atmega128rfa1_Atmega128rfa1_Gcc.a(aps.o)
 .text.apsNextBind
                0x00004b14       0xb0 ./../../../../BitCloud/lib/libBc_Coordinator_Atmega128rfa1_Atmega128rfa1_Gcc.a(aps.o)
 .text.apsSendToNextBoundDevice
                0x00004bc4       0x9c ./../../../../BitCloud/lib/libBc_Coordinator_Atmega128rfa1_Atmega128rfa1_Gcc.a(aps.o)
 .text.apsProcessIndirectDataReq
                0x00004c60       0x2c ./../../../../BitCloud/lib/libBc_Coordinator_Atmega128rfa1_Atmega128rfa1_Gcc.a(aps.o)
 .text.apsFindBindingEntry
                0x00004c8c       0xc6 ./../../../../BitCloud/lib/libBc_Coordinator_Atmega128rfa1_Atmega128rfa1_Gcc.a(aps.o)
 .text.SYS_GetRandomNumber
                0x00004d52       0x2a ./../../../../BitCloud/lib/libBc_Coordinator_Atmega128rfa1_Atmega128rfa1_Gcc.a(aps.o)
 .text.apsResetMemoryManager
                0x00004d7c       0xfa ./../../../../BitCloud/lib/libBc_Coordinator_Atmega128rfa1_Atmega128rfa1_Gcc.a(aps.o)
 .text.apsAckOnTimerFired
                0x00004e76       0xf8 ./../../../../BitCloud/lib/libBc_Coordinator_Atmega128rfa1_Atmega128rfa1_Gcc.a(aps.o)
 .text.apsHandleTransmittedData.clone.10
                0x00004f6e       0x6e ./../../../../BitCloud/lib/libBc_Coordinator_Atmega128rfa1_Atmega128rfa1_Gcc.a(aps.o)
 .text.APS_BindReq
                0x00004fdc       0xa6 ./../../../../BitCloud/lib/libBc_Coordinator_Atmega128rfa1_Atmega128rfa1_Gcc.a(aps.o)
                0x00004fdc                APS_BindReq
 .text.APS_UnbindReq
                0x00005082       0x4a ./../../../../BitCloud/lib/libBc_Coordinator_Atmega128rfa1_Atmega128rfa1_Gcc.a(aps.o)
                0x00005082                APS_UnbindReq
 .text.APS_DataReq
                0x000050cc       0x12 ./../../../../BitCloud/lib/libBc_Coordinator_Atmega128rfa1_Atmega128rfa1_Gcc.a(aps.o)
                0x000050cc                APS_DataReq
 .text.NWK_DataInd
                0x000050de       0x12 ./../../../../BitCloud/lib/libBc_Coordinator_Atmega128rfa1_Atmega128rfa1_Gcc.a(aps.o)
                0x000050de                NWK_DataInd
 .text.APS_CalculateTimes
                0x000050f0      0x1b2 ./../../../../BitCloud/lib/libBc_Coordinator_Atmega128rfa1_Atmega128rfa1_Gcc.a(aps.o)
                0x000050f0                APS_CalculateTimes
 .text.apsResetDataManager
                0x000052a2      0x110 ./../../../../BitCloud/lib/libBc_Coordinator_Atmega128rfa1_Atmega128rfa1_Gcc.a(aps.o)
 .text.apsNwkResetConf
                0x000053b2      0x196 ./../../../../BitCloud/lib/libBc_Coordinator_Atmega128rfa1_Atmega128rfa1_Gcc.a(aps.o)
 .text.apsStateMachineTaskHandler
                0x00005548       0xee ./../../../../BitCloud/lib/libBc_Coordinator_Atmega128rfa1_Atmega128rfa1_Gcc.a(aps.o)
 .text.APS_IsProfileIdMatched
                0x00005636       0x22 ./../../../../BitCloud/lib/libBc_Coordinator_Atmega128rfa1_Atmega128rfa1_Gcc.a(aps.o)
                0x00005636                APS_IsProfileIdMatched
 .text.APS_NextEndpoint
                0x00005658       0x16 ./../../../../BitCloud/lib/libBc_Coordinator_Atmega128rfa1_Atmega128rfa1_Gcc.a(aps.o)
                0x00005658                APS_NextEndpoint
 .text.apsFindEndpoint
                0x0000566e       0x26 ./../../../../BitCloud/lib/libBc_Coordinator_Atmega128rfa1_Atmega128rfa1_Gcc.a(aps.o)
 .text.APS_RegisterEndpointReq
                0x00005694       0x48 ./../../../../BitCloud/lib/libBc_Coordinator_Atmega128rfa1_Atmega128rfa1_Gcc.a(aps.o)
                0x00005694                APS_RegisterEndpointReq
 .text.apsGroupIndication
                0x000056dc       0x8a ./../../../../BitCloud/lib/libBc_Coordinator_Atmega128rfa1_Atmega128rfa1_Gcc.a(aps.o)
 .text.apsUnicastDataInd
                0x00005766      0x2a2 ./../../../../BitCloud/lib/libBc_Coordinator_Atmega128rfa1_Atmega128rfa1_Gcc.a(aps.o)
 .text.apsApduUnicastHandler.clone.8
                0x00005a08      0x5dc ./../../../../BitCloud/lib/libBc_Coordinator_Atmega128rfa1_Atmega128rfa1_Gcc.a(aps.o)
 .text.apsDataTaskHandler
                0x00005fe4      0xb20 ./../../../../BitCloud/lib/libBc_Coordinator_Atmega128rfa1_Atmega128rfa1_Gcc.a(aps.o)
 .text.APS_Init
                0x00006b04       0x2e ./../../../../BitCloud/lib/libBc_Coordinator_Atmega128rfa1_Atmega128rfa1_Gcc.a(aps.o)
                0x00006b04                APS_Init
 .text.APS_ResetReq
                0x00006b32        0xc ./../../../../BitCloud/lib/libBc_Coordinator_Atmega128rfa1_Atmega128rfa1_Gcc.a(aps.o)
                0x00006b32                APS_ResetReq
 .text.APS_StartReq
                0x00006b3e        0xc ./../../../../BitCloud/lib/libBc_Coordinator_Atmega128rfa1_Atmega128rfa1_Gcc.a(aps.o)
                0x00006b3e                APS_StartReq
 .text.APS_StopReq
                0x00006b4a        0xc ./../../../../BitCloud/lib/libBc_Coordinator_Atmega128rfa1_Atmega128rfa1_Gcc.a(aps.o)
                0x00006b4a                APS_StopReq
 .text.APS_IsActiveTransaction
                0x00006b56       0x54 ./../../../../BitCloud/lib/libBc_Coordinator_Atmega128rfa1_Atmega128rfa1_Gcc.a(aps.o)
                0x00006b56                APS_IsActiveTransaction
 .text.APS_TaskHandler
                0x00006baa       0x9c ./../../../../BitCloud/lib/libBc_Coordinator_Atmega128rfa1_Atmega128rfa1_Gcc.a(aps.o)
                0x00006baa                APS_TaskHandler
 .text.getSymbolsPerOctet
                0x00006c46       0x3c ./../../../../BitCloud/lib/libBc_Coordinator_Atmega128rfa1_Atmega128rfa1_Gcc.a(macenvPib.o)
 .text.calculateMaxFrameDuration
                0x00006c82       0x22 ./../../../../BitCloud/lib/libBc_Coordinator_Atmega128rfa1_Atmega128rfa1_Gcc.a(macenvPib.o)
 .text.storeTransmitPower
                0x00006ca4       0x44 ./../../../../BitCloud/lib/libBc_Coordinator_Atmega128rfa1_Atmega128rfa1_Gcc.a(macenvPib.o)
 .text.SYS_GetRandomNumber
                0x00006ce8       0x2a ./../../../../BitCloud/lib/libBc_Coordinator_Atmega128rfa1_Atmega128rfa1_Gcc.a(macenvPib.o)
 .text.macenvGetPhySymbolDuration
                0x00006d12       0x4a ./../../../../BitCloud/lib/libBc_Coordinator_Atmega128rfa1_Atmega128rfa1_Gcc.a(macenvPib.o)
                0x00006d12                macenvGetPhySymbolDuration
 .text.updateMaxFrameTxTime
                0x00006d5c       0x3a ./../../../../BitCloud/lib/libBc_Coordinator_Atmega128rfa1_Atmega128rfa1_Gcc.a(macenvPib.o)
 .text.macenvResetPib
                0x00006d96       0xfa ./../../../../BitCloud/lib/libBc_Coordinator_Atmega128rfa1_Atmega128rfa1_Gcc.a(macenvPib.o)
                0x00006d96                macenvResetPib
 .text.macenvConvertTransPersistTimeFromUnitsToMs
                0x00006e90       0x48 ./../../../../BitCloud/lib/libBc_Coordinator_Atmega128rfa1_Atmega128rfa1_Gcc.a(macenvPib.o)
                0x00006e90                macenvConvertTransPersistTimeFromUnitsToMs
 .text.macenvSetPibAttr
                0x00006ed8      0x2a0 ./../../../../BitCloud/lib/libBc_Coordinator_Atmega128rfa1_Atmega128rfa1_Gcc.a(macenvPib.o)
                0x00006ed8                macenvSetPibAttr
 .text.macenvCalculateMaxFrameTotalWaitTimeInMs
                0x00007178      0x128 ./../../../../BitCloud/lib/libBc_Coordinator_Atmega128rfa1_Atmega128rfa1_Gcc.a(macenvPib.o)
                0x00007178                macenvCalculateMaxFrameTotalWaitTimeInMs
 .text.macenvCalculateResponceWaitTimeInMs
                0x000072a0       0x42 ./../../../../BitCloud/lib/libBc_Coordinator_Atmega128rfa1_Atmega128rfa1_Gcc.a(macenvPib.o)
                0x000072a0                macenvCalculateResponceWaitTimeInMs
 .text.macenvGetPibAttr
                0x000072e2      0x216 ./../../../../BitCloud/lib/libBc_Coordinator_Atmega128rfa1_Atmega128rfa1_Gcc.a(macenvPib.o)
                0x000072e2                macenvGetPibAttr
 .text.MAC_GetExtAddr
                0x000074f8        0x6 ./../../../../BitCloud/lib/libBc_Coordinator_Atmega128rfa1_Atmega128rfa1_Gcc.a(macenvPib.o)
                0x000074f8                MAC_GetExtAddr
 .text.MAC_SetExtAddr
                0x000074fe       0x34 ./../../../../BitCloud/lib/libBc_Coordinator_Atmega128rfa1_Atmega128rfa1_Gcc.a(macenvPib.o)
                0x000074fe                MAC_SetExtAddr
 .text.MAC_IsOwnExtAddr
                0x00007532       0x1c ./../../../../BitCloud/lib/libBc_Coordinator_Atmega128rfa1_Atmega128rfa1_Gcc.a(macenvPib.o)
                0x00007532                MAC_IsOwnExtAddr
 .text.MAC_GetOctetsTransmissionTimeInMs
                0x0000754e       0x5e ./../../../../BitCloud/lib/libBc_Coordinator_Atmega128rfa1_Atmega128rfa1_Gcc.a(macenvPib.o)
                0x0000754e                MAC_GetOctetsTransmissionTimeInMs
 .text.nwkBroadcastForMe
                0x000075ac       0x60 ./../../../../BitCloud/lib/libBc_Coordinator_Atmega128rfa1_Atmega128rfa1_Gcc.a(nwk.o)
 .text.nwkAddressConflictIsIdle
                0x0000760c        0xe ./../../../../BitCloud/lib/libBc_Coordinator_Atmega128rfa1_Atmega128rfa1_Gcc.a(nwk.o)
 .text.nwkFindAddressMapEntryByShortAddr
                0x0000761a       0x30 ./../../../../BitCloud/lib/libBc_Coordinator_Atmega128rfa1_Atmega128rfa1_Gcc.a(nwk.o)
 .text.nwkDataReqIsIdle
                0x0000764a        0xe ./../../../../BitCloud/lib/libBc_Coordinator_Atmega128rfa1_Atmega128rfa1_Gcc.a(nwk.o)
 .text.nwkDiscoveryIsIdle
                0x00007658        0xe ./../../../../BitCloud/lib/libBc_Coordinator_Atmega128rfa1_Atmega128rfa1_Gcc.a(nwk.o)
 .text.nwkEDScanIsIdle
                0x00007666        0xe ./../../../../BitCloud/lib/libBc_Coordinator_Atmega128rfa1_Atmega128rfa1_Gcc.a(nwk.o)
 .text.nwkFormationIsIdle
                0x00007674        0xe ./../../../../BitCloud/lib/libBc_Coordinator_Atmega128rfa1_Atmega128rfa1_Gcc.a(nwk.o)
 .text.nwkJoinIndIsIdle
                0x00007682       0x30 ./../../../../BitCloud/lib/libBc_Coordinator_Atmega128rfa1_Atmega128rfa1_Gcc.a(nwk.o)
 .text.nwkLeaveReqIsIdle
                0x000076b2        0xe ./../../../../BitCloud/lib/libBc_Coordinator_Atmega128rfa1_Atmega128rfa1_Gcc.a(nwk.o)
 .text.nwkLinkStatusIsIdle
                0x000076c0        0xe ./../../../../BitCloud/lib/libBc_Coordinator_Atmega128rfa1_Atmega128rfa1_Gcc.a(nwk.o)
 .text.nwkLoopbackIsIdle
                0x000076ce        0xe ./../../../../BitCloud/lib/libBc_Coordinator_Atmega128rfa1_Atmega128rfa1_Gcc.a(nwk.o)
 .text.nwkGetOutgoingCost
                0x000076dc       0x44 ./../../../../BitCloud/lib/libBc_Coordinator_Atmega128rfa1_Atmega128rfa1_Gcc.a(nwk.o)
 .text.nwkGetEdCapacity
                0x00007720       0x1c ./../../../../BitCloud/lib/libBc_Coordinator_Atmega128rfa1_Atmega128rfa1_Gcc.a(nwk.o)
 .text.nwkGetRouterCapacity
                0x0000773c       0x1c ./../../../../BitCloud/lib/libBc_Coordinator_Atmega128rfa1_Atmega128rfa1_Gcc.a(nwk.o)
 .text.nwkIsJoiningForbidden
                0x00007758       0x3e ./../../../../BitCloud/lib/libBc_Coordinator_Atmega128rfa1_Atmega128rfa1_Gcc.a(nwk.o)
 .text.nwkUpdateCapacityBits
                0x00007796       0x56 ./../../../../BitCloud/lib/libBc_Coordinator_Atmega128rfa1_Atmega128rfa1_Gcc.a(nwk.o)
 .text.nwkUpdateCapacityBitsInBeacon
                0x000077ec       0x3c ./../../../../BitCloud/lib/libBc_Coordinator_Atmega128rfa1_Atmega128rfa1_Gcc.a(nwk.o)
 .text.nwkUpdateBeaconPayload
                0x00007828       0x94 ./../../../../BitCloud/lib/libBc_Coordinator_Atmega128rfa1_Atmega128rfa1_Gcc.a(nwk.o)
 .text.nwkFreeNeighbor
                0x000078bc       0x26 ./../../../../BitCloud/lib/libBc_Coordinator_Atmega128rfa1_Atmega128rfa1_Gcc.a(nwk.o)
 .text.nwkCostFromLqi
                0x000078e2       0x3a ./../../../../BitCloud/lib/libBc_Coordinator_Atmega128rfa1_Atmega128rfa1_Gcc.a(nwk.o)
 .text.nwkInitLqiAndCostOfNeighbor
                0x0000791c       0x70 ./../../../../BitCloud/lib/libBc_Coordinator_Atmega128rfa1_Atmega128rfa1_Gcc.a(nwk.o)
 .text.nwkUpdateLqiAndCostOfNeighbor
                0x0000798c       0x88 ./../../../../BitCloud/lib/libBc_Coordinator_Atmega128rfa1_Atmega128rfa1_Gcc.a(nwk.o)
 .text.nwkFindPassiveAck
                0x00007a14       0x2a ./../../../../BitCloud/lib/libBc_Coordinator_Atmega128rfa1_Atmega128rfa1_Gcc.a(nwk.o)
 .text.nwkNewPassiveAck
                0x00007a3e       0xfa ./../../../../BitCloud/lib/libBc_Coordinator_Atmega128rfa1_Atmega128rfa1_Gcc.a(nwk.o)
 .text.nwkFreePassiveAck
                0x00007b38       0x2e ./../../../../BitCloud/lib/libBc_Coordinator_Atmega128rfa1_Atmega128rfa1_Gcc.a(nwk.o)
 .text.nwkPermitJoiningIsIdle
                0x00007b66       0x1c ./../../../../BitCloud/lib/libBc_Coordinator_Atmega128rfa1_Atmega128rfa1_Gcc.a(nwk.o)
 .text.nwkResetIsIdle
                0x00007b82        0xe ./../../../../BitCloud/lib/libBc_Coordinator_Atmega128rfa1_Atmega128rfa1_Gcc.a(nwk.o)
 .text.nwkRouteDiscoveryIsIdle
                0x00007b90       0x14 ./../../../../BitCloud/lib/libBc_Coordinator_Atmega128rfa1_Atmega128rfa1_Gcc.a(nwk.o)
 .text.nwkFindRouteDiscoveryEntry
                0x00007ba4       0x36 ./../../../../BitCloud/lib/libBc_Coordinator_Atmega128rfa1_Atmega128rfa1_Gcc.a(nwk.o)
 .text.nwkFreeRouteDiscoveryEntry
                0x00007bda       0x3a ./../../../../BitCloud/lib/libBc_Coordinator_Atmega128rfa1_Atmega128rfa1_Gcc.a(nwk.o)
 .text.nwkConfirmRouteRequestTx
                0x00007c14       0x60 ./../../../../BitCloud/lib/libBc_Coordinator_Atmega128rfa1_Atmega128rfa1_Gcc.a(nwk.o)
 .text.nwkRouteDiscoveryTableIsIdle
                0x00007c74        0xc ./../../../../BitCloud/lib/libBc_Coordinator_Atmega128rfa1_Atmega128rfa1_Gcc.a(nwk.o)
 .text.nwkFindRoutingEntry
                0x00007c80       0x40 ./../../../../BitCloud/lib/libBc_Coordinator_Atmega128rfa1_Atmega128rfa1_Gcc.a(nwk.o)
 .text.nwkFreeRoutingEntry
                0x00007cc0       0x12 ./../../../../BitCloud/lib/libBc_Coordinator_Atmega128rfa1_Atmega128rfa1_Gcc.a(nwk.o)
 .text.nwkDeleteRoute
                0x00007cd2       0x48 ./../../../../BitCloud/lib/libBc_Coordinator_Atmega128rfa1_Atmega128rfa1_Gcc.a(nwk.o)
 .text.nwkUpdateNextHop
                0x00007d1a       0xc8 ./../../../../BitCloud/lib/libBc_Coordinator_Atmega128rfa1_Atmega128rfa1_Gcc.a(nwk.o)
 .text.nwkParseRxHeader
                0x00007de2       0xb0 ./../../../../BitCloud/lib/libBc_Coordinator_Atmega128rfa1_Atmega128rfa1_Gcc.a(nwk.o)
 .text.nwkSendRouteErrorConf
                0x00007e92        0x6 ./../../../../BitCloud/lib/libBc_Coordinator_Atmega128rfa1_Atmega128rfa1_Gcc.a(nwk.o)
 .text.nwkPostTask
                0x00007e98       0x58 ./../../../../BitCloud/lib/libBc_Coordinator_Atmega128rfa1_Atmega128rfa1_Gcc.a(nwk.o)
 .text.nwkEDScanMacEDScanConf
                0x00007ef0       0x3e ./../../../../BitCloud/lib/libBc_Coordinator_Atmega128rfa1_Atmega128rfa1_Gcc.a(nwk.o)
 .text.nwkFormationMacRxEnableConf
                0x00007f2e       0x1c ./../../../../BitCloud/lib/libBc_Coordinator_Atmega128rfa1_Atmega128rfa1_Gcc.a(nwk.o)
 .text.nwkDiscoveryMacActiveScanConf
                0x00007f4a       0x28 ./../../../../BitCloud/lib/libBc_Coordinator_Atmega128rfa1_Atmega128rfa1_Gcc.a(nwk.o)
 .text.nwkPermitJoiningMacSetConf
                0x00007f72       0x34 ./../../../../BitCloud/lib/libBc_Coordinator_Atmega128rfa1_Atmega128rfa1_Gcc.a(nwk.o)
 .text.nwkStatusConf
                0x00007fa6        0xe ./../../../../BitCloud/lib/libBc_Coordinator_Atmega128rfa1_Atmega128rfa1_Gcc.a(nwk.o)
 .text.nwkResetMacRxEnableConf
                0x00007fb4       0x1c ./../../../../BitCloud/lib/libBc_Coordinator_Atmega128rfa1_Atmega128rfa1_Gcc.a(nwk.o)
 .text.nwkSendRouteDiscoveryReply
                0x00007fd0       0x1e ./../../../../BitCloud/lib/libBc_Coordinator_Atmega128rfa1_Atmega128rfa1_Gcc.a(nwk.o)
 .text.nwkTxDelayIsIdle
                0x00007fee       0x14 ./../../../../BitCloud/lib/libBc_Coordinator_Atmega128rfa1_Atmega128rfa1_Gcc.a(nwk.o)
 .text.nwkSetLifeTimeOfNeighbor
                0x00008002       0xe8 ./../../../../BitCloud/lib/libBc_Coordinator_Atmega128rfa1_Atmega128rfa1_Gcc.a(nwk.o)
 .text.nwkUpdateOutgoingCostAndLifeTime
                0x000080ea       0x4a ./../../../../BitCloud/lib/libBc_Coordinator_Atmega128rfa1_Atmega128rfa1_Gcc.a(nwk.o)
 .text.nwkAllocPacket
                0x00008134       0xd2 ./../../../../BitCloud/lib/libBc_Coordinator_Atmega128rfa1_Atmega128rfa1_Gcc.a(nwk.o)
 .text.nwkAllocInputPacket
                0x00008206       0x2c ./../../../../BitCloud/lib/libBc_Coordinator_Atmega128rfa1_Atmega128rfa1_Gcc.a(nwk.o)
 .text.nwkLoopbackTaskHandler
                0x00008232       0xe2 ./../../../../BitCloud/lib/libBc_Coordinator_Atmega128rfa1_Atmega128rfa1_Gcc.a(nwk.o)
 .text.nwkEDScanTaskHandler
                0x00008314       0xac ./../../../../BitCloud/lib/libBc_Coordinator_Atmega128rfa1_Atmega128rfa1_Gcc.a(nwk.o)
 .text.nwkTxReq
                0x000083c0       0x12 ./../../../../BitCloud/lib/libBc_Coordinator_Atmega128rfa1_Atmega128rfa1_Gcc.a(nwk.o)
 .text.nwkDataConf
                0x000083d2       0x4a ./../../../../BitCloud/lib/libBc_Coordinator_Atmega128rfa1_Atmega128rfa1_Gcc.a(nwk.o)
 .text.nwkConfirmDataTx
                0x0000841c       0x3a ./../../../../BitCloud/lib/libBc_Coordinator_Atmega128rfa1_Atmega128rfa1_Gcc.a(nwk.o)
 .text.findFreeJoinIndObjFor
                0x00008456       0xd6 ./../../../../BitCloud/lib/libBc_Coordinator_Atmega128rfa1_Atmega128rfa1_Gcc.a(nwk.o)
 .text.nwkFindAddressMapEntryByExtAddr
                0x0000852c       0x52 ./../../../../BitCloud/lib/libBc_Coordinator_Atmega128rfa1_Atmega128rfa1_Gcc.a(nwk.o)
 .text.nwkAddToAddressMap
                0x0000857e       0xc2 ./../../../../BitCloud/lib/libBc_Coordinator_Atmega128rfa1_Atmega128rfa1_Gcc.a(nwk.o)
 .text.nwkStopLinkStatusTimer
                0x00008640        0xe ./../../../../BitCloud/lib/libBc_Coordinator_Atmega128rfa1_Atmega128rfa1_Gcc.a(nwk.o)
 .text.nwkRouteDiscoveryTableTimerFired
                0x0000864e       0x56 ./../../../../BitCloud/lib/libBc_Coordinator_Atmega128rfa1_Atmega128rfa1_Gcc.a(nwk.o)
 .text.nwkStopAgeTimerOfNeighborTable
                0x000086a4        0xa ./../../../../BitCloud/lib/libBc_Coordinator_Atmega128rfa1_Atmega128rfa1_Gcc.a(nwk.o)
 .text.SYS_GetRandomNumber
                0x000086ae       0x2a ./../../../../BitCloud/lib/libBc_Coordinator_Atmega128rfa1_Atmega128rfa1_Gcc.a(nwk.o)
 .text.nwkStartLinkStatusTimer
                0x000086d8       0x10 ./../../../../BitCloud/lib/libBc_Coordinator_Atmega128rfa1_Atmega128rfa1_Gcc.a(nwk.o)
 .text.nwkConfirmLinkStatusTx
                0x000086e8       0x1e ./../../../../BitCloud/lib/libBc_Coordinator_Atmega128rfa1_Atmega128rfa1_Gcc.a(nwk.o)
 .text.nwkStartAgeTimerOfNeighborTable
                0x00008706       0x32 ./../../../../BitCloud/lib/libBc_Coordinator_Atmega128rfa1_Atmega128rfa1_Gcc.a(nwk.o)
 .text.freeJoinIndObj
                0x00008738        0xe ./../../../../BitCloud/lib/libBc_Coordinator_Atmega128rfa1_Atmega128rfa1_Gcc.a(nwk.o)
 .text.nwkJoinIndTaskHandler
                0x00008746      0x108 ./../../../../BitCloud/lib/libBc_Coordinator_Atmega128rfa1_Atmega128rfa1_Gcc.a(nwk.o)
 .text.nwkPrepareCommonFrame
                0x0000884e       0x4a ./../../../../BitCloud/lib/libBc_Coordinator_Atmega128rfa1_Atmega128rfa1_Gcc.a(nwk.o)
 .text.nwkAllocRouteDiscoveryEntry
                0x00008898       0xac ./../../../../BitCloud/lib/libBc_Coordinator_Atmega128rfa1_Atmega128rfa1_Gcc.a(nwk.o)
 .text.nwkRouteDiscoveryTaskHandler
                0x00008944       0xd4 ./../../../../BitCloud/lib/libBc_Coordinator_Atmega128rfa1_Atmega128rfa1_Gcc.a(nwk.o)
 .text.nwkResetTaskManager
                0x00008a18       0x10 ./../../../../BitCloud/lib/libBc_Coordinator_Atmega128rfa1_Atmega128rfa1_Gcc.a(nwk.o)
 .text.nwkFormationMacEDScanConf
                0x00008a28       0xfc ./../../../../BitCloud/lib/libBc_Coordinator_Atmega128rfa1_Atmega128rfa1_Gcc.a(nwk.o)
 .text.nwkResetRouteDiscoveryTable
                0x00008b24       0xb2 ./../../../../BitCloud/lib/libBc_Coordinator_Atmega128rfa1_Atmega128rfa1_Gcc.a(nwk.o)
 .text.nwkFormationMacActiveScanConf
                0x00008bd6      0x25a ./../../../../BitCloud/lib/libBc_Coordinator_Atmega128rfa1_Atmega128rfa1_Gcc.a(nwk.o)
 .text.nwkPermitJoiningTaskHandler
                0x00008e30       0xe4 ./../../../../BitCloud/lib/libBc_Coordinator_Atmega128rfa1_Atmega128rfa1_Gcc.a(nwk.o)
 .text.nwkPermitJoinTimerFired
                0x00008f14       0x26 ./../../../../BitCloud/lib/libBc_Coordinator_Atmega128rfa1_Atmega128rfa1_Gcc.a(nwk.o)
 .text.nwkFormationMacSetConf
                0x00008f3a      0x14e ./../../../../BitCloud/lib/libBc_Coordinator_Atmega128rfa1_Atmega128rfa1_Gcc.a(nwk.o)
 .text.nwkFormationMacStartConf
                0x00009088       0x48 ./../../../../BitCloud/lib/libBc_Coordinator_Atmega128rfa1_Atmega128rfa1_Gcc.a(nwk.o)
 .text.nwkResetMacStartConf
                0x000090d0       0x50 ./../../../../BitCloud/lib/libBc_Coordinator_Atmega128rfa1_Atmega128rfa1_Gcc.a(nwk.o)
 .text.nwkPrepareLeaveChildTx
                0x00009120       0xb2 ./../../../../BitCloud/lib/libBc_Coordinator_Atmega128rfa1_Atmega128rfa1_Gcc.a(nwk.o)
 .text.nwkPrepareLeaveItselfTx
                0x000091d2       0x90 ./../../../../BitCloud/lib/libBc_Coordinator_Atmega128rfa1_Atmega128rfa1_Gcc.a(nwk.o)
 .text.nwkPrepareJoinRespTx
                0x00009262       0xf0 ./../../../../BitCloud/lib/libBc_Coordinator_Atmega128rfa1_Atmega128rfa1_Gcc.a(nwk.o)
 .text.nwkPrepareLinkStatusTx
                0x00009352      0x1e2 ./../../../../BitCloud/lib/libBc_Coordinator_Atmega128rfa1_Atmega128rfa1_Gcc.a(nwk.o)
 .text.nwkLinkStatusInd
                0x00009534      0x23a ./../../../../BitCloud/lib/libBc_Coordinator_Atmega128rfa1_Atmega128rfa1_Gcc.a(nwk.o)
 .text.nwkConfirmLeaveItselfTx
                0x0000976e       0x42 ./../../../../BitCloud/lib/libBc_Coordinator_Atmega128rfa1_Atmega128rfa1_Gcc.a(nwk.o)
 .text.nwkResetTaskHandler
                0x000097b0       0x6a ./../../../../BitCloud/lib/libBc_Coordinator_Atmega128rfa1_Atmega128rfa1_Gcc.a(nwk.o)
 .text.nwkCheckBTT
                0x0000981a       0x22 ./../../../../BitCloud/lib/libBc_Coordinator_Atmega128rfa1_Atmega128rfa1_Gcc.a(nwk.o)
 .text.nwkIsPassiveAckDone.clone.5
                0x0000983c       0x70 ./../../../../BitCloud/lib/libBc_Coordinator_Atmega128rfa1_Atmega128rfa1_Gcc.a(nwk.o)
 .text.nwkTxDelayReq
                0x000098ac      0x1a2 ./../../../../BitCloud/lib/libBc_Coordinator_Atmega128rfa1_Atmega128rfa1_Gcc.a(nwk.o)
 .text.nwkClearNeighborTable.clone.19
                0x00009a4e       0x68 ./../../../../BitCloud/lib/libBc_Coordinator_Atmega128rfa1_Atmega128rfa1_Gcc.a(nwk.o)
 .text.nwkResetNeighborTable
                0x00009ab6       0x86 ./../../../../BitCloud/lib/libBc_Coordinator_Atmega128rfa1_Atmega128rfa1_Gcc.a(nwk.o)
 .text.nwkFormationTaskHandler
                0x00009b3c      0x15e ./../../../../BitCloud/lib/libBc_Coordinator_Atmega128rfa1_Atmega128rfa1_Gcc.a(nwk.o)
 .text.nwkDiscoveryTaskHandler
                0x00009c9a       0xb8 ./../../../../BitCloud/lib/libBc_Coordinator_Atmega128rfa1_Atmega128rfa1_Gcc.a(nwk.o)
 .text.nwkAllocOutputPacket.clone.20
                0x00009d52       0x4e ./../../../../BitCloud/lib/libBc_Coordinator_Atmega128rfa1_Atmega128rfa1_Gcc.a(nwk.o)
 .text.nwkTryToProcessCommandReq
                0x00009da0       0x2c ./../../../../BitCloud/lib/libBc_Coordinator_Atmega128rfa1_Atmega128rfa1_Gcc.a(nwk.o)
 .text.nwkCommandReq
                0x00009dcc       0x14 ./../../../../BitCloud/lib/libBc_Coordinator_Atmega128rfa1_Atmega128rfa1_Gcc.a(nwk.o)
 .text.nwkConfirmNetworkStatusTx
                0x00009de0       0x68 ./../../../../BitCloud/lib/libBc_Coordinator_Atmega128rfa1_Atmega128rfa1_Gcc.a(nwk.o)
 .text.nwkStatusReq
                0x00009e48       0x44 ./../../../../BitCloud/lib/libBc_Coordinator_Atmega128rfa1_Atmega128rfa1_Gcc.a(nwk.o)
 .text.nwkSendRouteErrorStatus.clone.17
                0x00009e8c       0x3c ./../../../../BitCloud/lib/libBc_Coordinator_Atmega128rfa1_Atmega128rfa1_Gcc.a(nwk.o)
 .text.nwkLinkStatusTimerFired
                0x00009ec8       0x1c ./../../../../BitCloud/lib/libBc_Coordinator_Atmega128rfa1_Atmega128rfa1_Gcc.a(nwk.o)
 .text.nwkRemoveAllChildren.clone.18
                0x00009ee4       0xd6 ./../../../../BitCloud/lib/libBc_Coordinator_Atmega128rfa1_Atmega128rfa1_Gcc.a(nwk.o)
 .text.nwkFreePacket
                0x00009fba       0x4e ./../../../../BitCloud/lib/libBc_Coordinator_Atmega128rfa1_Atmega128rfa1_Gcc.a(nwk.o)
 .text.nwkTxConf
                0x0000a008      0x1a4 ./../../../../BitCloud/lib/libBc_Coordinator_Atmega128rfa1_Atmega128rfa1_Gcc.a(nwk.o)
 .text.nwkProcessDelayStatus
                0x0000a1ac       0xd4 ./../../../../BitCloud/lib/libBc_Coordinator_Atmega128rfa1_Atmega128rfa1_Gcc.a(nwk.o)
 .text.MAC_DataConf
                0x0000a280       0x30 ./../../../../BitCloud/lib/libBc_Coordinator_Atmega128rfa1_Atmega128rfa1_Gcc.a(nwk.o)
 .text.nwkTxDelayConf
                0x0000a2b0        0xe ./../../../../BitCloud/lib/libBc_Coordinator_Atmega128rfa1_Atmega128rfa1_Gcc.a(nwk.o)
 .text.nwkLeaveReqMacResetConf
                0x0000a2be       0xf6 ./../../../../BitCloud/lib/libBc_Coordinator_Atmega128rfa1_Atmega128rfa1_Gcc.a(nwk.o)
 .text.nwkTxDelayTimerFired
                0x0000a3b4       0x90 ./../../../../BitCloud/lib/libBc_Coordinator_Atmega128rfa1_Atmega128rfa1_Gcc.a(nwk.o)
 .text.nwkTransmitOutputPacket.clone.13
                0x0000a444       0x4a ./../../../../BitCloud/lib/libBc_Coordinator_Atmega128rfa1_Atmega128rfa1_Gcc.a(nwk.o)
 .text.nwkSendDiscoveryCommand
                0x0000a48e       0x6a ./../../../../BitCloud/lib/libBc_Coordinator_Atmega128rfa1_Atmega128rfa1_Gcc.a(nwk.o)
 .text.nwkRouteDiscoveryTableTaskHandler
                0x0000a4f8       0x9a ./../../../../BitCloud/lib/libBc_Coordinator_Atmega128rfa1_Atmega128rfa1_Gcc.a(nwk.o)
 .text.nwkMeshRouteDiscoveryConf
                0x0000a592       0x5e ./../../../../BitCloud/lib/libBc_Coordinator_Atmega128rfa1_Atmega128rfa1_Gcc.a(nwk.o)
 .text.NWK_GetShortAddr
                0x0000a5f0        0xa ./../../../../BitCloud/lib/libBc_Coordinator_Atmega128rfa1_Atmega128rfa1_Gcc.a(nwk.o)
                0x0000a5f0                NWK_GetShortAddr
 .text.NWK_IsStaticAddressingMode
                0x0000a5fa        0x6 ./../../../../BitCloud/lib/libBc_Coordinator_Atmega128rfa1_Atmega128rfa1_Gcc.a(nwk.o)
                0x0000a5fa                NWK_IsStaticAddressingMode
 .text.NWK_RemoveFromAddressMap
                0x0000a600       0x12 ./../../../../BitCloud/lib/libBc_Coordinator_Atmega128rfa1_Atmega128rfa1_Gcc.a(nwk.o)
                0x0000a600                NWK_RemoveFromAddressMap
 .text.MAC_BeaconNotifyInd
                0x0000a612      0x45a ./../../../../BitCloud/lib/libBc_Coordinator_Atmega128rfa1_Atmega128rfa1_Gcc.a(nwk.o)
                0x0000a612                MAC_BeaconNotifyInd
 .text.NWK_EDScanReq
                0x0000aa6c       0x20 ./../../../../BitCloud/lib/libBc_Coordinator_Atmega128rfa1_Atmega128rfa1_Gcc.a(nwk.o)
                0x0000aa6c                NWK_EDScanReq
 .text.NWK_NetworkFormationReq
                0x0000aa8c       0x20 ./../../../../BitCloud/lib/libBc_Coordinator_Atmega128rfa1_Atmega128rfa1_Gcc.a(nwk.o)
                0x0000aa8c                NWK_NetworkFormationReq
 .text.NWK_IsGroupMember
                0x0000aaac       0x3c ./../../../../BitCloud/lib/libBc_Coordinator_Atmega128rfa1_Atmega128rfa1_Gcc.a(nwk.o)
                0x0000aaac                NWK_IsGroupMember
 .text.nwkRetransmitInputPacket
                0x0000aae8      0x12a ./../../../../BitCloud/lib/libBc_Coordinator_Atmega128rfa1_Atmega128rfa1_Gcc.a(nwk.o)
 .text.NWK_DataResp
                0x0000ac12       0x1c ./../../../../BitCloud/lib/libBc_Coordinator_Atmega128rfa1_Atmega128rfa1_Gcc.a(nwk.o)
                0x0000ac12                NWK_DataResp
 .text.nwkRxIndication
                0x0000ac2e      0x224 ./../../../../BitCloud/lib/libBc_Coordinator_Atmega128rfa1_Atmega128rfa1_Gcc.a(nwk.o)
 .text.nwkRxRetransmit
                0x0000ae52       0xae ./../../../../BitCloud/lib/libBc_Coordinator_Atmega128rfa1_Atmega128rfa1_Gcc.a(nwk.o)
 .text.NWK_ResetGroups
                0x0000af00       0x5e ./../../../../BitCloud/lib/libBc_Coordinator_Atmega128rfa1_Atmega128rfa1_Gcc.a(nwk.o)
                0x0000af00                NWK_ResetGroups
 .text.nwkResetMacResetConf
                0x0000af5e      0x564 ./../../../../BitCloud/lib/libBc_Coordinator_Atmega128rfa1_Atmega128rfa1_Gcc.a(nwk.o)
 .text.NWK_GetParentShortAddr
                0x0000b4c2        0xa ./../../../../BitCloud/lib/libBc_Coordinator_Atmega128rfa1_Atmega128rfa1_Gcc.a(nwk.o)
                0x0000b4c2                NWK_GetParentShortAddr
 .text.NWK_GetPanId
                0x0000b4cc        0xa ./../../../../BitCloud/lib/libBc_Coordinator_Atmega128rfa1_Atmega128rfa1_Gcc.a(nwk.o)
                0x0000b4cc                NWK_GetPanId
 .text.NWK_GetExtPanId
                0x0000b4d6       0x22 ./../../../../BitCloud/lib/libBc_Coordinator_Atmega128rfa1_Atmega128rfa1_Gcc.a(nwk.o)
                0x0000b4d6                NWK_GetExtPanId
 .text.NWK_SetExtPanId
                0x0000b4f8       0x34 ./../../../../BitCloud/lib/libBc_Coordinator_Atmega128rfa1_Atmega128rfa1_Gcc.a(nwk.o)
                0x0000b4f8                NWK_SetExtPanId
 .text.NWK_GetDeviceType
                0x0000b52c        0x6 ./../../../../BitCloud/lib/libBc_Coordinator_Atmega128rfa1_Atmega128rfa1_Gcc.a(nwk.o)
                0x0000b52c                NWK_GetDeviceType
 .text.NWK_GetLogicalChannel
                0x0000b532        0x6 ./../../../../BitCloud/lib/libBc_Coordinator_Atmega128rfa1_Atmega128rfa1_Gcc.a(nwk.o)
                0x0000b532                NWK_GetLogicalChannel
 .text.NWK_SetLogicalChannel
                0x0000b538        0x6 ./../../../../BitCloud/lib/libBc_Coordinator_Atmega128rfa1_Atmega128rfa1_Gcc.a(nwk.o)
                0x0000b538                NWK_SetLogicalChannel
 .text.NWK_GetBroadcastDeliveryTime
                0x0000b53e       0x12 ./../../../../BitCloud/lib/libBc_Coordinator_Atmega128rfa1_Atmega128rfa1_Gcc.a(nwk.o)
                0x0000b53e                NWK_GetBroadcastDeliveryTime
 .text.NWK_GetManagerAddr
                0x0000b550        0xa ./../../../../BitCloud/lib/libBc_Coordinator_Atmega128rfa1_Atmega128rfa1_Gcc.a(nwk.o)
                0x0000b550                NWK_GetManagerAddr
 .text.NWK_SetManagerAddr
                0x0000b55a        0xa ./../../../../BitCloud/lib/libBc_Coordinator_Atmega128rfa1_Atmega128rfa1_Gcc.a(nwk.o)
                0x0000b55a                NWK_SetManagerAddr
 .text.NWK_SetUpdateId
                0x0000b564        0xa ./../../../../BitCloud/lib/libBc_Coordinator_Atmega128rfa1_Atmega128rfa1_Gcc.a(nwk.o)
                0x0000b564                NWK_SetUpdateId
 .text.NWK_GetTransmitCouner
                0x0000b56e       0x14 ./../../../../BitCloud/lib/libBc_Coordinator_Atmega128rfa1_Atmega128rfa1_Gcc.a(nwk.o)
                0x0000b56e                NWK_GetTransmitCouner
 .text.NWK_GetTransmitFailureCounter
                0x0000b582       0x14 ./../../../../BitCloud/lib/libBc_Coordinator_Atmega128rfa1_Atmega128rfa1_Gcc.a(nwk.o)
                0x0000b582                NWK_GetTransmitFailureCounter
 .text.NWK_ResetTransmitCounters
                0x0000b596       0x12 ./../../../../BitCloud/lib/libBc_Coordinator_Atmega128rfa1_Atmega128rfa1_Gcc.a(nwk.o)
                0x0000b596                NWK_ResetTransmitCounters
 .text.NWK_RemoveNeighbor
                0x0000b5a8       0x90 ./../../../../BitCloud/lib/libBc_Coordinator_Atmega128rfa1_Atmega128rfa1_Gcc.a(nwk.o)
                0x0000b5a8                NWK_RemoveNeighbor
 .text.neighborTimerFired
                0x0000b638       0x90 ./../../../../BitCloud/lib/libBc_Coordinator_Atmega128rfa1_Atmega128rfa1_Gcc.a(nwk.o)
 .text.NWK_LeaveReq
                0x0000b6c8       0x20 ./../../../../BitCloud/lib/libBc_Coordinator_Atmega128rfa1_Atmega128rfa1_Gcc.a(nwk.o)
                0x0000b6c8                NWK_LeaveReq
 .text.NWK_LoopbackTxReq
                0x0000b6e8       0x20 ./../../../../BitCloud/lib/libBc_Coordinator_Atmega128rfa1_Atmega128rfa1_Gcc.a(nwk.o)
                0x0000b6e8                NWK_LoopbackTxReq
 .text.nwkDataConfTaskHandler
                0x0000b708       0x5a ./../../../../BitCloud/lib/libBc_Coordinator_Atmega128rfa1_Atmega128rfa1_Gcc.a(nwk.o)
 .text.NWK_DataReq
                0x0000b762      0x216 ./../../../../BitCloud/lib/libBc_Coordinator_Atmega128rfa1_Atmega128rfa1_Gcc.a(nwk.o)
                0x0000b762                NWK_DataReq
 .text.NWK_FindNeighborByShortAddr
                0x0000b978       0x30 ./../../../../BitCloud/lib/libBc_Coordinator_Atmega128rfa1_Atmega128rfa1_Gcc.a(nwk.o)
                0x0000b978                NWK_FindNeighborByShortAddr
 .text.nwkGetNextHop
                0x0000b9a8      0x20c ./../../../../BitCloud/lib/libBc_Coordinator_Atmega128rfa1_Atmega128rfa1_Gcc.a(nwk.o)
 .text.nwkAllocateShortAddr.clone.14
                0x0000bbb4       0xfe ./../../../../BitCloud/lib/libBc_Coordinator_Atmega128rfa1_Atmega128rfa1_Gcc.a(nwk.o)
 .text.nwkResolveAddressConflict
                0x0000bcb2      0x15e ./../../../../BitCloud/lib/libBc_Coordinator_Atmega128rfa1_Atmega128rfa1_Gcc.a(nwk.o)
 .text.nwkAddressConflictTaskHandler
                0x0000be10       0xa0 ./../../../../BitCloud/lib/libBc_Coordinator_Atmega128rfa1_Atmega128rfa1_Gcc.a(nwk.o)
 .text.nwkStatusFrameInd
                0x0000beb0       0x46 ./../../../../BitCloud/lib/libBc_Coordinator_Atmega128rfa1_Atmega128rfa1_Gcc.a(nwk.o)
 .text.nwkAddChild
                0x0000bef6      0x306 ./../../../../BitCloud/lib/libBc_Coordinator_Atmega128rfa1_Atmega128rfa1_Gcc.a(nwk.o)
 .text.nwkRejoinRequestFrameInd
                0x0000c1fc      0x15c ./../../../../BitCloud/lib/libBc_Coordinator_Atmega128rfa1_Atmega128rfa1_Gcc.a(nwk.o)
 .text.MAC_AssociateInd
                0x0000c358       0xd0 ./../../../../BitCloud/lib/libBc_Coordinator_Atmega128rfa1_Atmega128rfa1_Gcc.a(nwk.o)
                0x0000c358                MAC_AssociateInd
 .text.nwkResetMacSetConf
                0x0000c428      0x1ca ./../../../../BitCloud/lib/libBc_Coordinator_Atmega128rfa1_Atmega128rfa1_Gcc.a(nwk.o)
 .text.nwkProcessRouteRequest
                0x0000c5f2      0x232 ./../../../../BitCloud/lib/libBc_Coordinator_Atmega128rfa1_Atmega128rfa1_Gcc.a(nwk.o)
 .text.NWK_GetExtByShortAddress
                0x0000c824       0x5c ./../../../../BitCloud/lib/libBc_Coordinator_Atmega128rfa1_Atmega128rfa1_Gcc.a(nwk.o)
                0x0000c824                NWK_GetExtByShortAddress
 .text.nwkPrepareRouteRequestTx
                0x0000c880      0x164 ./../../../../BitCloud/lib/libBc_Coordinator_Atmega128rfa1_Atmega128rfa1_Gcc.a(nwk.o)
 .text.nwkPrepareNetworkStatusTx
                0x0000c9e4      0x102 ./../../../../BitCloud/lib/libBc_Coordinator_Atmega128rfa1_Atmega128rfa1_Gcc.a(nwk.o)
 .text.nwkPrepareRouteReplyTx
                0x0000cae6      0x2f8 ./../../../../BitCloud/lib/libBc_Coordinator_Atmega128rfa1_Atmega128rfa1_Gcc.a(nwk.o)
 .text.NWK_FindNeighborByExtAddr
                0x0000cdde       0x68 ./../../../../BitCloud/lib/libBc_Coordinator_Atmega128rfa1_Atmega128rfa1_Gcc.a(nwk.o)
                0x0000cdde                NWK_FindNeighborByExtAddr
 .text.nwkLeaveTaskHandler
                0x0000ce46      0x16a ./../../../../BitCloud/lib/libBc_Coordinator_Atmega128rfa1_Atmega128rfa1_Gcc.a(nwk.o)
 .text.nwkConfirmLeaveChildTx
                0x0000cfb0       0x84 ./../../../../BitCloud/lib/libBc_Coordinator_Atmega128rfa1_Atmega128rfa1_Gcc.a(nwk.o)
 .text.nwkConfirmJoinRespTx
                0x0000d034       0x4e ./../../../../BitCloud/lib/libBc_Coordinator_Atmega128rfa1_Atmega128rfa1_Gcc.a(nwk.o)
 .text.nwkConfirmAddrConflictJoinRespTx
                0x0000d082       0x3c ./../../../../BitCloud/lib/libBc_Coordinator_Atmega128rfa1_Atmega128rfa1_Gcc.a(nwk.o)
 .text.nwkLeaveFrameInd
                0x0000d0be       0x4a ./../../../../BitCloud/lib/libBc_Coordinator_Atmega128rfa1_Atmega128rfa1_Gcc.a(nwk.o)
 .text.nwkJoinIndMacCommStatusInd
                0x0000d108       0x54 ./../../../../BitCloud/lib/libBc_Coordinator_Atmega128rfa1_Atmega128rfa1_Gcc.a(nwk.o)
 .text.NWK_GetShortByExtAddress
                0x0000d15c       0x60 ./../../../../BitCloud/lib/libBc_Coordinator_Atmega128rfa1_Atmega128rfa1_Gcc.a(nwk.o)
                0x0000d15c                NWK_GetShortByExtAddress
 .text.NWK_LinkShortAndExtAddress
                0x0000d1bc       0xd8 ./../../../../BitCloud/lib/libBc_Coordinator_Atmega128rfa1_Atmega128rfa1_Gcc.a(nwk.o)
                0x0000d1bc                NWK_LinkShortAndExtAddress
 .text.nwkRouteReplyFrameInd
                0x0000d294      0x18c ./../../../../BitCloud/lib/libBc_Coordinator_Atmega128rfa1_Atmega128rfa1_Gcc.a(nwk.o)
 .text.nwkRouteRequestFrameInd
                0x0000d420       0xb6 ./../../../../BitCloud/lib/libBc_Coordinator_Atmega128rfa1_Atmega128rfa1_Gcc.a(nwk.o)
 .text.NWK_GetNeighborTable
                0x0000d4d6        0x6 ./../../../../BitCloud/lib/libBc_Coordinator_Atmega128rfa1_Atmega128rfa1_Gcc.a(nwk.o)
                0x0000d4d6                NWK_GetNeighborTable
 .text.NWK_GetNeighborsLqi
                0x0000d4dc       0x3e ./../../../../BitCloud/lib/libBc_Coordinator_Atmega128rfa1_Atmega128rfa1_Gcc.a(nwk.o)
                0x0000d4dc                NWK_GetNeighborsLqi
 .text.NWK_IsKnownChild
                0x0000d51a       0x24 ./../../../../BitCloud/lib/libBc_Coordinator_Atmega128rfa1_Atmega128rfa1_Gcc.a(nwk.o)
                0x0000d51a                NWK_IsKnownChild
 .text.MAC_OrphanInd
                0x0000d53e        0x2 ./../../../../BitCloud/lib/libBc_Coordinator_Atmega128rfa1_Atmega128rfa1_Gcc.a(nwk.o)
                0x0000d53e                MAC_OrphanInd
 .text.NWK_PermitJoiningReq
                0x0000d540       0x2c ./../../../../BitCloud/lib/libBc_Coordinator_Atmega128rfa1_Atmega128rfa1_Gcc.a(nwk.o)
                0x0000d540                NWK_PermitJoiningReq
 .text.NWK_ResetReq
                0x0000d56c       0x20 ./../../../../BitCloud/lib/libBc_Coordinator_Atmega128rfa1_Atmega128rfa1_Gcc.a(nwk.o)
                0x0000d56c                NWK_ResetReq
 .text.NWK_Init
                0x0000d58c       0x20 ./../../../../BitCloud/lib/libBc_Coordinator_Atmega128rfa1_Atmega128rfa1_Gcc.a(nwk.o)
                0x0000d58c                NWK_Init
 .text.NWK_RouteDiscoveryReq
                0x0000d5ac       0x34 ./../../../../BitCloud/lib/libBc_Coordinator_Atmega128rfa1_Atmega128rfa1_Gcc.a(nwk.o)
                0x0000d5ac                NWK_RouteDiscoveryReq
 .text.nwkTxTaskHandler
                0x0000d5e0      0x19a ./../../../../BitCloud/lib/libBc_Coordinator_Atmega128rfa1_Atmega128rfa1_Gcc.a(nwk.o)
 .text.MAC_DataInd
                0x0000d77a      0x458 ./../../../../BitCloud/lib/libBc_Coordinator_Atmega128rfa1_Atmega128rfa1_Gcc.a(nwk.o)
                0x0000d77a                MAC_DataInd
 .text.NWK_IsActiveTransaction
                0x0000dbd2       0x54 ./../../../../BitCloud/lib/libBc_Coordinator_Atmega128rfa1_Atmega128rfa1_Gcc.a(nwk.o)
                0x0000dbd2                NWK_IsActiveTransaction
 .text.NWK_LaunchActivities
                0x0000dc26       0x12 ./../../../../BitCloud/lib/libBc_Coordinator_Atmega128rfa1_Atmega128rfa1_Gcc.a(nwk.o)
                0x0000dc26                NWK_LaunchActivities
 .text.NWK_StopActivities
                0x0000dc38       0x12 ./../../../../BitCloud/lib/libBc_Coordinator_Atmega128rfa1_Atmega128rfa1_Gcc.a(nwk.o)
                0x0000dc38                NWK_StopActivities
 .text.NWK_DeviceIsAbleToOperateInNetwork
                0x0000dc4a       0x36 ./../../../../BitCloud/lib/libBc_Coordinator_Atmega128rfa1_Atmega128rfa1_Gcc.a(nwk.o)
                0x0000dc4a                NWK_DeviceIsAbleToOperateInNetwork
 .text.NWK_GatherPowerFailureInfo
                0x0000dc80       0x24 ./../../../../BitCloud/lib/libBc_Coordinator_Atmega128rfa1_Atmega128rfa1_Gcc.a(nwk.o)
                0x0000dc80                NWK_GatherPowerFailureInfo
 .text.MAC_PollInd
                0x0000dca4       0x52 ./../../../../BitCloud/lib/libBc_Coordinator_Atmega128rfa1_Atmega128rfa1_Gcc.a(nwk.o)
                0x0000dca4                MAC_PollInd
 .text.MAC_SyncLossInd
                0x0000dcf6        0x2 ./../../../../BitCloud/lib/libBc_Coordinator_Atmega128rfa1_Atmega128rfa1_Gcc.a(nwk.o)
                0x0000dcf6                MAC_SyncLossInd
 .text.NWK_TaskHandler
                0x0000dcf8       0xd8 ./../../../../BitCloud/lib/libBc_Coordinator_Atmega128rfa1_Atmega128rfa1_Gcc.a(nwk.o)
                0x0000dcf8                NWK_TaskHandler
 .text.NWK_GetUnicastDeliveryTime
                0x0000ddd0       0x6a ./../../../../BitCloud/lib/libBc_Coordinator_Atmega128rfa1_Atmega128rfa1_Gcc.a(nwk.o)
                0x0000ddd0                NWK_GetUnicastDeliveryTime
 .text.phyRxTxSwitcher
                0x0000de3a       0x36 ./../../../../BitCloud/lib/libBc_Coordinator_Atmega128rfa1_Atmega128rfa1_Gcc.a(phyRxTxIndicator.o)
 .text.phyRxTxSwitcherOn
                0x0000de70        0x8 ./../../../../BitCloud/lib/libBc_Coordinator_Atmega128rfa1_Atmega128rfa1_Gcc.a(phyRxTxIndicator.o)
                0x0000de70                phyRxTxSwitcherOn
 .text.phyRxTxSwitcherOff
                0x0000de78        0x8 ./../../../../BitCloud/lib/libBc_Coordinator_Atmega128rfa1_Atmega128rfa1_Gcc.a(phyRxTxIndicator.o)
                0x0000de78                phyRxTxSwitcherOff
 .text.deleteHeadQueueElem
                0x0000de80       0x22 ./../../../../BitCloud/lib/libBc_Coordinator_Atmega128rfa1_Atmega128rfa1_Gcc.a(queue.o)
                0x0000de80                deleteHeadQueueElem
 .text.deleteQueueElem
                0x0000dea2       0x4a ./../../../../BitCloud/lib/libBc_Coordinator_Atmega128rfa1_Atmega128rfa1_Gcc.a(queue.o)
                0x0000dea2                deleteQueueElem
 .text.isQueueElem
                0x0000deec       0x22 ./../../../../BitCloud/lib/libBc_Coordinator_Atmega128rfa1_Atmega128rfa1_Gcc.a(queue.o)
                0x0000deec                isQueueElem
 .text.putQueueElem
                0x0000df0e       0x40 ./../../../../BitCloud/lib/libBc_Coordinator_Atmega128rfa1_Atmega128rfa1_Gcc.a(queue.o)
                0x0000df0e                putQueueElem
 .text.SYS_DuplicateTableReset
                0x0000df4e       0x4e ./../../../../BitCloud/lib/libBc_Coordinator_Atmega128rfa1_Atmega128rfa1_Gcc.a(sysDuplicateTable.o)
                0x0000df4e                SYS_DuplicateTableReset
 .text.duplicateTableUpdate
                0x0000df9c       0x8e ./../../../../BitCloud/lib/libBc_Coordinator_Atmega128rfa1_Atmega128rfa1_Gcc.a(sysDuplicateTable.o)
                0x0000df9c                duplicateTableUpdate
 .text.SYS_DuplicateTableCheck
                0x0000e02a      0x10c ./../../../../BitCloud/lib/libBc_Coordinator_Atmega128rfa1_Atmega128rfa1_Gcc.a(sysDuplicateTable.o)
                0x0000e02a                SYS_DuplicateTableCheck
 .text.SYS_DuplicateTableClear
                0x0000e136       0x7c ./../../../../BitCloud/lib/libBc_Coordinator_Atmega128rfa1_Atmega128rfa1_Gcc.a(sysDuplicateTable.o)
                0x0000e136                SYS_DuplicateTableClear
 .text.SYS_PostEvent
                0x0000e1b2       0x7a ./../../../../BitCloud/lib/libBc_Coordinator_Atmega128rfa1_Atmega128rfa1_Gcc.a(sysEvents.o)
                0x0000e1b2                SYS_PostEvent
 .text.SYS_IsEventDeliverable
                0x0000e22c       0x38 ./../../../../BitCloud/lib/libBc_Coordinator_Atmega128rfa1_Atmega128rfa1_Gcc.a(sysEvents.o)
                0x0000e22c                SYS_IsEventDeliverable
 .text.SYS_IsEventSubscriber
                0x0000e264       0x32 ./../../../../BitCloud/lib/libBc_Coordinator_Atmega128rfa1_Atmega128rfa1_Gcc.a(sysEvents.o)
                0x0000e264                SYS_IsEventSubscriber
 .text.SYS_SubscribeToEvent
                0x0000e296       0x70 ./../../../../BitCloud/lib/libBc_Coordinator_Atmega128rfa1_Atmega128rfa1_Gcc.a(sysEvents.o)
                0x0000e296                SYS_SubscribeToEvent
 .text.SYS_StartTimer
                0x0000e306       0x14 ./../../../../BitCloud/lib/libBc_Coordinator_Atmega128rfa1_Atmega128rfa1_Gcc.a(sysTimer.o)
                0x0000e306                SYS_StartTimer
 .text.SYS_StopTimer
                0x0000e31a       0x12 ./../../../../BitCloud/lib/libBc_Coordinator_Atmega128rfa1_Atmega128rfa1_Gcc.a(sysTimer.o)
                0x0000e31a                SYS_StopTimer
 .text.SYS_InitTimer
                0x0000e32c       0x34 ./../../../../BitCloud/lib/libBc_Coordinator_Atmega128rfa1_Atmega128rfa1_Gcc.a(sysTimer.o)
                0x0000e32c                SYS_InitTimer
 .text.SYS_RunTask
                0x0000e360       0x76 ./../../../../BitCloud/lib/libBc_Coordinator_Atmega128rfa1_Atmega128rfa1_Gcc.a(taskManager.o)
                0x0000e360                SYS_RunTask
 .text.SYS_ForceRunTask
                0x0000e3d6        0x6 ./../../../../BitCloud/lib/libBc_Coordinator_Atmega128rfa1_Atmega128rfa1_Gcc.a(taskManager.o)
                0x0000e3d6                SYS_ForceRunTask
 .text.SYS_SysInit
                0x0000e3dc       0x22 ./../../../../BitCloud/lib/libBc_Coordinator_Atmega128rfa1_Atmega128rfa1_Gcc.a(taskManager.o)
                0x0000e3dc                SYS_SysInit
 .text.APS_StopConf
                0x0000e3fe       0x14 ./../../../../BitCloud/lib/libBc_Coordinator_Atmega128rfa1_Atmega128rfa1_Gcc.a(zdo.o)
 .text.zdoNodeManagerNwkLeaveConf
                0x0000e412        0x6 ./../../../../BitCloud/lib/libBc_Coordinator_Atmega128rfa1_Atmega128rfa1_Gcc.a(zdo.o)
 .text.zdoNwkManagerReset
                0x0000e418       0x10 ./../../../../BitCloud/lib/libBc_Coordinator_Atmega128rfa1_Atmega128rfa1_Gcc.a(zdo.o)
 .text.zdoStackResetConf
                0x0000e428       0x1c ./../../../../BitCloud/lib/libBc_Coordinator_Atmega128rfa1_Atmega128rfa1_Gcc.a(zdo.o)
 .text.zdoSecurityManagerHandler
                0x0000e444        0x2 ./../../../../BitCloud/lib/libBc_Coordinator_Atmega128rfa1_Atmega128rfa1_Gcc.a(zdo.o)
                0x0000e444                zdoSecurityManagerHandler
 .text.zdoPostTask
                0x0000e446       0x3c ./../../../../BitCloud/lib/libBc_Coordinator_Atmega128rfa1_Atmega128rfa1_Gcc.a(zdo.o)
 .text.zdoCheckStartNetworkRequestsQueue
                0x0000e482       0x38 ./../../../../BitCloud/lib/libBc_Coordinator_Atmega128rfa1_Atmega128rfa1_Gcc.a(zdo.o)
 .text.startConfirm
                0x0000e4ba       0x2e ./../../../../BitCloud/lib/libBc_Coordinator_Atmega128rfa1_Atmega128rfa1_Gcc.a(zdo.o)
 .text.sleepConfirm
                0x0000e4e8       0x24 ./../../../../BitCloud/lib/libBc_Coordinator_Atmega128rfa1_Atmega128rfa1_Gcc.a(zdo.o)
 .text.wakeUpConfirm
                0x0000e50c       0x24 ./../../../../BitCloud/lib/libBc_Coordinator_Atmega128rfa1_Atmega128rfa1_Gcc.a(zdo.o)
 .text.zdoUnpostTask
                0x0000e530       0x28 ./../../../../BitCloud/lib/libBc_Coordinator_Atmega128rfa1_Atmega128rfa1_Gcc.a(zdo.o)
 .text.zdoSetZdpDataReqState
                0x0000e558       0x22 ./../../../../BitCloud/lib/libBc_Coordinator_Atmega128rfa1_Atmega128rfa1_Gcc.a(zdo.o)
 .text.confirmResponse
                0x0000e57a        0x8 ./../../../../BitCloud/lib/libBc_Coordinator_Atmega128rfa1_Atmega128rfa1_Gcc.a(zdo.o)
 .text.zdoDefaultBindApsDataConf
                0x0000e582        0x8 ./../../../../BitCloud/lib/libBc_Coordinator_Atmega128rfa1_Atmega128rfa1_Gcc.a(zdo.o)
 .text.confirmMgmtLqiResponse
                0x0000e58a        0x8 ./../../../../BitCloud/lib/libBc_Coordinator_Atmega128rfa1_Atmega128rfa1_Gcc.a(zdo.o)
 .text.permitJoiningConf
                0x0000e592       0x16 ./../../../../BitCloud/lib/libBc_Coordinator_Atmega128rfa1_Atmega128rfa1_Gcc.a(zdo.o)
 .text.confirmMgmtPermitJoiningResponse
                0x0000e5a8        0x8 ./../../../../BitCloud/lib/libBc_Coordinator_Atmega128rfa1_Atmega128rfa1_Gcc.a(zdo.o)
 .text.zdoZdpApsConfCallback
                0x0000e5b0       0x78 ./../../../../BitCloud/lib/libBc_Coordinator_Atmega128rfa1_Atmega128rfa1_Gcc.a(zdo.o)
 .text.zdoSetZdpIndState
                0x0000e628       0x10 ./../../../../BitCloud/lib/libBc_Coordinator_Atmega128rfa1_Atmega128rfa1_Gcc.a(zdo.o)
 .text.ttlUpdateTimerFired
                0x0000e638       0x72 ./../../../../BitCloud/lib/libBc_Coordinator_Atmega128rfa1_Atmega128rfa1_Gcc.a(zdo.o)
 .text.zdoZdpResetReq
                0x0000e6aa       0x90 ./../../../../BitCloud/lib/libBc_Coordinator_Atmega128rfa1_Atmega128rfa1_Gcc.a(zdo.o)
 .text.zdoReset
                0x0000e73a        0xa ./../../../../BitCloud/lib/libBc_Coordinator_Atmega128rfa1_Atmega128rfa1_Gcc.a(zdo.o)
 .text.zdoPseudoRandomSeed
                0x0000e744       0x46 ./../../../../BitCloud/lib/libBc_Coordinator_Atmega128rfa1_Atmega128rfa1_Gcc.a(zdo.o)
 .text.RF_RandomConfUpdater
                0x0000e78a       0x1c ./../../../../BitCloud/lib/libBc_Coordinator_Atmega128rfa1_Atmega128rfa1_Gcc.a(zdo.o)
 .text.zdoUpdateRandSeedTimerFired
                0x0000e7a6       0x28 ./../../../../BitCloud/lib/libBc_Coordinator_Atmega128rfa1_Atmega128rfa1_Gcc.a(zdo.o)
 .text.zdoStackReset
                0x0000e7ce       0x2a ./../../../../BitCloud/lib/libBc_Coordinator_Atmega128rfa1_Atmega128rfa1_Gcc.a(zdo.o)
 .text.permitJoin
                0x0000e7f8       0x24 ./../../../../BitCloud/lib/libBc_Coordinator_Atmega128rfa1_Atmega128rfa1_Gcc.a(zdo.o)
 .text.zdoStartNetworkConfirm
                0x0000e81c       0x24 ./../../../../BitCloud/lib/libBc_Coordinator_Atmega128rfa1_Atmega128rfa1_Gcc.a(zdo.o)
 .text.deviceAnnceConf
                0x0000e840        0x8 ./../../../../BitCloud/lib/libBc_Coordinator_Atmega128rfa1_Atmega128rfa1_Gcc.a(zdo.o)
 .text.reenterNetwork
                0x0000e848       0x38 ./../../../../BitCloud/lib/libBc_Coordinator_Atmega128rfa1_Atmega128rfa1_Gcc.a(zdo.o)
 .text.zdoNetworkFormationReq
                0x0000e880       0x44 ./../../../../BitCloud/lib/libBc_Coordinator_Atmega128rfa1_Atmega128rfa1_Gcc.a(zdo.o)
 .text.zdoLeaveConfirm
                0x0000e8c4       0x74 ./../../../../BitCloud/lib/libBc_Coordinator_Atmega128rfa1_Atmega128rfa1_Gcc.a(zdo.o)
 .text.wakeupCallback
                0x0000e938       0x2e ./../../../../BitCloud/lib/libBc_Coordinator_Atmega128rfa1_Atmega128rfa1_Gcc.a(zdo.o)
 .text.zdoPowerManagerHandler
                0x0000e966       0xae ./../../../../BitCloud/lib/libBc_Coordinator_Atmega128rfa1_Atmega128rfa1_Gcc.a(zdo.o)
 .text.transceiverSwitchedOff
                0x0000ea14       0x5a ./../../../../BitCloud/lib/libBc_Coordinator_Atmega128rfa1_Atmega128rfa1_Gcc.a(zdo.o)
 .text.transceiverSwitchedOn
                0x0000ea6e       0x3a ./../../../../BitCloud/lib/libBc_Coordinator_Atmega128rfa1_Atmega128rfa1_Gcc.a(zdo.o)
 .text.zdoZdpManagerHandler
                0x0000eaa8      0x1d6 ./../../../../BitCloud/lib/libBc_Coordinator_Atmega128rfa1_Atmega128rfa1_Gcc.a(zdo.o)
 .text.zdoNwkEventListener
                0x0000ec7e       0x6e ./../../../../BitCloud/lib/libBc_Coordinator_Atmega128rfa1_Atmega128rfa1_Gcc.a(zdo.o)
 .text.zdoOtherEventListener
                0x0000ecec       0x34 ./../../../../BitCloud/lib/libBc_Coordinator_Atmega128rfa1_Atmega128rfa1_Gcc.a(zdo.o)
 .text.confirmMgmtLeaveResponse
                0x0000ed20      0x10a ./../../../../BitCloud/lib/libBc_Coordinator_Atmega128rfa1_Atmega128rfa1_Gcc.a(zdo.o)
 .text.zdoSetOutOfNetworkFlag
                0x0000ee2a       0x36 ./../../../../BitCloud/lib/libBc_Coordinator_Atmega128rfa1_Atmega128rfa1_Gcc.a(zdo.o)
 .text.leaveNetworkInd
                0x0000ee60       0x24 ./../../../../BitCloud/lib/libBc_Coordinator_Atmega128rfa1_Atmega128rfa1_Gcc.a(zdo.o)
 .text.zdoLeaveNetworkNwkLeaveConf
                0x0000ee84        0xe ./../../../../BitCloud/lib/libBc_Coordinator_Atmega128rfa1_Atmega128rfa1_Gcc.a(zdo.o)
 .text.zdoExecuteEDScan
                0x0000ee92       0x36 ./../../../../BitCloud/lib/libBc_Coordinator_Atmega128rfa1_Atmega128rfa1_Gcc.a(zdo.o)
 .text.confirmMgmtNwkUpdateNotify
                0x0000eec8       0x2e ./../../../../BitCloud/lib/libBc_Coordinator_Atmega128rfa1_Atmega128rfa1_Gcc.a(zdo.o)
 .text.channelChangeTimerFired
                0x0000eef6       0x22 ./../../../../BitCloud/lib/libBc_Coordinator_Atmega128rfa1_Atmega128rfa1_Gcc.a(zdo.o)
 .text.MAC_SetConf
                0x0000ef18       0x7e ./../../../../BitCloud/lib/libBc_Coordinator_Atmega128rfa1_Atmega128rfa1_Gcc.a(zdo.o)
 .text.zdoChildEventListener
                0x0000ef96       0xa8 ./../../../../BitCloud/lib/libBc_Coordinator_Atmega128rfa1_Atmega128rfa1_Gcc.a(zdo.o)
 .text.zdoInitNotifications
                0x0000f03e       0x6e ./../../../../BitCloud/lib/libBc_Coordinator_Atmega128rfa1_Atmega128rfa1_Gcc.a(zdo.o)
                0x0000f03e                zdoInitNotifications
 .text.zdoInitHandler
                0x0000f0ac      0x10e ./../../../../BitCloud/lib/libBc_Coordinator_Atmega128rfa1_Atmega128rfa1_Gcc.a(zdo.o)
 .text.NWK_JoinInd
                0x0000f1ba       0x4e ./../../../../BitCloud/lib/libBc_Coordinator_Atmega128rfa1_Atmega128rfa1_Gcc.a(zdo.o)
                0x0000f1ba                NWK_JoinInd
 .text.NWK_LeaveInd
                0x0000f208       0x86 ./../../../../BitCloud/lib/libBc_Coordinator_Atmega128rfa1_Atmega128rfa1_Gcc.a(zdo.o)
                0x0000f208                NWK_LeaveInd
 .text.ZDO_StartNetworkReq
                0x0000f28e       0x10 ./../../../../BitCloud/lib/libBc_Coordinator_Atmega128rfa1_Atmega128rfa1_Gcc.a(zdo.o)
                0x0000f28e                ZDO_StartNetworkReq
 .text.ZDO_TaskHandler
                0x0000f29e       0x7c ./../../../../BitCloud/lib/libBc_Coordinator_Atmega128rfa1_Atmega128rfa1_Gcc.a(zdo.o)
                0x0000f29e                ZDO_TaskHandler
 .text.APS_ZdoDataInd
                0x0000f31a      0x160 ./../../../../BitCloud/lib/libBc_Coordinator_Atmega128rfa1_Atmega128rfa1_Gcc.a(zdo.o)
                0x0000f31a                APS_ZdoDataInd
 .text.ZDO_ZdpReq
                0x0000f47a       0x64 ./../../../../BitCloud/lib/libBc_Coordinator_Atmega128rfa1_Atmega128rfa1_Gcc.a(zdo.o)
                0x0000f47a                ZDO_ZdpReq
 .text.zdoSendDeviceAnnce
                0x0000f4de       0xa0 ./../../../../BitCloud/lib/libBc_Coordinator_Atmega128rfa1_Atmega128rfa1_Gcc.a(zdo.o)
 .text.APS_StartConf
                0x0000f57e       0x2a ./../../../../BitCloud/lib/libBc_Coordinator_Atmega128rfa1_Atmega128rfa1_Gcc.a(zdo.o)
 .text.NWK_PermitJoinConf
                0x0000f5a8       0x48 ./../../../../BitCloud/lib/libBc_Coordinator_Atmega128rfa1_Atmega128rfa1_Gcc.a(zdo.o)
 .text.zdoSendDeviceAnnceConf
                0x0000f5f0       0x34 ./../../../../BitCloud/lib/libBc_Coordinator_Atmega128rfa1_Atmega128rfa1_Gcc.a(zdo.o)
 .text.sendNwkUpdateNotify
                0x0000f624       0x3e ./../../../../BitCloud/lib/libBc_Coordinator_Atmega128rfa1_Atmega128rfa1_Gcc.a(zdo.o)
 .text.zdoZdpFrameProcessorHandler
                0x0000f662     0x1500 ./../../../../BitCloud/lib/libBc_Coordinator_Atmega128rfa1_Atmega128rfa1_Gcc.a(zdo.o)
 .text.edScanConf
                0x00010b62       0x10 ./../../../../BitCloud/lib/libBc_Coordinator_Atmega128rfa1_Atmega128rfa1_Gcc.a(zdo.o)
 .text.zdoReloadZibFromConfigServer
                0x00010b72      0x144 ./../../../../BitCloud/lib/libBc_Coordinator_Atmega128rfa1_Atmega128rfa1_Gcc.a(zdo.o)
                0x00010b72                zdoReloadZibFromConfigServer
 .text.zdoStartNetworkTaskHandler
                0x00010cb6      0x110 ./../../../../BitCloud/lib/libBc_Coordinator_Atmega128rfa1_Atmega128rfa1_Gcc.a(zdo.o)
 .text.setNetworkParametersToZib
                0x00010dc6       0x48 ./../../../../BitCloud/lib/libBc_Coordinator_Atmega128rfa1_Atmega128rfa1_Gcc.a(zdo.o)
                0x00010dc6                setNetworkParametersToZib
 .text.zdoStartNetworkStackResetConf
                0x00010e0e       0x3c ./../../../../BitCloud/lib/libBc_Coordinator_Atmega128rfa1_Atmega128rfa1_Gcc.a(zdo.o)
 .text.NWK_NetworkFormationConf
                0x00010e4a       0x18 ./../../../../BitCloud/lib/libBc_Coordinator_Atmega128rfa1_Atmega128rfa1_Gcc.a(zdo.o)
 .text.SYS_Sleep
                0x00010e62        0x6 ./../../../../BitCloud/lib/libBc_Coordinator_Atmega128rfa1_Atmega128rfa1_Gcc.a(bcSysSleep.o)
                0x00010e62                SYS_Sleep
 .text.postNewMacRequest
                0x00010e68       0x46 ./../../../../BitCloud/lib/libBc_Coordinator_Atmega128rfa1_Atmega128rfa1_Gcc.a(machwdManager.o)
 .text.putReqInQueue
                0x00010eae       0x18 ./../../../../BitCloud/lib/libBc_Coordinator_Atmega128rfa1_Atmega128rfa1_Gcc.a(machwdManager.o)
 .text.MACHWD_DataReq
                0x00010ec6        0xa ./../../../../BitCloud/lib/libBc_Coordinator_Atmega128rfa1_Atmega128rfa1_Gcc.a(machwdManager.o)
                0x00010ec6                MACHWD_DataReq
 .text.MACHWD_SetTrxStateReq
                0x00010ed0        0xc ./../../../../BitCloud/lib/libBc_Coordinator_Atmega128rfa1_Atmega128rfa1_Gcc.a(machwdManager.o)
                0x00010ed0                MACHWD_SetTrxStateReq
 .text.MACHWD_SetReq
                0x00010edc        0xc ./../../../../BitCloud/lib/libBc_Coordinator_Atmega128rfa1_Atmega128rfa1_Gcc.a(machwdManager.o)
                0x00010edc                MACHWD_SetReq
 .text.MACHWD_EdReq
                0x00010ee8        0xc ./../../../../BitCloud/lib/libBc_Coordinator_Atmega128rfa1_Atmega128rfa1_Gcc.a(machwdManager.o)
                0x00010ee8                MACHWD_EdReq
 .text.RF_RandomReq
                0x00010ef4       0x14 ./../../../../BitCloud/lib/libBc_Coordinator_Atmega128rfa1_Atmega128rfa1_Gcc.a(machwdManager.o)
                0x00010ef4                RF_RandomReq
 .text.MACHWD_Reset
                0x00010f08       0x46 ./../../../../BitCloud/lib/libBc_Coordinator_Atmega128rfa1_Atmega128rfa1_Gcc.a(machwdManager.o)
                0x00010f08                MACHWD_Reset
 .text.MAC_PHY_HWD_TaskHandler
                0x00010f4e      0x1b0 ./../../../../BitCloud/lib/libBc_Coordinator_Atmega128rfa1_Atmega128rfa1_Gcc.a(machwdManager.o)
                0x00010f4e                MAC_PHY_HWD_TaskHandler
 .text.machwdRegAccessReqHandler
                0x000110fe       0x66 ./../../../../BitCloud/lib/libBc_Coordinator_Atmega128rfa1_Atmega128rfa1_Gcc.a(machwdRegAccessHandler.o)
                0x000110fe                machwdRegAccessReqHandler
 .text.machwdRegAccessTaskHandler
                0x00011164       0x48 ./../../../../BitCloud/lib/libBc_Coordinator_Atmega128rfa1_Atmega128rfa1_Gcc.a(machwdRegAccessHandler.o)
                0x00011164                machwdRegAccessTaskHandler
 .text.machwdReset
                0x000111ac       0xc6 ./../../../../BitCloud/lib/libBc_Coordinator_Atmega128rfa1_Atmega128rfa1_Gcc.a(machwdResetHandler.o)
                0x000111ac                machwdReset
 .text.machwdRndReqHandler
                0x00011272       0x3a ./../../../../BitCloud/lib/libBc_Coordinator_Atmega128rfa1_Atmega128rfa1_Gcc.a(machwdRndHandler.o)
                0x00011272                machwdRndReqHandler
 .text.machwdRndTaskHandler
                0x000112ac       0x32 ./../../../../BitCloud/lib/libBc_Coordinator_Atmega128rfa1_Atmega128rfa1_Gcc.a(machwdRndHandler.o)
                0x000112ac                machwdRndTaskHandler
 .text.machwdResetRndHandler
                0x000112de        0x6 ./../../../../BitCloud/lib/libBc_Coordinator_Atmega128rfa1_Atmega128rfa1_Gcc.a(machwdRndHandler.o)
                0x000112de                machwdResetRndHandler
 .text.machwdResetRxBuffer
                0x000112e4       0x62 ./../../../../BitCloud/lib/libBc_Coordinator_Atmega128rfa1_Atmega128rfa1_Gcc.a(machwdRxBuffer.o)
                0x000112e4                machwdResetRxBuffer
 .text.machwdNextBuffer
                0x00011346       0x10 ./../../../../BitCloud/lib/libBc_Coordinator_Atmega128rfa1_Atmega128rfa1_Gcc.a(machwdRxBuffer.o)
                0x00011346                machwdNextBuffer
 .text.machwdReleaseBuffer
                0x00011356       0x62 ./../../../../BitCloud/lib/libBc_Coordinator_Atmega128rfa1_Atmega128rfa1_Gcc.a(machwdRxBuffer.o)
                0x00011356                machwdReleaseBuffer
 .text.machwdNextBufferPresent
                0x000113b8       0x26 ./../../../../BitCloud/lib/libBc_Coordinator_Atmega128rfa1_Atmega128rfa1_Gcc.a(machwdRxBuffer.o)
                0x000113b8                machwdNextBufferPresent
 .text.machwdRxFrameTaskHandler
                0x000113de       0x46 ./../../../../BitCloud/lib/libBc_Coordinator_Atmega128rfa1_Atmega128rfa1_Gcc.a(machwdRxFrameHandler.o)
                0x000113de                machwdRxFrameTaskHandler
 .text.machwdRxFrameIndTaskHandler
                0x00011424       0xa2 ./../../../../BitCloud/lib/libBc_Coordinator_Atmega128rfa1_Atmega128rfa1_Gcc.a(machwdRxFrameHandler.o)
                0x00011424                machwdRxFrameIndTaskHandler
 .text.executePhySetReq
                0x000114c6       0x32 ./../../../../BitCloud/lib/libBc_Coordinator_Atmega128rfa1_Atmega128rfa1_Gcc.a(machwdSetHandler.o)
 .text.executeSetReq
                0x000114f8       0x5c ./../../../../BitCloud/lib/libBc_Coordinator_Atmega128rfa1_Atmega128rfa1_Gcc.a(machwdSetHandler.o)
 .text.machwdSetReqHandler
                0x00011554       0xba ./../../../../BitCloud/lib/libBc_Coordinator_Atmega128rfa1_Atmega128rfa1_Gcc.a(machwdSetHandler.o)
                0x00011554                machwdSetReqHandler
 .text.machwdSetTaskHandler
                0x0001160e       0x3a ./../../../../BitCloud/lib/libBc_Coordinator_Atmega128rfa1_Atmega128rfa1_Gcc.a(machwdSetHandler.o)
                0x0001160e                machwdSetTaskHandler
 .text.machwdResetSetHandler
                0x00011648        0xe ./../../../../BitCloud/lib/libBc_Coordinator_Atmega128rfa1_Atmega128rfa1_Gcc.a(machwdSetHandler.o)
                0x00011648                machwdResetSetHandler
 .text.machwdSendTrxCmd
                0x00011656       0x1c ./../../../../BitCloud/lib/libBc_Coordinator_Atmega128rfa1_Atmega128rfa1_Gcc.a(machwdTrxCtrl.o)
                0x00011656                machwdSendTrxCmd
 .text.machwdGetPhyTrxCmd
                0x00011672       0x14 ./../../../../BitCloud/lib/libBc_Coordinator_Atmega128rfa1_Atmega128rfa1_Gcc.a(machwdTrxCtrl.o)
                0x00011672                machwdGetPhyTrxCmd
 .text.machwdConvertTrxCmdToTrxState
                0x00011686       0x14 ./../../../../BitCloud/lib/libBc_Coordinator_Atmega128rfa1_Atmega128rfa1_Gcc.a(machwdTrxCtrl.o)
                0x00011686                machwdConvertTrxCmdToTrxState
 .text.machwdConvertTrxStateToTrxCmd
                0x0001169a       0x16 ./../../../../BitCloud/lib/libBc_Coordinator_Atmega128rfa1_Atmega128rfa1_Gcc.a(machwdTrxCtrl.o)
                0x0001169a                machwdConvertTrxStateToTrxCmd
 .text.machwdTrxReqHandler
                0x000116b0       0x40 ./../../../../BitCloud/lib/libBc_Coordinator_Atmega128rfa1_Atmega128rfa1_Gcc.a(machwdTrxHandler.o)
                0x000116b0                machwdTrxReqHandler
 .text.machwdTrxTaskHandler
                0x000116f0       0x40 ./../../../../BitCloud/lib/libBc_Coordinator_Atmega128rfa1_Atmega128rfa1_Gcc.a(machwdTrxHandler.o)
                0x000116f0                machwdTrxTaskHandler
 .text.machwdResetTrxHandler
                0x00011730        0x6 ./../../../../BitCloud/lib/libBc_Coordinator_Atmega128rfa1_Atmega128rfa1_Gcc.a(machwdTrxHandler.o)
                0x00011730                machwdResetTrxHandler
 .text.executeDataReq
                0x00011736       0x28 ./../../../../BitCloud/lib/libBc_Coordinator_Atmega128rfa1_Atmega128rfa1_Gcc.a(machwdTxFrameHandler.o)
 .text.machwdTxFrameReqHandler
                0x0001175e       0x44 ./../../../../BitCloud/lib/libBc_Coordinator_Atmega128rfa1_Atmega128rfa1_Gcc.a(machwdTxFrameHandler.o)
                0x0001175e                machwdTxFrameReqHandler
 .text.machwdTxFrameTaskHandler
                0x000117a2       0x3a ./../../../../BitCloud/lib/libBc_Coordinator_Atmega128rfa1_Atmega128rfa1_Gcc.a(machwdTxFrameHandler.o)
                0x000117a2                machwdTxFrameTaskHandler
 .text.machwdResetTxFrameHandler
                0x000117dc        0xa ./../../../../BitCloud/lib/libBc_Coordinator_Atmega128rfa1_Atmega128rfa1_Gcc.a(machwdTxFrameHandler.o)
                0x000117dc                machwdResetTxFrameHandler
 .text.postponeAction
                0x000117e6       0x2c ./../../../../BitCloud/lib/libBc_Coordinator_Atmega128rfa1_Atmega128rfa1_Gcc.a(machwiManager.o)
 .text.putReqInQueue
                0x00011812       0x2c ./../../../../BitCloud/lib/libBc_Coordinator_Atmega128rfa1_Atmega128rfa1_Gcc.a(machwiManager.o)
 .text.machwiSendConfToUpperLayer
                0x0001183e       0xf2 ./../../../../BitCloud/lib/libBc_Coordinator_Atmega128rfa1_Atmega128rfa1_Gcc.a(machwiManager.o)
                0x0001183e                machwiSendConfToUpperLayer
 .text.MAC_HWI_TaskHandler
                0x00011930       0xd8 ./../../../../BitCloud/lib/libBc_Coordinator_Atmega128rfa1_Atmega128rfa1_Gcc.a(machwiManager.o)
                0x00011930                MAC_HWI_TaskHandler
 .text.MAC_AssociateResp
                0x00011a08        0xc ./../../../../BitCloud/lib/libBc_Coordinator_Atmega128rfa1_Atmega128rfa1_Gcc.a(machwiManager.o)
                0x00011a08                MAC_AssociateResp
 .text.MAC_ResetReq
                0x00011a14       0x58 ./../../../../BitCloud/lib/libBc_Coordinator_Atmega128rfa1_Atmega128rfa1_Gcc.a(machwiManager.o)
                0x00011a14                MAC_ResetReq
 .text.MAC_RxEnableReq
                0x00011a6c        0xc ./../../../../BitCloud/lib/libBc_Coordinator_Atmega128rfa1_Atmega128rfa1_Gcc.a(machwiManager.o)
                0x00011a6c                MAC_RxEnableReq
 .text.MAC_ScanReq
                0x00011a78        0xc ./../../../../BitCloud/lib/libBc_Coordinator_Atmega128rfa1_Atmega128rfa1_Gcc.a(machwiManager.o)
                0x00011a78                MAC_ScanReq
 .text.MAC_SetReq
                0x00011a84        0xc ./../../../../BitCloud/lib/libBc_Coordinator_Atmega128rfa1_Atmega128rfa1_Gcc.a(machwiManager.o)
                0x00011a84                MAC_SetReq
 .text.MAC_StartReq
                0x00011a90        0xc ./../../../../BitCloud/lib/libBc_Coordinator_Atmega128rfa1_Atmega128rfa1_Gcc.a(machwiManager.o)
                0x00011a90                MAC_StartReq
 .text.MAC_DataReq
                0x00011a9c        0xc ./../../../../BitCloud/lib/libBc_Coordinator_Atmega128rfa1_Atmega128rfa1_Gcc.a(machwiManager.o)
                0x00011a9c                MAC_DataReq
 .text.machwiSendAssociateInd
                0x00011aa8        0xe ./../../../../BitCloud/lib/libBc_Coordinator_Atmega128rfa1_Atmega128rfa1_Gcc.a(machwiManager.o)
                0x00011aa8                machwiSendAssociateInd
 .text.machwiSendDataInd
                0x00011ab6        0xe ./../../../../BitCloud/lib/libBc_Coordinator_Atmega128rfa1_Atmega128rfa1_Gcc.a(machwiManager.o)
                0x00011ab6                machwiSendDataInd
 .text.machwiSendBeaconNotifyInd
                0x00011ac4        0xe ./../../../../BitCloud/lib/libBc_Coordinator_Atmega128rfa1_Atmega128rfa1_Gcc.a(machwiManager.o)
                0x00011ac4                machwiSendBeaconNotifyInd
 .text.machwiSendSyncLossNotifyInd
                0x00011ad2        0xe ./../../../../BitCloud/lib/libBc_Coordinator_Atmega128rfa1_Atmega128rfa1_Gcc.a(machwiManager.o)
                0x00011ad2                machwiSendSyncLossNotifyInd
 .text.machwiSendOrphanInd
                0x00011ae0        0xe ./../../../../BitCloud/lib/libBc_Coordinator_Atmega128rfa1_Atmega128rfa1_Gcc.a(machwiManager.o)
                0x00011ae0                machwiSendOrphanInd
 .text.machwiSendPollInd
                0x00011aee        0xe ./../../../../BitCloud/lib/libBc_Coordinator_Atmega128rfa1_Atmega128rfa1_Gcc.a(machwiManager.o)
                0x00011aee                machwiSendPollInd
 .text.machwiTxTransactionReq
                0x00011afc        0x8 ./../../../../BitCloud/lib/libBc_Coordinator_Atmega128rfa1_Atmega128rfa1_Gcc.a(machwiManager.o)
                0x00011afc                machwiTxTransactionReq
 .text.machwiTxBeaconReq
                0x00011b04        0x8 ./../../../../BitCloud/lib/libBc_Coordinator_Atmega128rfa1_Atmega128rfa1_Gcc.a(machwiManager.o)
                0x00011b04                machwiTxBeaconReq
 .text.MAC_IsActiveTransaction
                0x00011b0c       0x18 ./../../../../BitCloud/lib/libBc_Coordinator_Atmega128rfa1_Atmega128rfa1_Gcc.a(machwiManager.o)
                0x00011b0c                MAC_IsActiveTransaction
 .text.machwdDataConfirm
                0x00011b24       0x22 ./../../../../BitCloud/lib/libBc_Coordinator_Atmega128rfa1_Atmega128rfa1_Gcc.a(machwiOrphanHandler.o)
 .text.machwiOrphanRespHandler
                0x00011b46      0x18e ./../../../../BitCloud/lib/libBc_Coordinator_Atmega128rfa1_Atmega128rfa1_Gcc.a(machwiOrphanHandler.o)
                0x00011b46                machwiOrphanRespHandler
 .text.machwiOrphanNotificationInd
                0x00011cd4       0x44 ./../../../../BitCloud/lib/libBc_Coordinator_Atmega128rfa1_Atmega128rfa1_Gcc.a(machwiOrphanHandler.o)
                0x00011cd4                machwiOrphanNotificationInd
 .text.MACHWD_DataInd
                0x00011d18       0x7a ./../../../../BitCloud/lib/libBc_Coordinator_Atmega128rfa1_Atmega128rfa1_Gcc.a(machwiPanServer.o)
                0x00011d18                MACHWD_DataInd
 .text.machwiEnableBeaconTransmission
                0x00011d92        0x8 ./../../../../BitCloud/lib/libBc_Coordinator_Atmega128rfa1_Atmega128rfa1_Gcc.a(machwiPanServer.o)
                0x00011d92                machwiEnableBeaconTransmission
 .text.machwiResetPanServer
                0x00011d9a        0x6 ./../../../../BitCloud/lib/libBc_Coordinator_Atmega128rfa1_Atmega128rfa1_Gcc.a(machwiPanServer.o)
                0x00011d9a                machwiResetPanServer
 .text.switchingCompleted
                0x00011da0       0x12 ./../../../../BitCloud/lib/libBc_Coordinator_Atmega128rfa1_Atmega128rfa1_Gcc.a(machwiPollHandler.o)
 .text.completeHandling
                0x00011db2       0x18 ./../../../../BitCloud/lib/libBc_Coordinator_Atmega128rfa1_Atmega128rfa1_Gcc.a(machwiPollHandler.o)
 .text.machwdDataConfirm
                0x00011dca       0x6e ./../../../../BitCloud/lib/libBc_Coordinator_Atmega128rfa1_Atmega128rfa1_Gcc.a(machwiPollHandler.o)
 .text.halPollTimerFired
                0x00011e38        0x6 ./../../../../BitCloud/lib/libBc_Coordinator_Atmega128rfa1_Atmega128rfa1_Gcc.a(machwiPollHandler.o)
 .text.machwiResetPollHandler
                0x00011e3e        0x6 ./../../../../BitCloud/lib/libBc_Coordinator_Atmega128rfa1_Atmega128rfa1_Gcc.a(machwiPollHandler.o)
                0x00011e3e                machwiResetPollHandler
 .text.machwiPollInd
                0x00011e44       0x5a ./../../../../BitCloud/lib/libBc_Coordinator_Atmega128rfa1_Atmega128rfa1_Gcc.a(machwiPollHandler.o)
                0x00011e44                machwiPollInd
 .text.machwiDataIndication
                0x00011e9e      0x1cc ./../../../../BitCloud/lib/libBc_Coordinator_Atmega128rfa1_Atmega128rfa1_Gcc.a(machwiPollHandler.o)
                0x00011e9e                machwiDataIndication
 .text.machwiPollReqHandler
                0x0001206a      0x15c ./../../../../BitCloud/lib/libBc_Coordinator_Atmega128rfa1_Atmega128rfa1_Gcc.a(machwiPollHandler.o)
                0x0001206a                machwiPollReqHandler
 .text.machwiPurgeReqHandler
                0x000121c6       0x2e ./../../../../BitCloud/lib/libBc_Coordinator_Atmega128rfa1_Atmega128rfa1_Gcc.a(machwiPurgeHandler.o)
                0x000121c6                machwiPurgeReqHandler
 .text.finishResetOperationsAndGenerateConfirm
                0x000121f4        0xe ./../../../../BitCloud/lib/libBc_Coordinator_Atmega128rfa1_Atmega128rfa1_Gcc.a(machwiResetHandler.o)
 .text.machwdSetTrxStateConfirm
                0x00012202        0x6 ./../../../../BitCloud/lib/libBc_Coordinator_Atmega128rfa1_Atmega128rfa1_Gcc.a(machwiResetHandler.o)
 .text.machwdSetConfirm
                0x00012208       0x1c ./../../../../BitCloud/lib/libBc_Coordinator_Atmega128rfa1_Atmega128rfa1_Gcc.a(machwiResetHandler.o)
 .text.machwiResetReqHandler
                0x00012224       0x72 ./../../../../BitCloud/lib/libBc_Coordinator_Atmega128rfa1_Atmega128rfa1_Gcc.a(machwiResetHandler.o)
                0x00012224                machwiResetReqHandler
 .text.machwdSetTrxStateConfirm
                0x00012296       0x12 ./../../../../BitCloud/lib/libBc_Coordinator_Atmega128rfa1_Atmega128rfa1_Gcc.a(machwiRxEnableHandler.o)
 .text.machwiRxEnableReqHandler
                0x000122a8       0x3a ./../../../../BitCloud/lib/libBc_Coordinator_Atmega128rfa1_Atmega128rfa1_Gcc.a(machwiRxEnableHandler.o)
                0x000122a8                machwiRxEnableReqHandler
 .text.setNextChannel
                0x000122e2       0x7a ./../../../../BitCloud/lib/libBc_Coordinator_Atmega128rfa1_Atmega128rfa1_Gcc.a(machwiScanHandler.o)
 .text.switchToActiveChannel
                0x0001235c       0x2c ./../../../../BitCloud/lib/libBc_Coordinator_Atmega128rfa1_Atmega128rfa1_Gcc.a(machwiScanHandler.o)
 .text.halScanTimerFired
                0x00012388       0x2a ./../../../../BitCloud/lib/libBc_Coordinator_Atmega128rfa1_Atmega128rfa1_Gcc.a(machwiScanHandler.o)
 .text.machwdDataConfirm
                0x000123b2       0x76 ./../../../../BitCloud/lib/libBc_Coordinator_Atmega128rfa1_Atmega128rfa1_Gcc.a(machwiScanHandler.o)
 .text.machwdEdConfirm
                0x00012428       0xf0 ./../../../../BitCloud/lib/libBc_Coordinator_Atmega128rfa1_Atmega128rfa1_Gcc.a(machwiScanHandler.o)
 .text.trxStateHandling
                0x00012518       0x1a ./../../../../BitCloud/lib/libBc_Coordinator_Atmega128rfa1_Atmega128rfa1_Gcc.a(machwiScanHandler.o)
 .text.finishScan
                0x00012532        0xe ./../../../../BitCloud/lib/libBc_Coordinator_Atmega128rfa1_Atmega128rfa1_Gcc.a(machwiScanHandler.o)
 .text.generateScanConfirm
                0x00012540       0x12 ./../../../../BitCloud/lib/libBc_Coordinator_Atmega128rfa1_Atmega128rfa1_Gcc.a(machwiScanHandler.o)
 .text.machwdSetConfirm
                0x00012552      0x2ea ./../../../../BitCloud/lib/libBc_Coordinator_Atmega128rfa1_Atmega128rfa1_Gcc.a(machwiScanHandler.o)
 .text.machwdSetTrxStateConfirm
                0x0001283c       0xf2 ./../../../../BitCloud/lib/libBc_Coordinator_Atmega128rfa1_Atmega128rfa1_Gcc.a(machwiScanHandler.o)
 .text.machwiScanReqHandler
                0x0001292e      0x1a0 ./../../../../BitCloud/lib/libBc_Coordinator_Atmega128rfa1_Atmega128rfa1_Gcc.a(machwiScanHandler.o)
                0x0001292e                machwiScanReqHandler
 .text.machwiBeaconInd
                0x00012ace      0x2da ./../../../../BitCloud/lib/libBc_Coordinator_Atmega128rfa1_Atmega128rfa1_Gcc.a(machwiScanHandler.o)
                0x00012ace                machwiBeaconInd
 .text.machwiCoordRealignmentCommandInd
                0x00012da8       0xe6 ./../../../../BitCloud/lib/libBc_Coordinator_Atmega128rfa1_Atmega128rfa1_Gcc.a(machwiScanHandler.o)
                0x00012da8                machwiCoordRealignmentCommandInd
 .text.machwiResetScanHandler
                0x00012e8e        0x6 ./../../../../BitCloud/lib/libBc_Coordinator_Atmega128rfa1_Atmega128rfa1_Gcc.a(machwiScanHandler.o)
                0x00012e8e                machwiResetScanHandler
 .text.machwdSetConfirm
                0x00012e94        0xe ./../../../../BitCloud/lib/libBc_Coordinator_Atmega128rfa1_Atmega128rfa1_Gcc.a(machwiSetGetHandler.o)
 .text.machwiGetReqHandler
                0x00012ea2       0x4c ./../../../../BitCloud/lib/libBc_Coordinator_Atmega128rfa1_Atmega128rfa1_Gcc.a(machwiSetGetHandler.o)
                0x00012ea2                machwiGetReqHandler
 .text.machwiSetReqHandler
                0x00012eee       0xae ./../../../../BitCloud/lib/libBc_Coordinator_Atmega128rfa1_Atmega128rfa1_Gcc.a(machwiSetGetHandler.o)
                0x00012eee                machwiSetReqHandler
 .text.setHandling
                0x00012f9c       0x64 ./../../../../BitCloud/lib/libBc_Coordinator_Atmega128rfa1_Atmega128rfa1_Gcc.a(machwiStartHandler.o)
 .text.setStartReqParam
                0x00013000       0xa8 ./../../../../BitCloud/lib/libBc_Coordinator_Atmega128rfa1_Atmega128rfa1_Gcc.a(machwiStartHandler.o)
 .text.generateConfirm
                0x000130a8       0x3a ./../../../../BitCloud/lib/libBc_Coordinator_Atmega128rfa1_Atmega128rfa1_Gcc.a(machwiStartHandler.o)
 .text.machwdSetConfirm
                0x000130e2      0x19e ./../../../../BitCloud/lib/libBc_Coordinator_Atmega128rfa1_Atmega128rfa1_Gcc.a(machwiStartHandler.o)
 .text.machwdDataConfirm
                0x00013280       0x36 ./../../../../BitCloud/lib/libBc_Coordinator_Atmega128rfa1_Atmega128rfa1_Gcc.a(machwiStartHandler.o)
 .text.machwiStartReqHandler
                0x000132b6       0x56 ./../../../../BitCloud/lib/libBc_Coordinator_Atmega128rfa1_Atmega128rfa1_Gcc.a(machwiStartHandler.o)
                0x000132b6                machwiStartReqHandler
 .text.machwiResetStartHandler
                0x0001330c        0xa ./../../../../BitCloud/lib/libBc_Coordinator_Atmega128rfa1_Atmega128rfa1_Gcc.a(machwiStartHandler.o)
                0x0001330c                machwiResetStartHandler
 .text.machwdSetTrxStateConfirm
                0x00013316        0xc ./../../../../BitCloud/lib/libBc_Coordinator_Atmega128rfa1_Atmega128rfa1_Gcc.a(machwiSwitchRxCtrl.o)
 .text.machwiSwitchRxAccordToRxOnWhenIdle
                0x00013322       0x2a ./../../../../BitCloud/lib/libBc_Coordinator_Atmega128rfa1_Atmega128rfa1_Gcc.a(machwiSwitchRxCtrl.o)
                0x00013322                machwiSwitchRxAccordToRxOnWhenIdle
 .text.machwdDataConfirmEmptyData
                0x0001334c        0x6 ./../../../../BitCloud/lib/libBc_Coordinator_Atmega128rfa1_Atmega128rfa1_Gcc.a(machwiTransactionHandler.o)
 .text.machwiResetTransactionHandler
                0x00013352        0xa ./../../../../BitCloud/lib/libBc_Coordinator_Atmega128rfa1_Atmega128rfa1_Gcc.a(machwiTransactionHandler.o)
                0x00013352                machwiResetTransactionHandler
 .text.machwiSendTransactionEvent
                0x0001335c      0x1da ./../../../../BitCloud/lib/libBc_Coordinator_Atmega128rfa1_Atmega128rfa1_Gcc.a(machwiTransactionHandler.o)
                0x0001335c                machwiSendTransactionEvent
 .text.machwdDataConfirm
                0x00013536       0xbc ./../../../../BitCloud/lib/libBc_Coordinator_Atmega128rfa1_Atmega128rfa1_Gcc.a(machwiTransactionHandler.o)
 .text.replyWithEmptyDataFrame
                0x000135f2       0x98 ./../../../../BitCloud/lib/libBc_Coordinator_Atmega128rfa1_Atmega128rfa1_Gcc.a(machwiTransactionHandler.o)
                0x000135f2                replyWithEmptyDataFrame
 .text.stopTransactionTimer
                0x0001368a        0xa ./../../../../BitCloud/lib/libBc_Coordinator_Atmega128rfa1_Atmega128rfa1_Gcc.a(machwiTransactionQueue.o)
 .text.transactionTimerFired
                0x00013694       0x5e ./../../../../BitCloud/lib/libBc_Coordinator_Atmega128rfa1_Atmega128rfa1_Gcc.a(machwiTransactionQueue.o)
 .text.machwiPutTransactionToQueue
                0x000136f2       0x76 ./../../../../BitCloud/lib/libBc_Coordinator_Atmega128rfa1_Atmega128rfa1_Gcc.a(machwiTransactionQueue.o)
                0x000136f2                machwiPutTransactionToQueue
 .text.machwiGetActivatedTransactionFromQueue
                0x00013768       0x20 ./../../../../BitCloud/lib/libBc_Coordinator_Atmega128rfa1_Atmega128rfa1_Gcc.a(machwiTransactionQueue.o)
                0x00013768                machwiGetActivatedTransactionFromQueue
 .text.machwiTestAndKickQueueTransactions
                0x00013788      0x24c ./../../../../BitCloud/lib/libBc_Coordinator_Atmega128rfa1_Atmega128rfa1_Gcc.a(machwiTransactionQueue.o)
                0x00013788                machwiTestAndKickQueueTransactions
 .text.machwiFillPendingAddrSpecAndList
                0x000139d4        0x8 ./../../../../BitCloud/lib/libBc_Coordinator_Atmega128rfa1_Atmega128rfa1_Gcc.a(machwiTransactionQueue.o)
                0x000139d4                machwiFillPendingAddrSpecAndList
 .text.machwiDeleteTransactionFromQueue
                0x000139dc       0x2c ./../../../../BitCloud/lib/libBc_Coordinator_Atmega128rfa1_Atmega128rfa1_Gcc.a(machwiTransactionQueue.o)
                0x000139dc                machwiDeleteTransactionFromQueue
 .text.machwiPurgeTransactionFromQueue
                0x00013a08       0x3a ./../../../../BitCloud/lib/libBc_Coordinator_Atmega128rfa1_Atmega128rfa1_Gcc.a(machwiTransactionQueue.o)
                0x00013a08                machwiPurgeTransactionFromQueue
 .text.machwiResetTransactionQueue
                0x00013a42       0x3a ./../../../../BitCloud/lib/libBc_Coordinator_Atmega128rfa1_Atmega128rfa1_Gcc.a(machwiTransactionQueue.o)
                0x00013a42                machwiResetTransactionQueue
 .text.machwiTransactionQueueEmpty
                0x00013a7c       0x14 ./../../../../BitCloud/lib/libBc_Coordinator_Atmega128rfa1_Atmega128rfa1_Gcc.a(machwiTransactionQueue.o)
                0x00013a7c                machwiTransactionQueueEmpty
 .text.RF_Init  0x00013a90       0x2e ./../../../../BitCloud/lib/libBc_Coordinator_Atmega128rfa1_Atmega128rfa1_Gcc.a(phyInit.o)
                0x00013a90                RF_Init
 .text.PHY_RegWriteReq
                0x00013abe       0x3c ./../../../../BitCloud/lib/libBc_Coordinator_Atmega128rfa1_Atmega128rfa1_Gcc.a(phyRegAccess.o)
                0x00013abe                PHY_RegWriteReq
 .text.PHY_RegReadReq
                0x00013afa       0x3c ./../../../../BitCloud/lib/libBc_Coordinator_Atmega128rfa1_Atmega128rfa1_Gcc.a(phyRegAccess.o)
                0x00013afa                PHY_RegReadReq
 .text.PHY_Reset
                0x00013b36       0xae ./../../../../BitCloud/lib/libBc_Coordinator_Atmega128rfa1_Atmega128rfa1_Gcc.a(phyReset.o)
                0x00013b36                PHY_Reset
 .text.phyRxEndInterrupt
                0x00013be4      0x2d4 ./../../../../BitCloud/lib/libBc_Coordinator_Atmega128rfa1_Atmega128rfa1_Gcc.a(phyRfIrqDispatcher.o)
                0x00013be4                phyRxEndInterrupt
 .text.phyTxEndInterrupt
                0x00013eb8       0x8a ./../../../../BitCloud/lib/libBc_Coordinator_Atmega128rfa1_Atmega128rfa1_Gcc.a(phyRfIrqDispatcher.o)
                0x00013eb8                phyTxEndInterrupt
 .text.phyRestoreRfIrqMask
                0x00013f42        0x6 ./../../../../BitCloud/lib/libBc_Coordinator_Atmega128rfa1_Atmega128rfa1_Gcc.a(phyRfIrqDispatcher.o)
                0x00013f42                phyRestoreRfIrqMask
 .text.phyClearRfIrqMask
                0x00013f48        0xa ./../../../../BitCloud/lib/libBc_Coordinator_Atmega128rfa1_Atmega128rfa1_Gcc.a(phyRfIrqDispatcher.o)
                0x00013f48                phyClearRfIrqMask
 .text.phyGetDataStatus
                0x00013f52       0x16 ./../../../../BitCloud/lib/libBc_Coordinator_Atmega128rfa1_Atmega128rfa1_Gcc.a(phyRfIrqDispatcher.o)
                0x00013f52                phyGetDataStatus
 .text.PHY_RndReq
                0x00013f68       0xee ./../../../../BitCloud/lib/libBc_Coordinator_Atmega128rfa1_Atmega128rfa1_Gcc.a(phyRnd.o)
                0x00013f68                PHY_RndReq
 .text.PHY_DownloadFrame
                0x00014056      0x196 ./../../../../BitCloud/lib/libBc_Coordinator_Atmega128rfa1_Atmega128rfa1_Gcc.a(phyRxFrame.o)
                0x00014056                PHY_DownloadFrame
 .text.PHY_SetReq
                0x000141ec      0x1f2 ./../../../../BitCloud/lib/libBc_Coordinator_Atmega128rfa1_Atmega128rfa1_Gcc.a(phySet.o)
                0x000141ec                PHY_SetReq
 .text.PHY_SetTrxStateReq
                0x000143de       0x80 ./../../../../BitCloud/lib/libBc_Coordinator_Atmega128rfa1_Atmega128rfa1_Gcc.a(phySetTrxState.o)
                0x000143de                PHY_SetTrxStateReq
 .text.PHY_DataReq
                0x0001445e       0x28 ./../../../../BitCloud/lib/libBc_Coordinator_Atmega128rfa1_Atmega128rfa1_Gcc.a(phyTxFrame.o)
                0x0001445e                PHY_DataReq
 .text.machwdCalibReqHandler
                0x00014486       0x42 ./../../../../BitCloud/lib/libBc_Coordinator_Atmega128rfa1_Atmega128rfa1_Gcc.a(machwdCalibHandler.o)
                0x00014486                machwdCalibReqHandler
 .text.machwdCalibTaskHandler
                0x000144c8       0x34 ./../../../../BitCloud/lib/libBc_Coordinator_Atmega128rfa1_Atmega128rfa1_Gcc.a(machwdCalibHandler.o)
                0x000144c8                machwdCalibTaskHandler
 .text.machwdResetCalibHandler
                0x000144fc        0x6 ./../../../../BitCloud/lib/libBc_Coordinator_Atmega128rfa1_Atmega128rfa1_Gcc.a(machwdCalibHandler.o)
                0x000144fc                machwdResetCalibHandler
 .text.machwdEdReqHandler
                0x00014502       0x28 ./../../../../BitCloud/lib/libBc_Coordinator_Atmega128rfa1_Atmega128rfa1_Gcc.a(machwdEdHandler.o)
                0x00014502                machwdEdReqHandler
 .text.machwdEdTaskHandler
                0x0001452a       0x28 ./../../../../BitCloud/lib/libBc_Coordinator_Atmega128rfa1_Atmega128rfa1_Gcc.a(machwdEdHandler.o)
                0x0001452a                machwdEdTaskHandler
 .text.machwdResetEdHandler
                0x00014552        0x6 ./../../../../BitCloud/lib/libBc_Coordinator_Atmega128rfa1_Atmega128rfa1_Gcc.a(machwdEdHandler.o)
                0x00014552                machwdResetEdHandler
 .text.composePanIdAndAddress
                0x00014558       0x56 ./../../../../BitCloud/lib/libBc_Coordinator_Atmega128rfa1_Atmega128rfa1_Gcc.a(machwdFrameRoutine.o)
 .text.parsePanIdAndAddress
                0x000145ae       0x58 ./../../../../BitCloud/lib/libBc_Coordinator_Atmega128rfa1_Atmega128rfa1_Gcc.a(machwdFrameRoutine.o)
 .text.machwdParseFrame
                0x00014606      0x282 ./../../../../BitCloud/lib/libBc_Coordinator_Atmega128rfa1_Atmega128rfa1_Gcc.a(machwdFrameRoutine.o)
                0x00014606                machwdParseFrame
 .text.machwdComposeFrame
                0x00014888      0x1c0 ./../../../../BitCloud/lib/libBc_Coordinator_Atmega128rfa1_Atmega128rfa1_Gcc.a(machwdFrameRoutine.o)
                0x00014888                machwdComposeFrame
 .text.machwdGetHandlerId
                0x00014a48       0x48 ./../../../../BitCloud/lib/libBc_Coordinator_Atmega128rfa1_Atmega128rfa1_Gcc.a(machwdHandlerCtrl.o)
                0x00014a48                machwdGetHandlerId
 .text.setHandling
                0x00014a90       0x64 ./../../../../BitCloud/lib/libBc_Coordinator_Atmega128rfa1_Atmega128rfa1_Gcc.a(machwiAssociateHandler.o)
 .text.completeHandling
                0x00014af4       0x18 ./../../../../BitCloud/lib/libBc_Coordinator_Atmega128rfa1_Atmega128rfa1_Gcc.a(machwiAssociateHandler.o)
 .text.machwdSetConfirm
                0x00014b0c      0x18c ./../../../../BitCloud/lib/libBc_Coordinator_Atmega128rfa1_Atmega128rfa1_Gcc.a(machwiAssociateHandler.o)
 .text.machwdDataConfirm
                0x00014c98       0xba ./../../../../BitCloud/lib/libBc_Coordinator_Atmega128rfa1_Atmega128rfa1_Gcc.a(machwiAssociateHandler.o)
 .text.associateTimerFired
                0x00014d52      0x100 ./../../../../BitCloud/lib/libBc_Coordinator_Atmega128rfa1_Atmega128rfa1_Gcc.a(machwiAssociateHandler.o)
 .text.switchingCompleted
                0x00014e52       0x12 ./../../../../BitCloud/lib/libBc_Coordinator_Atmega128rfa1_Atmega128rfa1_Gcc.a(machwiAssociateHandler.o)
 .text.machwiResetAssociateHandler
                0x00014e64        0x6 ./../../../../BitCloud/lib/libBc_Coordinator_Atmega128rfa1_Atmega128rfa1_Gcc.a(machwiAssociateHandler.o)
                0x00014e64                machwiResetAssociateHandler
 .text.machwiAssociateReqInd
                0x00014e6a       0x52 ./../../../../BitCloud/lib/libBc_Coordinator_Atmega128rfa1_Atmega128rfa1_Gcc.a(machwiAssociateHandler.o)
                0x00014e6a                machwiAssociateReqInd
 .text.machwiAssociateReqHandler
                0x00014ebc       0x9a ./../../../../BitCloud/lib/libBc_Coordinator_Atmega128rfa1_Atmega128rfa1_Gcc.a(machwiAssociateHandler.o)
                0x00014ebc                machwiAssociateReqHandler
 .text.machwiAssociateRespHandler
                0x00014f56       0x20 ./../../../../BitCloud/lib/libBc_Coordinator_Atmega128rfa1_Atmega128rfa1_Gcc.a(machwiAssociateHandler.o)
                0x00014f56                machwiAssociateRespHandler
 .text.machwiAssociateRespInd
                0x00014f76      0x132 ./../../../../BitCloud/lib/libBc_Coordinator_Atmega128rfa1_Atmega128rfa1_Gcc.a(machwiAssociateHandler.o)
                0x00014f76                machwiAssociateRespInd
 .text.machwdDataConfirm
                0x000150a8       0x20 ./../../../../BitCloud/lib/libBc_Coordinator_Atmega128rfa1_Atmega128rfa1_Gcc.a(machwiBeaconHandler.o)
 .text.machwiSendBeacon
                0x000150c8      0x102 ./../../../../BitCloud/lib/libBc_Coordinator_Atmega128rfa1_Atmega128rfa1_Gcc.a(machwiBeaconHandler.o)
                0x000150c8                machwiSendBeacon
 .text.machwdDataConfirm
                0x000151ca       0x26 ./../../../../BitCloud/lib/libBc_Coordinator_Atmega128rfa1_Atmega128rfa1_Gcc.a(machwiDataHandler.o)
 .text.machwiConvertmachwdDataConfirmTypes
                0x000151f0       0x14 ./../../../../BitCloud/lib/libBc_Coordinator_Atmega128rfa1_Atmega128rfa1_Gcc.a(machwiDataHandler.o)
                0x000151f0                machwiConvertmachwdDataConfirmTypes
 .text.machwiPrepareDataFrame
                0x00015204      0x10e ./../../../../BitCloud/lib/libBc_Coordinator_Atmega128rfa1_Atmega128rfa1_Gcc.a(machwiDataHandler.o)
                0x00015204                machwiPrepareDataFrame
 .text.machwiDataReqHandler
                0x00015312       0x62 ./../../../../BitCloud/lib/libBc_Coordinator_Atmega128rfa1_Atmega128rfa1_Gcc.a(machwiDataHandler.o)
                0x00015312                machwiDataReqHandler
 .text.machwiCalculateAddressHash
                0x00015374       0x2e ./../../../../BitCloud/lib/libBc_Coordinator_Atmega128rfa1_Atmega128rfa1_Gcc.a(machwiTransactionHash.o)
 .text.machwiCalculateTransactionHash
                0x000153a2       0x32 ./../../../../BitCloud/lib/libBc_Coordinator_Atmega128rfa1_Atmega128rfa1_Gcc.a(machwiTransactionHash.o)
 .text.machwiTransctionHashInsert
                0x000153d4       0x2c ./../../../../BitCloud/lib/libBc_Coordinator_Atmega128rfa1_Atmega128rfa1_Gcc.a(machwiTransactionHash.o)
                0x000153d4                machwiTransctionHashInsert
 .text.machwiTransactionHashRemove
                0x00015400       0x68 ./../../../../BitCloud/lib/libBc_Coordinator_Atmega128rfa1_Atmega128rfa1_Gcc.a(machwiTransactionHash.o)
                0x00015400                machwiTransactionHashRemove
 .text.machwiIsNoDataPending
                0x00015468       0x2a ./../../../../BitCloud/lib/libBc_Coordinator_Atmega128rfa1_Atmega128rfa1_Gcc.a(machwiTransactionHash.o)
                0x00015468                machwiIsNoDataPending
 .text.machwiTransactionHashClear
                0x00015492       0x10 ./../../../../BitCloud/lib/libBc_Coordinator_Atmega128rfa1_Atmega128rfa1_Gcc.a(machwiTransactionHash.o)
                0x00015492                machwiTransactionHashClear
 .text.PHY_CalibReq
                0x000154a2       0x86 ./../../../../BitCloud/lib/libBc_Coordinator_Atmega128rfa1_Atmega128rfa1_Gcc.a(phyCalib.o)
                0x000154a2                PHY_CalibReq
 .text.PHY_EdReq
                0x00015528       0x40 ./../../../../BitCloud/lib/libBc_Coordinator_Atmega128rfa1_Atmega128rfa1_Gcc.a(phyEd.o)
                0x00015528                PHY_EdReq
 .text.phySetRTimerSource
                0x00015568        0x6 ./../../../../BitCloud/lib/libBc_Coordinator_Atmega128rfa1_Atmega128rfa1_Gcc.a(phyRtimerIrqDispatcher.o)
                0x00015568                phySetRTimerSource
 .text.phyDispatcheRTimerEvent
                0x0001556e       0xb2 ./../../../../BitCloud/lib/libBc_Coordinator_Atmega128rfa1_Atmega128rfa1_Gcc.a(phyRtimerIrqDispatcher.o)
                0x0001556e                phyDispatcheRTimerEvent
 .text.HAL_Delay
                0x00015620        0x6 ./../../../../BitCloud/lib/libHAL_RcbAtm128rfa1_Atmega128rfa1_8Mhz_Gcc.a(halDelay.o)
                0x00015620                HAL_Delay
 .text.HAL_Init
                0x00015626       0x3c ./../../../../BitCloud/lib/libHAL_RcbAtm128rfa1_Atmega128rfa1_8Mhz_Gcc.a(halInit.o)
                0x00015626                HAL_Init
 .text.HAL_EnableRxTxSwitcher
                0x00015662        0x6 ./../../../../BitCloud/lib/libHAL_RcbAtm128rfa1_Atmega128rfa1_8Mhz_Gcc.a(halRfCtrl.o)
                0x00015662                HAL_EnableRxTxSwitcher
 .text.HAL_InitAntennaDiversity
                0x00015668        0x2 ./../../../../BitCloud/lib/libHAL_RcbAtm128rfa1_Atmega128rfa1_8Mhz_Gcc.a(halRfCtrl.o)
                0x00015668                HAL_InitAntennaDiversity
 .text.HAL_EnableRxAntennaDiversity
                0x0001566a        0x2 ./../../../../BitCloud/lib/libHAL_RcbAtm128rfa1_Atmega128rfa1_8Mhz_Gcc.a(halRfCtrl.o)
                0x0001566a                HAL_EnableRxAntennaDiversity
 .text.HAL_EnableTxAntennaDiversity
                0x0001566c        0x2 ./../../../../BitCloud/lib/libHAL_RcbAtm128rfa1_Atmega128rfa1_8Mhz_Gcc.a(halRfCtrl.o)
                0x0001566c                HAL_EnableTxAntennaDiversity
 .text.halWriteByteSpi
                0x0001566e        0xe ./../../../../BitCloud/lib/libHAL_RcbAtm128rfa1_Atmega128rfa1_8Mhz_Gcc.a(halUid.o)
 .text.halReadUid
                0x0001567c       0x52 ./../../../../BitCloud/lib/libHAL_RcbAtm128rfa1_Atmega128rfa1_8Mhz_Gcc.a(halUid.o)
                0x0001567c                halReadUid
 .text.HAL_ReadUid
                0x000156ce       0x44 ./../../../../BitCloud/lib/libHAL_RcbAtm128rfa1_Atmega128rfa1_8Mhz_Gcc.a(halUid.o)
                0x000156ce                HAL_ReadUid
 .text.HAL_InitMacIsr
                0x00015712        0x8 ./../../../../BitCloud/lib/libHAL_RcbAtm128rfa1_Atmega128rfa1_8Mhz_Gcc.a(halMacIsr.o)
                0x00015712                HAL_InitMacIsr
 .text.HAL_StartRtimer
                0x0001571a       0x72 ./../../../../BitCloud/lib/libHAL_RcbAtm128rfa1_Atmega128rfa1_8Mhz_Gcc.a(halMacIsr.o)
                0x0001571a                HAL_StartRtimer
 .text.HAL_StopRtimer
                0x0001578c       0x14 ./../../../../BitCloud/lib/libHAL_RcbAtm128rfa1_Atmega128rfa1_8Mhz_Gcc.a(halMacIsr.o)
                0x0001578c                HAL_StopRtimer
 .text.__vector_43
                0x000157a0       0xba ./../../../../BitCloud/lib/libHAL_RcbAtm128rfa1_Atmega128rfa1_8Mhz_Gcc.a(halMacIsr.o)
                0x000157a0                __vector_43
 .text.__vector_60
                0x0001585a       0x50 ./../../../../BitCloud/lib/libHAL_RcbAtm128rfa1_Atmega128rfa1_8Mhz_Gcc.a(halMacIsr.o)
                0x0001585a                __vector_60
 .text.__vector_63
                0x000158aa       0x50 ./../../../../BitCloud/lib/libHAL_RcbAtm128rfa1_Atmega128rfa1_8Mhz_Gcc.a(halMacIsr.o)
                0x000158aa                __vector_63
 .text.libgcc   0x000158fa       0x3e d:/program files/atmel/avr studio 5.1/extensions/atmel/avrgcc/3.3.1.27/avrtoolchain/bin/../lib/gcc/avr/4.5.1/avr51\libgcc.a(_mulsi3.o)
                0x000158fa                __mulsi3
 .text.libgcc   0x00015938       0x18 d:/program files/atmel/avr studio 5.1/extensions/atmel/avrgcc/3.3.1.27/avrtoolchain/bin/../lib/gcc/avr/4.5.1/avr51\libgcc.a(_udivmodqi4.o)
                0x00015938                __udivmodqi4
 .text.libgcc   0x00015950       0x28 d:/program files/atmel/avr studio 5.1/extensions/atmel/avrgcc/3.3.1.27/avrtoolchain/bin/../lib/gcc/avr/4.5.1/avr51\libgcc.a(_udivmodhi4.o)
                0x00015950                __udivmodhi4
 .text.libgcc   0x00015978       0x44 d:/program files/atmel/avr studio 5.1/extensions/atmel/avrgcc/3.3.1.27/avrtoolchain/bin/../lib/gcc/avr/4.5.1/avr51\libgcc.a(_udivmodsi4.o)
                0x00015978                __udivmodsi4
 .text.libgcc   0x000159bc       0x38 d:/program files/atmel/avr studio 5.1/extensions/atmel/avrgcc/3.3.1.27/avrtoolchain/bin/../lib/gcc/avr/4.5.1/avr51\libgcc.a(_prologue.o)
                0x000159bc                __prologue_saves__
 .text.libgcc   0x000159f4       0x36 d:/program files/atmel/avr studio 5.1/extensions/atmel/avrgcc/3.3.1.27/avrtoolchain/bin/../lib/gcc/avr/4.5.1/avr51\libgcc.a(_epilogue.o)
                0x000159f4                __epilogue_restores__
 .text.libgcc   0x00015a2a        0xc d:/program files/atmel/avr studio 5.1/extensions/atmel/avrgcc/3.3.1.27/avrtoolchain/bin/../lib/gcc/avr/4.5.1/avr51\libgcc.a(_tablejump.o)
                0x00015a2a                __tablejump2__
                0x00015a2e                __tablejump__
 .text.avr-libc
                0x00015a36       0xbc d:/program files/atmel/avr studio 5.1/extensions/atmel/avrgcc/3.3.1.27/avrtoolchain/bin/../lib/gcc/avr/4.5.1/../../../../avr/lib/avr51\libc.a(rand.o)
                0x00015acc                rand_r
                0x00015ad2                rand
                0x00015adc                srand
 .text.avr-libc
                0x00015af2       0x12 d:/program files/atmel/avr studio 5.1/extensions/atmel/avrgcc/3.3.1.27/avrtoolchain/bin/../lib/gcc/avr/4.5.1/../../../../avr/lib/avr51\libc.a(memcpy_P.o)
                0x00015af2                memcpy_P
 .text.avr-libc
                0x00015b04       0x1a d:/program files/atmel/avr studio 5.1/extensions/atmel/avrgcc/3.3.1.27/avrtoolchain/bin/../lib/gcc/avr/4.5.1/../../../../avr/lib/avr51\libc.a(memcmp.o)
                0x00015b04                memcmp
 .text.avr-libc
                0x00015b1e       0x12 d:/program files/atmel/avr studio 5.1/extensions/atmel/avrgcc/3.3.1.27/avrtoolchain/bin/../lib/gcc/avr/4.5.1/../../../../avr/lib/avr51\libc.a(memcpy.o)
                0x00015b1e                memcpy
 .text.avr-libc
                0x00015b30       0x24 d:/program files/atmel/avr studio 5.1/extensions/atmel/avrgcc/3.3.1.27/avrtoolchain/bin/../lib/gcc/avr/4.5.1/../../../../avr/lib/avr51\libc.a(memmove.o)
                0x00015b30                memmove
 .text.avr-libc
                0x00015b54        0xe d:/program files/atmel/avr studio 5.1/extensions/atmel/avrgcc/3.3.1.27/avrtoolchain/bin/../lib/gcc/avr/4.5.1/../../../../avr/lib/avr51\libc.a(memset.o)
                0x00015b54                memset
 .text.avr-libc
                0x00015b62       0x16 d:/program files/atmel/avr studio 5.1/extensions/atmel/avrgcc/3.3.1.27/avrtoolchain/bin/../lib/gcc/avr/4.5.1/../../../../avr/lib/avr51\libc.a(strcat.o)
                0x00015b62                strcat
 .text.avr-libc
                0x00015b78        0xe d:/program files/atmel/avr studio 5.1/extensions/atmel/avrgcc/3.3.1.27/avrtoolchain/bin/../lib/gcc/avr/4.5.1/../../../../avr/lib/avr51\libc.a(strcpy.o)
                0x00015b78                strcpy
 .text.avr-libc
                0x00015b86       0x60 d:/program files/atmel/avr studio 5.1/extensions/atmel/avrgcc/3.3.1.27/avrtoolchain/bin/../lib/gcc/avr/4.5.1/../../../../avr/lib/avr51\libc.a(sprintf.o)
                0x00015b86                sprintf
 .text.avr-libc
                0x00015be6      0x420 d:/program files/atmel/avr studio 5.1/extensions/atmel/avrgcc/3.3.1.27/avrtoolchain/bin/../lib/gcc/avr/4.5.1/../../../../avr/lib/avr51\libc.a(vfprintf_std.o)
                0x00015be6                vfprintf
 .text.avr-libc
                0x00016006       0x16 d:/program files/atmel/avr studio 5.1/extensions/atmel/avrgcc/3.3.1.27/avrtoolchain/bin/../lib/gcc/avr/4.5.1/../../../../avr/lib/avr51\libc.a(strnlen_P.o)
                0x00016006                strnlen_P
 .text.avr-libc
                0x0001601c       0x16 d:/program files/atmel/avr studio 5.1/extensions/atmel/avrgcc/3.3.1.27/avrtoolchain/bin/../lib/gcc/avr/4.5.1/../../../../avr/lib/avr51\libc.a(strnlen.o)
                0x0001601c                strnlen
 .text.avr-libc
                0x00016032       0x58 d:/program files/atmel/avr studio 5.1/extensions/atmel/avrgcc/3.3.1.27/avrtoolchain/bin/../lib/gcc/avr/4.5.1/../../../../avr/lib/avr51\libc.a(fputc.o)
                0x00016032                fputc
 .text.avr-libc
                0x0001608a       0xbc d:/program files/atmel/avr studio 5.1/extensions/atmel/avrgcc/3.3.1.27/avrtoolchain/bin/../lib/gcc/avr/4.5.1/../../../../avr/lib/avr51\libc.a(ultoa_invert.o)
                0x0001608a                __ultoa_invert
 .text.libgcc   0x00016146       0x36 d:/program files/atmel/avr studio 5.1/extensions/atmel/avrgcc/3.3.1.27/avrtoolchain/bin/../lib/gcc/avr/4.5.1/avr51\libgcc.a(_divmodsi4.o)
                0x00016146                __divmodsi4
                0x0001617c                PROVIDE (__text_end, .)

.data           0x00800200      0x16a load address 0x0001617c
                0x00800200                PROVIDE (__data_start, .)
 *(.data*)
 .data          0x00800200       0xef Coordinator_Rcb_Atmega128rfa1_8Mhz_Gcc/Obj/blink.o
 .data          0x008002ef        0x9 ./../../../../BitCloud/lib/libHAL_RcbAtm128rfa1_Atmega128rfa1_8Mhz_Gcc.a(usart.o)
 .data          0x008002f8        0x6 ./../../../../BitCloud/lib/libBc_Coordinator_Atmega128rfa1_Atmega128rfa1_Gcc.a(nwk.o)
 .data          0x008002fe       0x16 ./../../../../BitCloud/lib/libBc_Coordinator_Atmega128rfa1_Atmega128rfa1_Gcc.a(taskManager.o)
 .data          0x00800314       0x26 ./../../../../BitCloud/lib/libBc_Coordinator_Atmega128rfa1_Atmega128rfa1_Gcc.a(zdo.o)
 .data          0x0080033a       0x18 ./../../../../BitCloud/lib/libBc_Coordinator_Atmega128rfa1_Atmega128rfa1_Gcc.a(machwdTrxCtrl.o)
 .data          0x00800352        0x5 ./../../../../BitCloud/lib/libBc_Coordinator_Atmega128rfa1_Atmega128rfa1_Gcc.a(machwiSetGetHandler.o)
 .data          0x00800357        0x8 ./../../../../BitCloud/lib/libBc_Coordinator_Atmega128rfa1_Atmega128rfa1_Gcc.a(phyRfIrqDispatcher.o)
 .data          0x0080035f        0x2 ./../../../../BitCloud/lib/libBc_Coordinator_Atmega128rfa1_Atmega128rfa1_Gcc.a(machwdFrameRoutine.o)
 .data          0x00800361        0x4 ./../../../../BitCloud/lib/libBc_Coordinator_Atmega128rfa1_Atmega128rfa1_Gcc.a(machwiDataHandler.o)
 .data          0x00800365        0x4 d:/program files/atmel/avr studio 5.1/extensions/atmel/avrgcc/3.3.1.27/avrtoolchain/bin/../lib/gcc/avr/4.5.1/../../../../avr/lib/avr51\libc.a(rand.o)
 *(.rodata*)
 *(.gnu.linkonce.d*)
                0x0080036a                . = ALIGN (0x2)
 *fill*         0x00800369        0x1 00
                0x0080036a                PROVIDE (__data_end, .)

.bss            0x0080036a     0x12bf load address 0x000162e6
                0x0080036a                PROVIDE (__bss_start, .)
 *(.bss*)
 .bss           0x0080036a       0x8d Coordinator_Rcb_Atmega128rfa1_8Mhz_Gcc/Obj/blink.o
                0x0080036a                human_s
                0x0080036f                sensor_state
 .bss           0x008003f7        0x8 Coordinator_Rcb_Atmega128rfa1_8Mhz_Gcc/Obj/pdsWriteData.o
 .bss           0x008003ff        0x1 Coordinator_Rcb_Atmega128rfa1_8Mhz_Gcc/Obj/bspTaskManager.o
                0x008003ff                bspTaskFlags
 .bss           0x00800400        0x6 Coordinator_Rcb_Atmega128rfa1_8Mhz_Gcc/Obj/buttons.o
 .bss           0x00800406        0x2 ./../../../../BitCloud/lib/libHAL_RcbAtm128rfa1_Atmega128rfa1_8Mhz_Gcc.a(appTimer.o)
 .bss           0x00800408        0x5 ./../../../../BitCloud/lib/libHAL_RcbAtm128rfa1_Atmega128rfa1_8Mhz_Gcc.a(halTaskManager.o)
                0x00800408                halTaskFlags0
                0x00800409                halTaskFlags1
                0x0080040a                halTaskFlags2
                0x0080040b                halTaskFlags3
                0x0080040c                halTaskFlags4
 .bss           0x0080040d        0x8 ./../../../../BitCloud/lib/libHAL_RcbAtm128rfa1_Atmega128rfa1_8Mhz_Gcc.a(usart.o)
                0x0080040d                halPointDescrip
                0x00800411                halEnableDtrWakeUp
                0x00800412                dtrWakeUpCallback
 .bss           0x00800415        0x2 ./../../../../BitCloud/lib/libHAL_RcbAtm128rfa1_Atmega128rfa1_8Mhz_Gcc.a(i2cPacket.o)
 .bss           0x00800417        0x1 ./../../../../BitCloud/lib/libHAL_RcbAtm128rfa1_Atmega128rfa1_8Mhz_Gcc.a(eeprom.o)
                0x00800417                halEepromState
 .bss           0x00800418        0x2 ./../../../../BitCloud/lib/libHAL_RcbAtm128rfa1_Atmega128rfa1_8Mhz_Gcc.a(adc.o)
                0x00800418                adcDesc
 .bss           0x0080041a        0x9 ./../../../../BitCloud/lib/libHAL_RcbAtm128rfa1_Atmega128rfa1_8Mhz_Gcc.a(halSleepTimerClock.o)
                0x0080041a                halSleepTimerOvfw
 .bss           0x00800423        0x2 ./../../../../BitCloud/lib/libHAL_RcbAtm128rfa1_Atmega128rfa1_8Mhz_Gcc.a(halSecurityModule.o)
 .bss           0x00800425        0x6 ./../../../../BitCloud/lib/libHAL_RcbAtm128rfa1_Atmega128rfa1_8Mhz_Gcc.a(halAppClock.o)
                0x00800425                halAppTimeOvfw
 .bss           0x0080042b       0x10 ./../../../../BitCloud/lib/libHAL_RcbAtm128rfa1_Atmega128rfa1_8Mhz_Gcc.a(halIrq.o)
                0x0080042b                IrqCallbackList
 .bss           0x0080043b        0x4 ./../../../../BitCloud/lib/libHAL_RcbAtm128rfa1_Atmega128rfa1_8Mhz_Gcc.a(halSleep.o)
 .bss           0x0080043f        0x2 ./../../../../BitCloud/lib/libHAL_RcbAtm128rfa1_Atmega128rfa1_8Mhz_Gcc.a(halSpi.o)
                0x0080043f                halRealSpiDescripPointer
 .bss           0x00800441       0x10 ./../../../../BitCloud/lib/libHAL_RcbAtm128rfa1_Atmega128rfa1_8Mhz_Gcc.a(sleep.o)
                0x00800441                halSleepControl
 .bss           0x00800451        0x1 ./../../../../BitCloud/lib/libHAL_RcbAtm128rfa1_Atmega128rfa1_8Mhz_Gcc.a(halClkCtrl.o)
 .bss           0x00800452       0x36 ./../../../../BitCloud/lib/libBc_Coordinator_Atmega128rfa1_Atmega128rfa1_Gcc.a(aps.o)
                0x00800452                apsState
 .bss           0x00800488        0x1 ./../../../../BitCloud/lib/libBc_Coordinator_Atmega128rfa1_Atmega128rfa1_Gcc.a(phyStateMachine.o)
                0x00800488                __wasRequest
 .bss           0x00800489        0x6 ./../../../../BitCloud/lib/libBc_Coordinator_Atmega128rfa1_Atmega128rfa1_Gcc.a(sysEvents.o)
 .bss           0x0080048f        0x2 ./../../../../BitCloud/lib/libBc_Coordinator_Atmega128rfa1_Atmega128rfa1_Gcc.a(taskManager.o)
                0x0080048f                SYS_taskFlag
 .bss           0x00800491        0x4 ./../../../../BitCloud/lib/libBc_Coordinator_Atmega128rfa1_Atmega128rfa1_Gcc.a(machwdManager.o)
                0x00800491                __wasPostTask
 .bss           0x00800495        0x1 ./../../../../BitCloud/lib/libBc_Coordinator_Atmega128rfa1_Atmega128rfa1_Gcc.a(machwdRegAccessHandler.o)
 .bss           0x00800496        0x1 ./../../../../BitCloud/lib/libBc_Coordinator_Atmega128rfa1_Atmega128rfa1_Gcc.a(machwdRndHandler.o)
 .bss           0x00800497        0x4 ./../../../../BitCloud/lib/libBc_Coordinator_Atmega128rfa1_Atmega128rfa1_Gcc.a(machwdSetHandler.o)
 .bss           0x0080049b        0x1 ./../../../../BitCloud/lib/libBc_Coordinator_Atmega128rfa1_Atmega128rfa1_Gcc.a(machwdTrxHandler.o)
 .bss           0x0080049c        0x2 ./../../../../BitCloud/lib/libBc_Coordinator_Atmega128rfa1_Atmega128rfa1_Gcc.a(machwdTxFrameHandler.o)
 .bss           0x0080049e        0x1 ./../../../../BitCloud/lib/libBc_Coordinator_Atmega128rfa1_Atmega128rfa1_Gcc.a(machwiScanHandler.o)
 .bss           0x0080049f        0x1 ./../../../../BitCloud/lib/libBc_Coordinator_Atmega128rfa1_Atmega128rfa1_Gcc.a(phyRfIrqDispatcher.o)
 .bss           0x008004a0        0x1 ./../../../../BitCloud/lib/libBc_Coordinator_Atmega128rfa1_Atmega128rfa1_Gcc.a(phySet.o)
 .bss           0x008004a1        0x1 ./../../../../BitCloud/lib/libBc_Coordinator_Atmega128rfa1_Atmega128rfa1_Gcc.a(machwdCalibHandler.o)
 .bss           0x008004a2        0x1 ./../../../../BitCloud/lib/libBc_Coordinator_Atmega128rfa1_Atmega128rfa1_Gcc.a(machwdEdHandler.o)
 .bss           0x008004a3        0x4 ./../../../../BitCloud/lib/libBc_Coordinator_Atmega128rfa1_Atmega128rfa1_Gcc.a(machwdHandlerCtrl.o)
                0x008004a3                __handlers
                0x008004a5                __macRequest
 .bss           0x008004a7       0x20 ./../../../../BitCloud/lib/libBc_Coordinator_Atmega128rfa1_Atmega128rfa1_Gcc.a(machwiTransactionHash.o)
 .bss           0x008004c7        0x8 ./../../../../BitCloud/lib/libHAL_RcbAtm128rfa1_Atmega128rfa1_8Mhz_Gcc.a(halUid.o)
 *(COMMON)
 COMMON         0x008004cf      0x206 Coordinator_Rcb_Atmega128rfa1_8Mhz_Gcc/Obj/blink.o
                0x008004cf                rxBuffer
                0x008006c3                dataBuffers
 COMMON         0x008006d5       0x2e Coordinator_Rcb_Atmega128rfa1_8Mhz_Gcc/Obj/pdsMem.o
                0x008006d5                pdsMem
 COMMON         0x00800703        0x6 Coordinator_Rcb_Atmega128rfa1_8Mhz_Gcc/Obj/fakeBSP.o
                0x00800703                readBatteryDataCallback
                0x00800705                readTemperatureDataCallback
                0x00800707                readLightDataCallback
 COMMON         0x00800709      0x8e9 Coordinator_Rcb_Atmega128rfa1_8Mhz_Gcc/Obj/csMem.o
                0x00800709                stackBuffers
                0x00800ec7                csAIB
                0x00800ec9                csZIB
                0x00800ef8                csPIB
                0x00800f30                csSIB
                0x00800f6c                csNIB
 COMMON         0x00800ff2        0x2 ./../../../../BitCloud/lib/libHAL_RcbAtm128rfa1_Atmega128rfa1_8Mhz_Gcc.a(halTaskManager.o)
                0x00800ff2                extHandler
 COMMON         0x00800ff4        0x8 ./../../../../BitCloud/lib/libHAL_RcbAtm128rfa1_Atmega128rfa1_8Mhz_Gcc.a(eeprom.o)
                0x00800ff4                halEepromParams
                0x00800ffa                halEepromDone
 COMMON         0x00800ffc        0xa ./../../../../BitCloud/lib/libHAL_RcbAtm128rfa1_Atmega128rfa1_8Mhz_Gcc.a(halSpi.o)
                0x00800ffc                rxSlaveBuffer
 COMMON         0x00801006       0xbc ./../../../../BitCloud/lib/libBc_Coordinator_Atmega128rfa1_Atmega128rfa1_Gcc.a(aps.o)
                0x00801006                apsMem
 COMMON         0x008010c2      0x10c ./../../../../BitCloud/lib/libBc_Coordinator_Atmega128rfa1_Atmega128rfa1_Gcc.a(nwk.o)
                0x008010c2                nwkMem
 COMMON         0x008011ce      0x3ab ./../../../../BitCloud/lib/libBc_Coordinator_Atmega128rfa1_Atmega128rfa1_Gcc.a(zdo.o)
                0x008011ce                zdoMem
 COMMON         0x00801579       0x88 ./../../../../BitCloud/lib/libBc_Coordinator_Atmega128rfa1_Atmega128rfa1_Gcc.a(macMem.o)
                0x00801579                macMem
 COMMON         0x00801601        0x1 ./../../../../BitCloud/lib/libBc_Coordinator_Atmega128rfa1_Atmega128rfa1_Gcc.a(machwdTrxCtrl.o)
                0x00801601                __sourceHandler
 COMMON         0x00801602        0x1 ./../../../../BitCloud/lib/libBc_Coordinator_Atmega128rfa1_Atmega128rfa1_Gcc.a(machwdEdHandler.o)
                0x00801602                __energyLevel
 COMMON         0x00801603       0x21 ./../../../../BitCloud/lib/libBc_Coordinator_Atmega128rfa1_Atmega128rfa1_Gcc.a(machwdFrameRoutine.o)
                0x00801603                txBuffer
 COMMON         0x00801624        0x5 ./../../../../BitCloud/lib/libHAL_RcbAtm128rfa1_Atmega128rfa1_8Mhz_Gcc.a(halMacIsr.o)
                0x00801624                __rtimer
                0x00801629                PROVIDE (__bss_end, .)

.noinit         0x00801629        0x1 load address 0x000175a5
 *(.noinit*)
 .noinit        0x00801629        0x1 ./../../../../BitCloud/lib/WdtInitatmega128rfa1_Gcc.o
                0x00801629                halResetReason
                0x0080162a                PROVIDE (__heap_start, .)
                0x0080162a                __stack_start = .
                0x0001617c                __data_load_start = LOADADDR (.data)
                0x000162e6                __data_load_end = (__data_load_start + SIZEOF (.data))

.eeprom         0x00810000     0x1000
 FILL mask 0xff
                0x00810000        0x1 BYTE 0xff
                0x00811000                . = ((. + 0x1000) - 0x1)
 *fill*         0x00810001      0xfff ff

/DISCARD/
 *(.init9)
 *(.fini*)
Address of section .data set to 0x800200
LOAD Coordinator_Rcb_Atmega128rfa1_8Mhz_Gcc/Obj/blink.o
LOAD Coordinator_Rcb_Atmega128rfa1_8Mhz_Gcc/Obj/pdsMem.o
LOAD Coordinator_Rcb_Atmega128rfa1_8Mhz_Gcc/Obj/pdsWriteData.o
LOAD Coordinator_Rcb_Atmega128rfa1_8Mhz_Gcc/Obj/pdsDataServer.o
LOAD Coordinator_Rcb_Atmega128rfa1_8Mhz_Gcc/Obj/pdsInit.o
LOAD Coordinator_Rcb_Atmega128rfa1_8Mhz_Gcc/Obj/pdsTimer.o
LOAD Coordinator_Rcb_Atmega128rfa1_8Mhz_Gcc/Obj/pdsEvents.o
LOAD Coordinator_Rcb_Atmega128rfa1_8Mhz_Gcc/Obj/pdsMemAccess.o
LOAD Coordinator_Rcb_Atmega128rfa1_8Mhz_Gcc/Obj/pdsCrcService.o
LOAD Coordinator_Rcb_Atmega128rfa1_8Mhz_Gcc/Obj/usbFifoVirtualUsart.o
LOAD Coordinator_Rcb_Atmega128rfa1_8Mhz_Gcc/Obj/usbFifoFT245RL.o
LOAD Coordinator_Rcb_Atmega128rfa1_8Mhz_Gcc/Obj/leds.o
LOAD Coordinator_Rcb_Atmega128rfa1_8Mhz_Gcc/Obj/bspTaskManager.o
LOAD Coordinator_Rcb_Atmega128rfa1_8Mhz_Gcc/Obj/buttons.o
LOAD Coordinator_Rcb_Atmega128rfa1_8Mhz_Gcc/Obj/fakeBSP.o
LOAD Coordinator_Rcb_Atmega128rfa1_8Mhz_Gcc/Obj/csPersistentMem.o
LOAD Coordinator_Rcb_Atmega128rfa1_8Mhz_Gcc/Obj/csMem.o
LOAD Coordinator_Rcb_Atmega128rfa1_8Mhz_Gcc/Obj/configServer.o
START GROUP
LOAD ./../../../../BitCloud/lib/libHAL_RcbAtm128rfa1_Atmega128rfa1_8Mhz_Gcc.a
LOAD ./../../../../BitCloud/lib/libBc_Coordinator_Atmega128rfa1_Atmega128rfa1_Gcc.a
LOAD ./../../../../BitCloud/lib/WdtInitatmega128rfa1_Gcc.o
END GROUP
LOAD d:/program files/atmel/avr studio 5.1/extensions/atmel/avrgcc/3.3.1.27/avrtoolchain/bin/../lib/gcc/avr/4.5.1/avr51\libgcc.a
LOAD d:/program files/atmel/avr studio 5.1/extensions/atmel/avrgcc/3.3.1.27/avrtoolchain/bin/../lib/gcc/avr/4.5.1/../../../../avr/lib/avr51\libc.a
LOAD d:/program files/atmel/avr studio 5.1/extensions/atmel/avrgcc/3.3.1.27/avrtoolchain/bin/../lib/gcc/avr/4.5.1/avr51\libgcc.a
OUTPUT(Coordinator_Rcb_Atmega128rfa1_8Mhz_Gcc/Exe/Blink.elf elf32-avr)
LOAD linker stubs

.stab           0x00000000     0x1098
 .stab          0x00000000      0x6cc d:/program files/atmel/avr studio 5.1/extensions/atmel/avrgcc/3.3.1.27/avrtoolchain/bin/../lib/gcc/avr/4.5.1/../../../../avr/lib/avr51/crtm128rfa1.o
 .stab          0x000006cc       0x84 d:/program files/atmel/avr studio 5.1/extensions/atmel/avrgcc/3.3.1.27/avrtoolchain/bin/../lib/gcc/avr/4.5.1/../../../../avr/lib/avr51\libc.a(memcpy_P.o)
                                 0x90 (size before relaxing)
 .stab          0x00000750       0xb4 d:/program files/atmel/avr studio 5.1/extensions/atmel/avrgcc/3.3.1.27/avrtoolchain/bin/../lib/gcc/avr/4.5.1/../../../../avr/lib/avr51\libc.a(memcmp.o)
                                 0xc0 (size before relaxing)
 .stab          0x00000804       0x84 d:/program files/atmel/avr studio 5.1/extensions/atmel/avrgcc/3.3.1.27/avrtoolchain/bin/../lib/gcc/avr/4.5.1/../../../../avr/lib/avr51\libc.a(memcpy.o)
                                 0x90 (size before relaxing)
 .stab          0x00000888       0xe4 d:/program files/atmel/avr studio 5.1/extensions/atmel/avrgcc/3.3.1.27/avrtoolchain/bin/../lib/gcc/avr/4.5.1/../../../../avr/lib/avr51\libc.a(memmove.o)
                                 0xf0 (size before relaxing)
 .stab          0x0000096c       0x6c d:/program files/atmel/avr studio 5.1/extensions/atmel/avrgcc/3.3.1.27/avrtoolchain/bin/../lib/gcc/avr/4.5.1/../../../../avr/lib/avr51\libc.a(memset.o)
                                 0x78 (size before relaxing)
 .stab          0x000009d8       0x9c d:/program files/atmel/avr studio 5.1/extensions/atmel/avrgcc/3.3.1.27/avrtoolchain/bin/../lib/gcc/avr/4.5.1/../../../../avr/lib/avr51\libc.a(strcat.o)
                                 0xa8 (size before relaxing)
 .stab          0x00000a74       0x6c d:/program files/atmel/avr studio 5.1/extensions/atmel/avrgcc/3.3.1.27/avrtoolchain/bin/../lib/gcc/avr/4.5.1/../../../../avr/lib/avr51\libc.a(strcpy.o)
                                 0x78 (size before relaxing)
 .stab          0x00000ae0       0x9c d:/program files/atmel/avr studio 5.1/extensions/atmel/avrgcc/3.3.1.27/avrtoolchain/bin/../lib/gcc/avr/4.5.1/../../../../avr/lib/avr51\libc.a(strnlen_P.o)
                                 0xa8 (size before relaxing)
 .stab          0x00000b7c       0x9c d:/program files/atmel/avr studio 5.1/extensions/atmel/avrgcc/3.3.1.27/avrtoolchain/bin/../lib/gcc/avr/4.5.1/../../../../avr/lib/avr51\libc.a(strnlen.o)
                                 0xa8 (size before relaxing)
 .stab          0x00000c18      0x480 d:/program files/atmel/avr studio 5.1/extensions/atmel/avrgcc/3.3.1.27/avrtoolchain/bin/../lib/gcc/avr/4.5.1/../../../../avr/lib/avr51\libc.a(ultoa_invert.o)
                                0x48c (size before relaxing)

.stabstr        0x00000000      0x4e2
 .stabstr       0x00000000      0x4e2 d:/program files/atmel/avr studio 5.1/extensions/atmel/avrgcc/3.3.1.27/avrtoolchain/bin/../lib/gcc/avr/4.5.1/../../../../avr/lib/avr51/crtm128rfa1.o

.debug_abbrev   0x00000000     0x2435
 .debug_abbrev  0x00000000      0x34e Coordinator_Rcb_Atmega128rfa1_8Mhz_Gcc/Obj/blink.o
 .debug_abbrev  0x0000034e       0xe0 Coordinator_Rcb_Atmega128rfa1_8Mhz_Gcc/Obj/pdsMem.o
 .debug_abbrev  0x0000042e      0x222 Coordinator_Rcb_Atmega128rfa1_8Mhz_Gcc/Obj/pdsWriteData.o
 .debug_abbrev  0x00000650      0x1dd Coordinator_Rcb_Atmega128rfa1_8Mhz_Gcc/Obj/pdsDataServer.o
 .debug_abbrev  0x0000082d      0x179 Coordinator_Rcb_Atmega128rfa1_8Mhz_Gcc/Obj/pdsInit.o
 .debug_abbrev  0x000009a6      0x130 Coordinator_Rcb_Atmega128rfa1_8Mhz_Gcc/Obj/pdsTimer.o
 .debug_abbrev  0x00000ad6      0x161 Coordinator_Rcb_Atmega128rfa1_8Mhz_Gcc/Obj/pdsEvents.o
 .debug_abbrev  0x00000c37      0x1d1 Coordinator_Rcb_Atmega128rfa1_8Mhz_Gcc/Obj/pdsMemAccess.o
 .debug_abbrev  0x00000e08      0x14d Coordinator_Rcb_Atmega128rfa1_8Mhz_Gcc/Obj/pdsCrcService.o
 .debug_abbrev  0x00000f55      0x19c Coordinator_Rcb_Atmega128rfa1_8Mhz_Gcc/Obj/usbFifoVirtualUsart.o
 .debug_abbrev  0x000010f1      0x283 Coordinator_Rcb_Atmega128rfa1_8Mhz_Gcc/Obj/usbFifoFT245RL.o
 .debug_abbrev  0x00001374       0xa9 Coordinator_Rcb_Atmega128rfa1_8Mhz_Gcc/Obj/leds.o
 .debug_abbrev  0x0000141d      0x116 Coordinator_Rcb_Atmega128rfa1_8Mhz_Gcc/Obj/bspTaskManager.o
 .debug_abbrev  0x00001533      0x1f2 Coordinator_Rcb_Atmega128rfa1_8Mhz_Gcc/Obj/buttons.o
 .debug_abbrev  0x00001725      0x1e7 Coordinator_Rcb_Atmega128rfa1_8Mhz_Gcc/Obj/fakeBSP.o
 .debug_abbrev  0x0000190c      0x1e0 Coordinator_Rcb_Atmega128rfa1_8Mhz_Gcc/Obj/csPersistentMem.o
 .debug_abbrev  0x00001aec      0x1eb Coordinator_Rcb_Atmega128rfa1_8Mhz_Gcc/Obj/csMem.o
 .debug_abbrev  0x00001cd7      0x26c Coordinator_Rcb_Atmega128rfa1_8Mhz_Gcc/Obj/configServer.o
 .debug_abbrev  0x00001f43       0xf0 d:/program files/atmel/avr studio 5.1/extensions/atmel/avrgcc/3.3.1.27/avrtoolchain/bin/../lib/gcc/avr/4.5.1/avr51\libgcc.a(_ashldi3.o)
 .debug_abbrev  0x00002033       0xcd d:/program files/atmel/avr studio 5.1/extensions/atmel/avrgcc/3.3.1.27/avrtoolchain/bin/../lib/gcc/avr/4.5.1/../../../../avr/lib/avr51\libc.a(rand.o)
 .debug_abbrev  0x00002100       0xfd d:/program files/atmel/avr studio 5.1/extensions/atmel/avrgcc/3.3.1.27/avrtoolchain/bin/../lib/gcc/avr/4.5.1/../../../../avr/lib/avr51\libc.a(sprintf.o)
 .debug_abbrev  0x000021fd      0x15f d:/program files/atmel/avr studio 5.1/extensions/atmel/avrgcc/3.3.1.27/avrtoolchain/bin/../lib/gcc/avr/4.5.1/../../../../avr/lib/avr51\libc.a(vfprintf_std.o)
 .debug_abbrev  0x0000235c       0xd9 d:/program files/atmel/avr studio 5.1/extensions/atmel/avrgcc/3.3.1.27/avrtoolchain/bin/../lib/gcc/avr/4.5.1/../../../../avr/lib/avr51\libc.a(fputc.o)

.debug_info     0x00000000    0x12564
 .debug_info    0x00000000     0x19b2 Coordinator_Rcb_Atmega128rfa1_8Mhz_Gcc/Obj/blink.o
 .debug_info    0x000019b2      0x4e1 Coordinator_Rcb_Atmega128rfa1_8Mhz_Gcc/Obj/pdsMem.o
 .debug_info    0x00001e93      0x98c Coordinator_Rcb_Atmega128rfa1_8Mhz_Gcc/Obj/pdsWriteData.o
 .debug_info    0x0000281f      0xbe4 Coordinator_Rcb_Atmega128rfa1_8Mhz_Gcc/Obj/pdsDataServer.o
 .debug_info    0x00003403      0x6ee Coordinator_Rcb_Atmega128rfa1_8Mhz_Gcc/Obj/pdsInit.o
 .debug_info    0x00003af1      0x57e Coordinator_Rcb_Atmega128rfa1_8Mhz_Gcc/Obj/pdsTimer.o
 .debug_info    0x0000406f      0x77a Coordinator_Rcb_Atmega128rfa1_8Mhz_Gcc/Obj/pdsEvents.o
 .debug_info    0x000047e9      0x88d Coordinator_Rcb_Atmega128rfa1_8Mhz_Gcc/Obj/pdsMemAccess.o
 .debug_info    0x00005076      0x733 Coordinator_Rcb_Atmega128rfa1_8Mhz_Gcc/Obj/pdsCrcService.o
 .debug_info    0x000057a9      0x850 Coordinator_Rcb_Atmega128rfa1_8Mhz_Gcc/Obj/usbFifoVirtualUsart.o
 .debug_info    0x00005ff9      0xa19 Coordinator_Rcb_Atmega128rfa1_8Mhz_Gcc/Obj/usbFifoFT245RL.o
 .debug_info    0x00006a12      0x223 Coordinator_Rcb_Atmega128rfa1_8Mhz_Gcc/Obj/leds.o
 .debug_info    0x00006c35      0x237 Coordinator_Rcb_Atmega128rfa1_8Mhz_Gcc/Obj/bspTaskManager.o
 .debug_info    0x00006e6c      0x546 Coordinator_Rcb_Atmega128rfa1_8Mhz_Gcc/Obj/buttons.o
 .debug_info    0x000073b2      0x5ee Coordinator_Rcb_Atmega128rfa1_8Mhz_Gcc/Obj/fakeBSP.o
 .debug_info    0x000079a0     0x366a Coordinator_Rcb_Atmega128rfa1_8Mhz_Gcc/Obj/csPersistentMem.o
 .debug_info    0x0000b00a     0x3585 Coordinator_Rcb_Atmega128rfa1_8Mhz_Gcc/Obj/csMem.o
 .debug_info    0x0000e58f     0x36c3 Coordinator_Rcb_Atmega128rfa1_8Mhz_Gcc/Obj/configServer.o
 .debug_info    0x00011c52      0x184 d:/program files/atmel/avr studio 5.1/extensions/atmel/avrgcc/3.3.1.27/avrtoolchain/bin/../lib/gcc/avr/4.5.1/avr51\libgcc.a(_ashldi3.o)
 .debug_info    0x00011dd6      0x120 d:/program files/atmel/avr studio 5.1/extensions/atmel/avrgcc/3.3.1.27/avrtoolchain/bin/../lib/gcc/avr/4.5.1/../../../../avr/lib/avr51\libc.a(rand.o)
 .debug_info    0x00011ef6      0x1b7 d:/program files/atmel/avr studio 5.1/extensions/atmel/avrgcc/3.3.1.27/avrtoolchain/bin/../lib/gcc/avr/4.5.1/../../../../avr/lib/avr51\libc.a(sprintf.o)
 .debug_info    0x000120ad      0x350 d:/program files/atmel/avr studio 5.1/extensions/atmel/avrgcc/3.3.1.27/avrtoolchain/bin/../lib/gcc/avr/4.5.1/../../../../avr/lib/avr51\libc.a(vfprintf_std.o)
 .debug_info    0x000123fd      0x167 d:/program files/atmel/avr studio 5.1/extensions/atmel/avrgcc/3.3.1.27/avrtoolchain/bin/../lib/gcc/avr/4.5.1/../../../../avr/lib/avr51\libc.a(fputc.o)

.debug_line     0x00000000     0x6771
 .debug_line    0x00000000      0x792 Coordinator_Rcb_Atmega128rfa1_8Mhz_Gcc/Obj/blink.o
 .debug_line    0x00000792      0x283 Coordinator_Rcb_Atmega128rfa1_8Mhz_Gcc/Obj/pdsMem.o
 .debug_line    0x00000a15      0x676 Coordinator_Rcb_Atmega128rfa1_8Mhz_Gcc/Obj/pdsWriteData.o
 .debug_line    0x0000108b      0x710 Coordinator_Rcb_Atmega128rfa1_8Mhz_Gcc/Obj/pdsDataServer.o
 .debug_line    0x0000179b      0x3d8 Coordinator_Rcb_Atmega128rfa1_8Mhz_Gcc/Obj/pdsInit.o
 .debug_line    0x00001b73      0x38f Coordinator_Rcb_Atmega128rfa1_8Mhz_Gcc/Obj/pdsTimer.o
 .debug_line    0x00001f02      0x3c5 Coordinator_Rcb_Atmega128rfa1_8Mhz_Gcc/Obj/pdsEvents.o
 .debug_line    0x000022c7      0x577 Coordinator_Rcb_Atmega128rfa1_8Mhz_Gcc/Obj/pdsMemAccess.o
 .debug_line    0x0000283e      0x3e8 Coordinator_Rcb_Atmega128rfa1_8Mhz_Gcc/Obj/pdsCrcService.o
 .debug_line    0x00002c26      0x569 Coordinator_Rcb_Atmega128rfa1_8Mhz_Gcc/Obj/usbFifoVirtualUsart.o
 .debug_line    0x0000318f      0x612 Coordinator_Rcb_Atmega128rfa1_8Mhz_Gcc/Obj/usbFifoFT245RL.o
 .debug_line    0x000037a1      0x2bd Coordinator_Rcb_Atmega128rfa1_8Mhz_Gcc/Obj/leds.o
 .debug_line    0x00003a5e      0x296 Coordinator_Rcb_Atmega128rfa1_8Mhz_Gcc/Obj/bspTaskManager.o
 .debug_line    0x00003cf4      0x48a Coordinator_Rcb_Atmega128rfa1_8Mhz_Gcc/Obj/buttons.o
 .debug_line    0x0000417e      0x4c9 Coordinator_Rcb_Atmega128rfa1_8Mhz_Gcc/Obj/fakeBSP.o
 .debug_line    0x00004647      0x65a Coordinator_Rcb_Atmega128rfa1_8Mhz_Gcc/Obj/csPersistentMem.o
 .debug_line    0x00004ca1      0x670 Coordinator_Rcb_Atmega128rfa1_8Mhz_Gcc/Obj/csMem.o
 .debug_line    0x00005311      0x84f Coordinator_Rcb_Atmega128rfa1_8Mhz_Gcc/Obj/configServer.o
 .debug_line    0x00005b60      0x10c d:/program files/atmel/avr studio 5.1/extensions/atmel/avrgcc/3.3.1.27/avrtoolchain/bin/../lib/gcc/avr/4.5.1/avr51\libgcc.a(_ashldi3.o)
 .debug_line    0x00005c6c      0x15c d:/program files/atmel/avr studio 5.1/extensions/atmel/avrgcc/3.3.1.27/avrtoolchain/bin/../lib/gcc/avr/4.5.1/../../../../avr/lib/avr51\libc.a(rand.o)
 .debug_line    0x00005dc8      0x1d7 d:/program files/atmel/avr studio 5.1/extensions/atmel/avrgcc/3.3.1.27/avrtoolchain/bin/../lib/gcc/avr/4.5.1/../../../../avr/lib/avr51\libc.a(sprintf.o)
 .debug_line    0x00005f9f      0x675 d:/program files/atmel/avr studio 5.1/extensions/atmel/avrgcc/3.3.1.27/avrtoolchain/bin/../lib/gcc/avr/4.5.1/../../../../avr/lib/avr51\libc.a(vfprintf_std.o)
 .debug_line    0x00006614      0x15d d:/program files/atmel/avr studio 5.1/extensions/atmel/avrgcc/3.3.1.27/avrtoolchain/bin/../lib/gcc/avr/4.5.1/../../../../avr/lib/avr51\libc.a(fputc.o)

.debug_frame    0x00000000      0x7e0
 .debug_frame   0x00000000       0xc0 Coordinator_Rcb_Atmega128rfa1_8Mhz_Gcc/Obj/blink.o
 .debug_frame   0x000000c0       0x90 Coordinator_Rcb_Atmega128rfa1_8Mhz_Gcc/Obj/pdsWriteData.o
 .debug_frame   0x00000150       0xf0 Coordinator_Rcb_Atmega128rfa1_8Mhz_Gcc/Obj/pdsDataServer.o
 .debug_frame   0x00000240       0x20 Coordinator_Rcb_Atmega128rfa1_8Mhz_Gcc/Obj/pdsInit.o
 .debug_frame   0x00000260       0x60 Coordinator_Rcb_Atmega128rfa1_8Mhz_Gcc/Obj/pdsTimer.o
 .debug_frame   0x000002c0       0x30 Coordinator_Rcb_Atmega128rfa1_8Mhz_Gcc/Obj/pdsEvents.o
 .debug_frame   0x000002f0       0x70 Coordinator_Rcb_Atmega128rfa1_8Mhz_Gcc/Obj/pdsMemAccess.o
 .debug_frame   0x00000360       0x40 Coordinator_Rcb_Atmega128rfa1_8Mhz_Gcc/Obj/pdsCrcService.o
 .debug_frame   0x000003a0       0x60 Coordinator_Rcb_Atmega128rfa1_8Mhz_Gcc/Obj/usbFifoVirtualUsart.o
 .debug_frame   0x00000400       0x90 Coordinator_Rcb_Atmega128rfa1_8Mhz_Gcc/Obj/usbFifoFT245RL.o
 .debug_frame   0x00000490       0x60 Coordinator_Rcb_Atmega128rfa1_8Mhz_Gcc/Obj/leds.o
 .debug_frame   0x000004f0       0x20 Coordinator_Rcb_Atmega128rfa1_8Mhz_Gcc/Obj/bspTaskManager.o
 .debug_frame   0x00000510       0x60 Coordinator_Rcb_Atmega128rfa1_8Mhz_Gcc/Obj/buttons.o
 .debug_frame   0x00000570      0x110 Coordinator_Rcb_Atmega128rfa1_8Mhz_Gcc/Obj/fakeBSP.o
 .debug_frame   0x00000680       0x20 Coordinator_Rcb_Atmega128rfa1_8Mhz_Gcc/Obj/csMem.o
 .debug_frame   0x000006a0       0x70 Coordinator_Rcb_Atmega128rfa1_8Mhz_Gcc/Obj/configServer.o
 .debug_frame   0x00000710       0x20 d:/program files/atmel/avr studio 5.1/extensions/atmel/avrgcc/3.3.1.27/avrtoolchain/bin/../lib/gcc/avr/4.5.1/avr51\libgcc.a(_ashldi3.o)
 .debug_frame   0x00000730       0x50 d:/program files/atmel/avr studio 5.1/extensions/atmel/avrgcc/3.3.1.27/avrtoolchain/bin/../lib/gcc/avr/4.5.1/../../../../avr/lib/avr51\libc.a(rand.o)
 .debug_frame   0x00000780       0x20 d:/program files/atmel/avr studio 5.1/extensions/atmel/avrgcc/3.3.1.27/avrtoolchain/bin/../lib/gcc/avr/4.5.1/../../../../avr/lib/avr51\libc.a(sprintf.o)
 .debug_frame   0x000007a0       0x20 d:/program files/atmel/avr studio 5.1/extensions/atmel/avrgcc/3.3.1.27/avrtoolchain/bin/../lib/gcc/avr/4.5.1/../../../../avr/lib/avr51\libc.a(vfprintf_std.o)
 .debug_frame   0x000007c0       0x20 d:/program files/atmel/avr studio 5.1/extensions/atmel/avrgcc/3.3.1.27/avrtoolchain/bin/../lib/gcc/avr/4.5.1/../../../../avr/lib/avr51\libc.a(fputc.o)

.debug_loc      0x00000000     0x1eef
 .debug_loc     0x00000000      0x14c Coordinator_Rcb_Atmega128rfa1_8Mhz_Gcc/Obj/blink.o
 .debug_loc     0x0000014c      0x206 Coordinator_Rcb_Atmega128rfa1_8Mhz_Gcc/Obj/pdsWriteData.o
 .debug_loc     0x00000352      0x299 Coordinator_Rcb_Atmega128rfa1_8Mhz_Gcc/Obj/pdsDataServer.o
 .debug_loc     0x000005eb      0x112 Coordinator_Rcb_Atmega128rfa1_8Mhz_Gcc/Obj/pdsInit.o
 .debug_loc     0x000006fd       0x69 Coordinator_Rcb_Atmega128rfa1_8Mhz_Gcc/Obj/pdsTimer.o
 .debug_loc     0x00000766       0x76 Coordinator_Rcb_Atmega128rfa1_8Mhz_Gcc/Obj/pdsEvents.o
 .debug_loc     0x000007dc      0x36d Coordinator_Rcb_Atmega128rfa1_8Mhz_Gcc/Obj/pdsMemAccess.o
 .debug_loc     0x00000b49      0x161 Coordinator_Rcb_Atmega128rfa1_8Mhz_Gcc/Obj/pdsCrcService.o
 .debug_loc     0x00000caa      0x469 Coordinator_Rcb_Atmega128rfa1_8Mhz_Gcc/Obj/usbFifoVirtualUsart.o
 .debug_loc     0x00001113      0x21f Coordinator_Rcb_Atmega128rfa1_8Mhz_Gcc/Obj/usbFifoFT245RL.o
 .debug_loc     0x00001332       0x70 Coordinator_Rcb_Atmega128rfa1_8Mhz_Gcc/Obj/leds.o
 .debug_loc     0x000013a2       0x3c Coordinator_Rcb_Atmega128rfa1_8Mhz_Gcc/Obj/bspTaskManager.o
 .debug_loc     0x000013de       0xec Coordinator_Rcb_Atmega128rfa1_8Mhz_Gcc/Obj/buttons.o
 .debug_loc     0x000014ca       0x8d Coordinator_Rcb_Atmega128rfa1_8Mhz_Gcc/Obj/fakeBSP.o
 .debug_loc     0x00001557      0x116 Coordinator_Rcb_Atmega128rfa1_8Mhz_Gcc/Obj/configServer.o
 .debug_loc     0x0000166d       0x6d d:/program files/atmel/avr studio 5.1/extensions/atmel/avrgcc/3.3.1.27/avrtoolchain/bin/../lib/gcc/avr/4.5.1/avr51\libgcc.a(_ashldi3.o)
 .debug_loc     0x000016da      0x114 d:/program files/atmel/avr studio 5.1/extensions/atmel/avrgcc/3.3.1.27/avrtoolchain/bin/../lib/gcc/avr/4.5.1/../../../../avr/lib/avr51\libc.a(rand.o)
 .debug_loc     0x000017ee      0x6b1 d:/program files/atmel/avr studio 5.1/extensions/atmel/avrgcc/3.3.1.27/avrtoolchain/bin/../lib/gcc/avr/4.5.1/../../../../avr/lib/avr51\libc.a(vfprintf_std.o)
 .debug_loc     0x00001e9f       0x50 d:/program files/atmel/avr studio 5.1/extensions/atmel/avrgcc/3.3.1.27/avrtoolchain/bin/../lib/gcc/avr/4.5.1/../../../../avr/lib/avr51\libc.a(fputc.o)

.debug_pubnames
                0x00000000      0xc1f
 .debug_pubnames
                0x00000000       0xd7 Coordinator_Rcb_Atmega128rfa1_8Mhz_Gcc/Obj/blink.o
 .debug_pubnames
                0x000000d7       0x1d Coordinator_Rcb_Atmega128rfa1_8Mhz_Gcc/Obj/pdsMem.o
 .debug_pubnames
                0x000000f4       0xab Coordinator_Rcb_Atmega128rfa1_8Mhz_Gcc/Obj/pdsWriteData.o
 .debug_pubnames
                0x0000019f       0xfb Coordinator_Rcb_Atmega128rfa1_8Mhz_Gcc/Obj/pdsDataServer.o
 .debug_pubnames
                0x0000029a       0x1f Coordinator_Rcb_Atmega128rfa1_8Mhz_Gcc/Obj/pdsInit.o
 .debug_pubnames
                0x000002b9       0x51 Coordinator_Rcb_Atmega128rfa1_8Mhz_Gcc/Obj/pdsTimer.o
 .debug_pubnames
                0x0000030a       0x28 Coordinator_Rcb_Atmega128rfa1_8Mhz_Gcc/Obj/pdsEvents.o
 .debug_pubnames
                0x00000332       0xa9 Coordinator_Rcb_Atmega128rfa1_8Mhz_Gcc/Obj/pdsMemAccess.o
 .debug_pubnames
                0x000003db       0x52 Coordinator_Rcb_Atmega128rfa1_8Mhz_Gcc/Obj/pdsCrcService.o
 .debug_pubnames
                0x0000042d       0x9a Coordinator_Rcb_Atmega128rfa1_8Mhz_Gcc/Obj/usbFifoVirtualUsart.o
 .debug_pubnames
                0x000004c7       0x47 Coordinator_Rcb_Atmega128rfa1_8Mhz_Gcc/Obj/usbFifoFT245RL.o
 .debug_pubnames
                0x0000050e       0x64 Coordinator_Rcb_Atmega128rfa1_8Mhz_Gcc/Obj/leds.o
 .debug_pubnames
                0x00000572       0x37 Coordinator_Rcb_Atmega128rfa1_8Mhz_Gcc/Obj/bspTaskManager.o
 .debug_pubnames
                0x000005a9       0x86 Coordinator_Rcb_Atmega128rfa1_8Mhz_Gcc/Obj/buttons.o
 .debug_pubnames
                0x0000062f      0x203 Coordinator_Rcb_Atmega128rfa1_8Mhz_Gcc/Obj/fakeBSP.o
 .debug_pubnames
                0x00000832      0x209 Coordinator_Rcb_Atmega128rfa1_8Mhz_Gcc/Obj/csPersistentMem.o
 .debug_pubnames
                0x00000a3b       0xca Coordinator_Rcb_Atmega128rfa1_8Mhz_Gcc/Obj/csMem.o
 .debug_pubnames
                0x00000b05       0x71 Coordinator_Rcb_Atmega128rfa1_8Mhz_Gcc/Obj/configServer.o
 .debug_pubnames
                0x00000b76       0x20 d:/program files/atmel/avr studio 5.1/extensions/atmel/avrgcc/3.3.1.27/avrtoolchain/bin/../lib/gcc/avr/4.5.1/avr51\libgcc.a(_ashldi3.o)
 .debug_pubnames
                0x00000b96       0x30 d:/program files/atmel/avr studio 5.1/extensions/atmel/avrgcc/3.3.1.27/avrtoolchain/bin/../lib/gcc/avr/4.5.1/../../../../avr/lib/avr51\libc.a(rand.o)
 .debug_pubnames
                0x00000bc6       0x1e d:/program files/atmel/avr studio 5.1/extensions/atmel/avrgcc/3.3.1.27/avrtoolchain/bin/../lib/gcc/avr/4.5.1/../../../../avr/lib/avr51\libc.a(sprintf.o)
 .debug_pubnames
                0x00000be4       0x1f d:/program files/atmel/avr studio 5.1/extensions/atmel/avrgcc/3.3.1.27/avrtoolchain/bin/../lib/gcc/avr/4.5.1/../../../../avr/lib/avr51\libc.a(vfprintf_std.o)
 .debug_pubnames
                0x00000c03       0x1c d:/program files/atmel/avr studio 5.1/extensions/atmel/avrgcc/3.3.1.27/avrtoolchain/bin/../lib/gcc/avr/4.5.1/../../../../avr/lib/avr51\libc.a(fputc.o)

.debug_pubtypes
                0x00000000     0x43a7
 .debug_pubtypes
                0x00000000      0x409 Coordinator_Rcb_Atmega128rfa1_8Mhz_Gcc/Obj/blink.o
 .debug_pubtypes
                0x00000409      0x16b Coordinator_Rcb_Atmega128rfa1_8Mhz_Gcc/Obj/pdsMem.o
 .debug_pubtypes
                0x00000574      0x210 Coordinator_Rcb_Atmega128rfa1_8Mhz_Gcc/Obj/pdsWriteData.o
 .debug_pubtypes
                0x00000784      0x255 Coordinator_Rcb_Atmega128rfa1_8Mhz_Gcc/Obj/pdsDataServer.o
 .debug_pubtypes
                0x000009d9      0x1b5 Coordinator_Rcb_Atmega128rfa1_8Mhz_Gcc/Obj/pdsInit.o
 .debug_pubtypes
                0x00000b8e      0x16b Coordinator_Rcb_Atmega128rfa1_8Mhz_Gcc/Obj/pdsTimer.o
 .debug_pubtypes
                0x00000cf9      0x230 Coordinator_Rcb_Atmega128rfa1_8Mhz_Gcc/Obj/pdsEvents.o
 .debug_pubtypes
                0x00000f29      0x1ec Coordinator_Rcb_Atmega128rfa1_8Mhz_Gcc/Obj/pdsMemAccess.o
 .debug_pubtypes
                0x00001115      0x210 Coordinator_Rcb_Atmega128rfa1_8Mhz_Gcc/Obj/pdsCrcService.o
 .debug_pubtypes
                0x00001325       0xfc Coordinator_Rcb_Atmega128rfa1_8Mhz_Gcc/Obj/usbFifoVirtualUsart.o
 .debug_pubtypes
                0x00001421      0x14c Coordinator_Rcb_Atmega128rfa1_8Mhz_Gcc/Obj/usbFifoFT245RL.o
 .debug_pubtypes
                0x0000156d       0x2b Coordinator_Rcb_Atmega128rfa1_8Mhz_Gcc/Obj/leds.o
 .debug_pubtypes
                0x00001598       0x49 Coordinator_Rcb_Atmega128rfa1_8Mhz_Gcc/Obj/bspTaskManager.o
 .debug_pubtypes
                0x000015e1       0x89 Coordinator_Rcb_Atmega128rfa1_8Mhz_Gcc/Obj/buttons.o
 .debug_pubtypes
                0x0000166a       0x7a Coordinator_Rcb_Atmega128rfa1_8Mhz_Gcc/Obj/fakeBSP.o
 .debug_pubtypes
                0x000016e4      0xe7c Coordinator_Rcb_Atmega128rfa1_8Mhz_Gcc/Obj/csPersistentMem.o
 .debug_pubtypes
                0x00002560      0xea9 Coordinator_Rcb_Atmega128rfa1_8Mhz_Gcc/Obj/csMem.o
 .debug_pubtypes
                0x00003409      0xe66 Coordinator_Rcb_Atmega128rfa1_8Mhz_Gcc/Obj/configServer.o
 .debug_pubtypes
                0x0000426f       0x62 d:/program files/atmel/avr studio 5.1/extensions/atmel/avrgcc/3.3.1.27/avrtoolchain/bin/../lib/gcc/avr/4.5.1/avr51\libgcc.a(_ashldi3.o)
 .debug_pubtypes
                0x000042d1       0x12 d:/program files/atmel/avr studio 5.1/extensions/atmel/avrgcc/3.3.1.27/avrtoolchain/bin/../lib/gcc/avr/4.5.1/../../../../avr/lib/avr51\libc.a(rand.o)
 .debug_pubtypes
                0x000042e3       0x48 d:/program files/atmel/avr studio 5.1/extensions/atmel/avrgcc/3.3.1.27/avrtoolchain/bin/../lib/gcc/avr/4.5.1/../../../../avr/lib/avr51\libc.a(sprintf.o)
 .debug_pubtypes
                0x0000432b       0x53 d:/program files/atmel/avr studio 5.1/extensions/atmel/avrgcc/3.3.1.27/avrtoolchain/bin/../lib/gcc/avr/4.5.1/../../../../avr/lib/avr51\libc.a(vfprintf_std.o)
 .debug_pubtypes
                0x0000437e       0x29 d:/program files/atmel/avr studio 5.1/extensions/atmel/avrgcc/3.3.1.27/avrtoolchain/bin/../lib/gcc/avr/4.5.1/../../../../avr/lib/avr51\libc.a(fputc.o)

.debug_aranges  0x00000000      0x540
 .debug_aranges
                0x00000000       0x70 Coordinator_Rcb_Atmega128rfa1_8Mhz_Gcc/Obj/blink.o
 .debug_aranges
                0x00000070       0x58 Coordinator_Rcb_Atmega128rfa1_8Mhz_Gcc/Obj/pdsWriteData.o
 .debug_aranges
                0x000000c8       0x88 Coordinator_Rcb_Atmega128rfa1_8Mhz_Gcc/Obj/pdsDataServer.o
 .debug_aranges
                0x00000150       0x20 Coordinator_Rcb_Atmega128rfa1_8Mhz_Gcc/Obj/pdsInit.o
 .debug_aranges
                0x00000170       0x40 Coordinator_Rcb_Atmega128rfa1_8Mhz_Gcc/Obj/pdsTimer.o
 .debug_aranges
                0x000001b0       0x28 Coordinator_Rcb_Atmega128rfa1_8Mhz_Gcc/Obj/pdsEvents.o
 .debug_aranges
                0x000001d8       0x48 Coordinator_Rcb_Atmega128rfa1_8Mhz_Gcc/Obj/pdsMemAccess.o
 .debug_aranges
                0x00000220       0x30 Coordinator_Rcb_Atmega128rfa1_8Mhz_Gcc/Obj/pdsCrcService.o
 .debug_aranges
                0x00000250       0x40 Coordinator_Rcb_Atmega128rfa1_8Mhz_Gcc/Obj/usbFifoVirtualUsart.o
 .debug_aranges
                0x00000290       0x58 Coordinator_Rcb_Atmega128rfa1_8Mhz_Gcc/Obj/usbFifoFT245RL.o
 .debug_aranges
                0x000002e8       0x40 Coordinator_Rcb_Atmega128rfa1_8Mhz_Gcc/Obj/leds.o
 .debug_aranges
                0x00000328       0x20 Coordinator_Rcb_Atmega128rfa1_8Mhz_Gcc/Obj/bspTaskManager.o
 .debug_aranges
                0x00000348       0x40 Coordinator_Rcb_Atmega128rfa1_8Mhz_Gcc/Obj/buttons.o
 .debug_aranges
                0x00000388       0x98 Coordinator_Rcb_Atmega128rfa1_8Mhz_Gcc/Obj/fakeBSP.o
 .debug_aranges
                0x00000420       0x20 Coordinator_Rcb_Atmega128rfa1_8Mhz_Gcc/Obj/csMem.o
 .debug_aranges
                0x00000440       0x48 Coordinator_Rcb_Atmega128rfa1_8Mhz_Gcc/Obj/configServer.o
 .debug_aranges
                0x00000488       0x20 d:/program files/atmel/avr studio 5.1/extensions/atmel/avrgcc/3.3.1.27/avrtoolchain/bin/../lib/gcc/avr/4.5.1/avr51\libgcc.a(_ashldi3.o)
 .debug_aranges
                0x000004a8       0x38 d:/program files/atmel/avr studio 5.1/extensions/atmel/avrgcc/3.3.1.27/avrtoolchain/bin/../lib/gcc/avr/4.5.1/../../../../avr/lib/avr51\libc.a(rand.o)
 .debug_aranges
                0x000004e0       0x20 d:/program files/atmel/avr studio 5.1/extensions/atmel/avrgcc/3.3.1.27/avrtoolchain/bin/../lib/gcc/avr/4.5.1/../../../../avr/lib/avr51\libc.a(sprintf.o)
 .debug_aranges
                0x00000500       0x20 d:/program files/atmel/avr studio 5.1/extensions/atmel/avrgcc/3.3.1.27/avrtoolchain/bin/../lib/gcc/avr/4.5.1/../../../../avr/lib/avr51\libc.a(vfprintf_std.o)
 .debug_aranges
                0x00000520       0x20 d:/program files/atmel/avr studio 5.1/extensions/atmel/avrgcc/3.3.1.27/avrtoolchain/bin/../lib/gcc/avr/4.5.1/../../../../avr/lib/avr51\libc.a(fputc.o)

.debug_ranges   0x00000000      0x470
 .debug_ranges  0x00000000       0x60 Coordinator_Rcb_Atmega128rfa1_8Mhz_Gcc/Obj/blink.o
 .debug_ranges  0x00000060       0x78 Coordinator_Rcb_Atmega128rfa1_8Mhz_Gcc/Obj/pdsWriteData.o
 .debug_ranges  0x000000d8       0x90 Coordinator_Rcb_Atmega128rfa1_8Mhz_Gcc/Obj/pdsDataServer.o
 .debug_ranges  0x00000168       0x10 Coordinator_Rcb_Atmega128rfa1_8Mhz_Gcc/Obj/pdsInit.o
 .debug_ranges  0x00000178       0x30 Coordinator_Rcb_Atmega128rfa1_8Mhz_Gcc/Obj/pdsTimer.o
 .debug_ranges  0x000001a8       0x18 Coordinator_Rcb_Atmega128rfa1_8Mhz_Gcc/Obj/pdsEvents.o
 .debug_ranges  0x000001c0       0x68 Coordinator_Rcb_Atmega128rfa1_8Mhz_Gcc/Obj/pdsMemAccess.o
 .debug_ranges  0x00000228       0x20 Coordinator_Rcb_Atmega128rfa1_8Mhz_Gcc/Obj/pdsCrcService.o
 .debug_ranges  0x00000248       0x30 Coordinator_Rcb_Atmega128rfa1_8Mhz_Gcc/Obj/usbFifoVirtualUsart.o
 .debug_ranges  0x00000278       0x48 Coordinator_Rcb_Atmega128rfa1_8Mhz_Gcc/Obj/usbFifoFT245RL.o
 .debug_ranges  0x000002c0       0x30 Coordinator_Rcb_Atmega128rfa1_8Mhz_Gcc/Obj/leds.o
 .debug_ranges  0x000002f0       0x10 Coordinator_Rcb_Atmega128rfa1_8Mhz_Gcc/Obj/bspTaskManager.o
 .debug_ranges  0x00000300       0x30 Coordinator_Rcb_Atmega128rfa1_8Mhz_Gcc/Obj/buttons.o
 .debug_ranges  0x00000330       0x88 Coordinator_Rcb_Atmega128rfa1_8Mhz_Gcc/Obj/fakeBSP.o
 .debug_ranges  0x000003b8       0x10 Coordinator_Rcb_Atmega128rfa1_8Mhz_Gcc/Obj/csMem.o
 .debug_ranges  0x000003c8       0x38 Coordinator_Rcb_Atmega128rfa1_8Mhz_Gcc/Obj/configServer.o
 .debug_ranges  0x00000400       0x28 d:/program files/atmel/avr studio 5.1/extensions/atmel/avrgcc/3.3.1.27/avrtoolchain/bin/../lib/gcc/avr/4.5.1/../../../../avr/lib/avr51\libc.a(rand.o)
 .debug_ranges  0x00000428       0x10 d:/program files/atmel/avr studio 5.1/extensions/atmel/avrgcc/3.3.1.27/avrtoolchain/bin/../lib/gcc/avr/4.5.1/../../../../avr/lib/avr51\libc.a(sprintf.o)
 .debug_ranges  0x00000438       0x28 d:/program files/atmel/avr studio 5.1/extensions/atmel/avrgcc/3.3.1.27/avrtoolchain/bin/../lib/gcc/avr/4.5.1/../../../../avr/lib/avr51\libc.a(vfprintf_std.o)
 .debug_ranges  0x00000460       0x10 d:/program files/atmel/avr studio 5.1/extensions/atmel/avrgcc/3.3.1.27/avrtoolchain/bin/../lib/gcc/avr/4.5.1/../../../../avr/lib/avr51\libc.a(fputc.o)

.debug_str      0x00000000     0x6ffd
 .debug_str     0x00000000     0x1da3 Coordinator_Rcb_Atmega128rfa1_8Mhz_Gcc/Obj/blink.o
                               0x1e21 (size before relaxing)
 .debug_str     0x00001da3      0x6ce Coordinator_Rcb_Atmega128rfa1_8Mhz_Gcc/Obj/pdsMem.o
                                0x913 (size before relaxing)
 .debug_str     0x00002471      0x467 Coordinator_Rcb_Atmega128rfa1_8Mhz_Gcc/Obj/pdsWriteData.o
                                0xd6d (size before relaxing)
 .debug_str     0x000028d8      0x188 Coordinator_Rcb_Atmega128rfa1_8Mhz_Gcc/Obj/pdsDataServer.o
                                0xd6c (size before relaxing)
 .debug_str     0x00002a60      0x106 Coordinator_Rcb_Atmega128rfa1_8Mhz_Gcc/Obj/pdsInit.o
                                0xa3b (size before relaxing)
 .debug_str     0x00002b66       0x80 Coordinator_Rcb_Atmega128rfa1_8Mhz_Gcc/Obj/pdsTimer.o
                                0x95c (size before relaxing)
 .debug_str     0x00002be6      0x132 Coordinator_Rcb_Atmega128rfa1_8Mhz_Gcc/Obj/pdsEvents.o
                                0xc7a (size before relaxing)
 .debug_str     0x00002d18      0x13d Coordinator_Rcb_Atmega128rfa1_8Mhz_Gcc/Obj/pdsMemAccess.o
                                0xb06 (size before relaxing)
 .debug_str     0x00002e55       0x8e Coordinator_Rcb_Atmega128rfa1_8Mhz_Gcc/Obj/pdsCrcService.o
                                0xa95 (size before relaxing)
 .debug_str     0x00002ee3      0x125 Coordinator_Rcb_Atmega128rfa1_8Mhz_Gcc/Obj/usbFifoVirtualUsart.o
                                0x6c8 (size before relaxing)
 .debug_str     0x00003008      0x2cd Coordinator_Rcb_Atmega128rfa1_8Mhz_Gcc/Obj/usbFifoFT245RL.o
                                0x976 (size before relaxing)
 .debug_str     0x000032d5      0x10c Coordinator_Rcb_Atmega128rfa1_8Mhz_Gcc/Obj/leds.o
                                0x235 (size before relaxing)
 .debug_str     0x000033e1       0x8e Coordinator_Rcb_Atmega128rfa1_8Mhz_Gcc/Obj/bspTaskManager.o
                                0x2b7 (size before relaxing)
 .debug_str     0x0000346f      0x175 Coordinator_Rcb_Atmega128rfa1_8Mhz_Gcc/Obj/buttons.o
                                0x47e (size before relaxing)
 .debug_str     0x000035e4      0x245 Coordinator_Rcb_Atmega128rfa1_8Mhz_Gcc/Obj/fakeBSP.o
                                0x4cf (size before relaxing)
 .debug_str     0x00003829     0x2820 Coordinator_Rcb_Atmega128rfa1_8Mhz_Gcc/Obj/csPersistentMem.o
                               0x45c6 (size before relaxing)
 .debug_str     0x00006049      0x334 Coordinator_Rcb_Atmega128rfa1_8Mhz_Gcc/Obj/csMem.o
                               0x414a (size before relaxing)
 .debug_str     0x0000637d      0x958 Coordinator_Rcb_Atmega128rfa1_8Mhz_Gcc/Obj/configServer.o
                               0x47bd (size before relaxing)
 .debug_str     0x00006cd5      0x10c d:/program files/atmel/avr studio 5.1/extensions/atmel/avrgcc/3.3.1.27/avrtoolchain/bin/../lib/gcc/avr/4.5.1/avr51\libgcc.a(_ashldi3.o)
                                0x191 (size before relaxing)
 .debug_str     0x00006de1       0x75 d:/program files/atmel/avr studio 5.1/extensions/atmel/avrgcc/3.3.1.27/avrtoolchain/bin/../lib/gcc/avr/4.5.1/../../../../avr/lib/avr51\libc.a(rand.o)
                                 0xb3 (size before relaxing)
 .debug_str     0x00006e56       0x97 d:/program files/atmel/avr studio 5.1/extensions/atmel/avrgcc/3.3.1.27/avrtoolchain/bin/../lib/gcc/avr/4.5.1/../../../../avr/lib/avr51\libc.a(sprintf.o)
                                0x12c (size before relaxing)
 .debug_str     0x00006eed       0xaf d:/program files/atmel/avr studio 5.1/extensions/atmel/avrgcc/3.3.1.27/avrtoolchain/bin/../lib/gcc/avr/4.5.1/../../../../avr/lib/avr51\libc.a(vfprintf_std.o)
                                0x182 (size before relaxing)
 .debug_str     0x00006f9c       0x61 d:/program files/atmel/avr studio 5.1/extensions/atmel/avrgcc/3.3.1.27/avrtoolchain/bin/../lib/gcc/avr/4.5.1/../../../../avr/lib/avr51\libc.a(fputc.o)
                                0x106 (size before relaxing)
