Archive member included because of file (symbol)

./../../../../BitCloud/lib/libHAL_RcbAtm128rfa1_Atmega128rfa1_8Mhz_Gcc.a(appTimer.o)
                              Router_Rcb_Atmega128rfa1_8Mhz_Gcc/Obj/blink.o (HAL_StartAppTimer)
./../../../../BitCloud/lib/libHAL_RcbAtm128rfa1_Atmega128rfa1_8Mhz_Gcc.a(halTaskManager.o)
                              Router_Rcb_Atmega128rfa1_8Mhz_Gcc/Obj/usbFifoFT245RL.o (halTaskFlags4)
./../../../../BitCloud/lib/libHAL_RcbAtm128rfa1_Atmega128rfa1_8Mhz_Gcc.a(usart.o)
                              ./../../../../BitCloud/lib/libHAL_RcbAtm128rfa1_Atmega128rfa1_8Mhz_Gcc.a(halTaskManager.o) (halSigUsartHandler)
./../../../../BitCloud/lib/libHAL_RcbAtm128rfa1_Atmega128rfa1_8Mhz_Gcc.a(irq.o)
                              Router_Rcb_Atmega128rfa1_8Mhz_Gcc/Obj/usbFifoFT245RL.o (HAL_RegisterIrq)
./../../../../BitCloud/lib/libHAL_RcbAtm128rfa1_Atmega128rfa1_8Mhz_Gcc.a(i2cPacket.o)
                              ./../../../../BitCloud/lib/libHAL_RcbAtm128rfa1_Atmega128rfa1_8Mhz_Gcc.a(halTaskManager.o) (halSig2WireSerialHandler)
./../../../../BitCloud/lib/libHAL_RcbAtm128rfa1_Atmega128rfa1_8Mhz_Gcc.a(eeprom.o)
                              Router_Rcb_Atmega128rfa1_8Mhz_Gcc/Obj/pdsWriteData.o (HAL_ReadEeprom)
./../../../../BitCloud/lib/libHAL_RcbAtm128rfa1_Atmega128rfa1_8Mhz_Gcc.a(timer.o)
                              ./../../../../BitCloud/lib/libHAL_RcbAtm128rfa1_Atmega128rfa1_8Mhz_Gcc.a(appTimer.o) (halAddTimer)
./../../../../BitCloud/lib/libHAL_RcbAtm128rfa1_Atmega128rfa1_8Mhz_Gcc.a(adc.o)
                              ./../../../../BitCloud/lib/libHAL_RcbAtm128rfa1_Atmega128rfa1_8Mhz_Gcc.a(halTaskManager.o) (halSigAdcHandler)
./../../../../BitCloud/lib/libHAL_RcbAtm128rfa1_Atmega128rfa1_8Mhz_Gcc.a(spi.o)
                              ./../../../../BitCloud/lib/libHAL_RcbAtm128rfa1_Atmega128rfa1_8Mhz_Gcc.a(halTaskManager.o) (halSpiRxByteComplete)
./../../../../BitCloud/lib/libHAL_RcbAtm128rfa1_Atmega128rfa1_8Mhz_Gcc.a(halSleepTimerClock.o)
                              ./../../../../BitCloud/lib/libHAL_RcbAtm128rfa1_Atmega128rfa1_8Mhz_Gcc.a(appTimer.o) (halGetTimeOfSleepTimer)
./../../../../BitCloud/lib/libHAL_RcbAtm128rfa1_Atmega128rfa1_8Mhz_Gcc.a(halSecurityModule.o)
                              ./../../../../BitCloud/lib/libHAL_RcbAtm128rfa1_Atmega128rfa1_8Mhz_Gcc.a(halTaskManager.o) (halSmRequestHandler)
./../../../../BitCloud/lib/libHAL_RcbAtm128rfa1_Atmega128rfa1_8Mhz_Gcc.a(halAppClock.o)
                              ./../../../../BitCloud/lib/libHAL_RcbAtm128rfa1_Atmega128rfa1_8Mhz_Gcc.a(appTimer.o) (halGetTimeOfAppTimer)
./../../../../BitCloud/lib/libHAL_RcbAtm128rfa1_Atmega128rfa1_8Mhz_Gcc.a(halUsart.o)
                              ./../../../../BitCloud/lib/libHAL_RcbAtm128rfa1_Atmega128rfa1_8Mhz_Gcc.a(usart.o) (halSetUsartConfig)
./../../../../BitCloud/lib/libHAL_RcbAtm128rfa1_Atmega128rfa1_8Mhz_Gcc.a(halIrq.o)
                              ./../../../../BitCloud/lib/libHAL_RcbAtm128rfa1_Atmega128rfa1_8Mhz_Gcc.a(irq.o) (halSetIrqConfig)
./../../../../BitCloud/lib/libHAL_RcbAtm128rfa1_Atmega128rfa1_8Mhz_Gcc.a(halTwi.o)
                              ./../../../../BitCloud/lib/libHAL_RcbAtm128rfa1_Atmega128rfa1_8Mhz_Gcc.a(i2cPacket.o) (halInitI2c)
./../../../../BitCloud/lib/libHAL_RcbAtm128rfa1_Atmega128rfa1_8Mhz_Gcc.a(halEeprom.o)
                              ./../../../../BitCloud/lib/libHAL_RcbAtm128rfa1_Atmega128rfa1_8Mhz_Gcc.a(eeprom.o) (halEepromWrite)
./../../../../BitCloud/lib/libHAL_RcbAtm128rfa1_Atmega128rfa1_8Mhz_Gcc.a(halSleep.o)
                              ./../../../../BitCloud/lib/libHAL_RcbAtm128rfa1_Atmega128rfa1_8Mhz_Gcc.a(halSleepTimerClock.o) (halPowerOn)
./../../../../BitCloud/lib/libHAL_RcbAtm128rfa1_Atmega128rfa1_8Mhz_Gcc.a(halAdc.o)
                              ./../../../../BitCloud/lib/libHAL_RcbAtm128rfa1_Atmega128rfa1_8Mhz_Gcc.a(adc.o) (halOpenAdc)
./../../../../BitCloud/lib/libHAL_RcbAtm128rfa1_Atmega128rfa1_8Mhz_Gcc.a(halSpi.o)
                              ./../../../../BitCloud/lib/libHAL_RcbAtm128rfa1_Atmega128rfa1_8Mhz_Gcc.a(spi.o) (halSetUsartSpiConfig)
./../../../../BitCloud/lib/libHAL_RcbAtm128rfa1_Atmega128rfa1_8Mhz_Gcc.a(calibration.o)
                              ./../../../../BitCloud/lib/libHAL_RcbAtm128rfa1_Atmega128rfa1_8Mhz_Gcc.a(halSleep.o) (halStartingCalibrate)
./../../../../BitCloud/lib/libHAL_RcbAtm128rfa1_Atmega128rfa1_8Mhz_Gcc.a(halW1.o)
                              ./../../../../BitCloud/lib/libHAL_RcbAtm128rfa1_Atmega128rfa1_8Mhz_Gcc.a(halAdc.o) (__delay_us)
./../../../../BitCloud/lib/libHAL_RcbAtm128rfa1_Atmega128rfa1_8Mhz_Gcc.a(halCalibration.o)
                              ./../../../../BitCloud/lib/libHAL_RcbAtm128rfa1_Atmega128rfa1_8Mhz_Gcc.a(calibration.o) (halMeasurement)
./../../../../BitCloud/lib/libHAL_RcbAtm128rfa1_Atmega128rfa1_8Mhz_Gcc.a(sleepTimer.o)
                              ./../../../../BitCloud/lib/libHAL_RcbAtm128rfa1_Atmega128rfa1_8Mhz_Gcc.a(halTaskManager.o) (halAsyncTimerHandler)
./../../../../BitCloud/lib/libHAL_RcbAtm128rfa1_Atmega128rfa1_8Mhz_Gcc.a(sleep.o)
                              ./../../../../BitCloud/lib/libHAL_RcbAtm128rfa1_Atmega128rfa1_8Mhz_Gcc.a(halSleepTimerClock.o) (halSleepControl)
./../../../../BitCloud/lib/libHAL_RcbAtm128rfa1_Atmega128rfa1_8Mhz_Gcc.a(halClkCtrl.o)
                              ./../../../../BitCloud/lib/libHAL_RcbAtm128rfa1_Atmega128rfa1_8Mhz_Gcc.a(calibration.o) (halGetClockSource)
./../../../../BitCloud/lib/libBc_Router_Atmega128rfa1_Atmega128rfa1_Gcc.a(aps.o)
                              Router_Rcb_Atmega128rfa1_8Mhz_Gcc/Obj/blink.o (APS_DataReq)
./../../../../BitCloud/lib/libBc_Router_Atmega128rfa1_Atmega128rfa1_Gcc.a(macenvPib.o)
                              ./../../../../BitCloud/lib/libBc_Router_Atmega128rfa1_Atmega128rfa1_Gcc.a(aps.o) (MAC_GetExtAddr)
./../../../../BitCloud/lib/libBc_Router_Atmega128rfa1_Atmega128rfa1_Gcc.a(nwk.o)
                              ./../../../../BitCloud/lib/libBc_Router_Atmega128rfa1_Atmega128rfa1_Gcc.a(aps.o) (NWK_GetShortAddr)
./../../../../BitCloud/lib/libBc_Router_Atmega128rfa1_Atmega128rfa1_Gcc.a(phyRxTxIndicator.o)
                              ./../../../../BitCloud/lib/libHAL_RcbAtm128rfa1_Atmega128rfa1_8Mhz_Gcc.a(halSleep.o) (phyRxTxSwitcherOn)
./../../../../BitCloud/lib/libBc_Router_Atmega128rfa1_Atmega128rfa1_Gcc.a(phyStateMachine.o)
                              ./../../../../BitCloud/lib/libBc_Router_Atmega128rfa1_Atmega128rfa1_Gcc.a(phyRxTxIndicator.o) (__wasRequest)
./../../../../BitCloud/lib/libBc_Router_Atmega128rfa1_Atmega128rfa1_Gcc.a(queue.o)
                              ./../../../../BitCloud/lib/libHAL_RcbAtm128rfa1_Atmega128rfa1_8Mhz_Gcc.a(halSecurityModule.o) (deleteHeadQueueElem)
./../../../../BitCloud/lib/libBc_Router_Atmega128rfa1_Atmega128rfa1_Gcc.a(sysDuplicateTable.o)
                              ./../../../../BitCloud/lib/libBc_Router_Atmega128rfa1_Atmega128rfa1_Gcc.a(aps.o) (SYS_DuplicateTableReset)
./../../../../BitCloud/lib/libBc_Router_Atmega128rfa1_Atmega128rfa1_Gcc.a(sysEvents.o)
                              Router_Rcb_Atmega128rfa1_8Mhz_Gcc/Obj/pdsWriteData.o (SYS_PostEvent)
./../../../../BitCloud/lib/libBc_Router_Atmega128rfa1_Atmega128rfa1_Gcc.a(sysTimer.o)
                              ./../../../../BitCloud/lib/libBc_Router_Atmega128rfa1_Atmega128rfa1_Gcc.a(aps.o) (SYS_StartTimer)
./../../../../BitCloud/lib/libBc_Router_Atmega128rfa1_Atmega128rfa1_Gcc.a(taskManager.o)
                              Router_Rcb_Atmega128rfa1_8Mhz_Gcc/Obj/blink.o (SYS_RunTask)
./../../../../BitCloud/lib/libBc_Router_Atmega128rfa1_Atmega128rfa1_Gcc.a(zdo.o)
                              Router_Rcb_Atmega128rfa1_8Mhz_Gcc/Obj/blink.o (ZDO_GetNwkStatus)
./../../../../BitCloud/lib/libBc_Router_Atmega128rfa1_Atmega128rfa1_Gcc.a(bcSysSleep.o)
                              ./../../../../BitCloud/lib/libBc_Router_Atmega128rfa1_Atmega128rfa1_Gcc.a(zdo.o) (SYS_Sleep)
./../../../../BitCloud/lib/libBc_Router_Atmega128rfa1_Atmega128rfa1_Gcc.a(macMem.o)
                              ./../../../../BitCloud/lib/libBc_Router_Atmega128rfa1_Atmega128rfa1_Gcc.a(phyRxTxIndicator.o) (macMem)
./../../../../BitCloud/lib/libBc_Router_Atmega128rfa1_Atmega128rfa1_Gcc.a(machwdManager.o)
                              ./../../../../BitCloud/lib/libBc_Router_Atmega128rfa1_Atmega128rfa1_Gcc.a(zdo.o) (RF_RandomReq)
./../../../../BitCloud/lib/libBc_Router_Atmega128rfa1_Atmega128rfa1_Gcc.a(machwdRegAccessHandler.o)
                              ./../../../../BitCloud/lib/libBc_Router_Atmega128rfa1_Atmega128rfa1_Gcc.a(machwdManager.o) (machwdRegAccessReqHandler)
./../../../../BitCloud/lib/libBc_Router_Atmega128rfa1_Atmega128rfa1_Gcc.a(machwdResetHandler.o)
                              ./../../../../BitCloud/lib/libBc_Router_Atmega128rfa1_Atmega128rfa1_Gcc.a(machwdManager.o) (machwdReset)
./../../../../BitCloud/lib/libBc_Router_Atmega128rfa1_Atmega128rfa1_Gcc.a(machwdRndHandler.o)
                              ./../../../../BitCloud/lib/libBc_Router_Atmega128rfa1_Atmega128rfa1_Gcc.a(machwdManager.o) (machwdRndReqHandler)
./../../../../BitCloud/lib/libBc_Router_Atmega128rfa1_Atmega128rfa1_Gcc.a(machwdRxBuffer.o)
                              ./../../../../BitCloud/lib/libBc_Router_Atmega128rfa1_Atmega128rfa1_Gcc.a(machwdResetHandler.o) (machwdResetRxBuffer)
./../../../../BitCloud/lib/libBc_Router_Atmega128rfa1_Atmega128rfa1_Gcc.a(machwdRxFrameHandler.o)
                              ./../../../../BitCloud/lib/libBc_Router_Atmega128rfa1_Atmega128rfa1_Gcc.a(machwdManager.o) (machwdRxFrameTaskHandler)
./../../../../BitCloud/lib/libBc_Router_Atmega128rfa1_Atmega128rfa1_Gcc.a(machwdSetHandler.o)
                              ./../../../../BitCloud/lib/libBc_Router_Atmega128rfa1_Atmega128rfa1_Gcc.a(machwdManager.o) (machwdSetReqHandler)
./../../../../BitCloud/lib/libBc_Router_Atmega128rfa1_Atmega128rfa1_Gcc.a(machwdTrxCtrl.o)
                              ./../../../../BitCloud/lib/libBc_Router_Atmega128rfa1_Atmega128rfa1_Gcc.a(machwdSetHandler.o) (machwdSendTrxCmd)
./../../../../BitCloud/lib/libBc_Router_Atmega128rfa1_Atmega128rfa1_Gcc.a(machwdTrxHandler.o)
                              ./../../../../BitCloud/lib/libBc_Router_Atmega128rfa1_Atmega128rfa1_Gcc.a(machwdManager.o) (machwdTrxReqHandler)
./../../../../BitCloud/lib/libBc_Router_Atmega128rfa1_Atmega128rfa1_Gcc.a(machwdTxFrameHandler.o)
                              ./../../../../BitCloud/lib/libBc_Router_Atmega128rfa1_Atmega128rfa1_Gcc.a(machwdManager.o) (machwdTxFrameReqHandler)
./../../../../BitCloud/lib/libBc_Router_Atmega128rfa1_Atmega128rfa1_Gcc.a(machwiManager.o)
                              ./../../../../BitCloud/lib/libBc_Router_Atmega128rfa1_Atmega128rfa1_Gcc.a(taskManager.o) (MAC_HWI_TaskHandler)
./../../../../BitCloud/lib/libBc_Router_Atmega128rfa1_Atmega128rfa1_Gcc.a(machwiOrphanHandler.o)
                              ./../../../../BitCloud/lib/libBc_Router_Atmega128rfa1_Atmega128rfa1_Gcc.a(machwiManager.o) (machwiOrphanRespHandler)
./../../../../BitCloud/lib/libBc_Router_Atmega128rfa1_Atmega128rfa1_Gcc.a(machwiPanServer.o)
                              ./../../../../BitCloud/lib/libBc_Router_Atmega128rfa1_Atmega128rfa1_Gcc.a(machwdRxFrameHandler.o) (MACHWD_DataInd)
./../../../../BitCloud/lib/libBc_Router_Atmega128rfa1_Atmega128rfa1_Gcc.a(machwiPollHandler.o)
                              ./../../../../BitCloud/lib/libBc_Router_Atmega128rfa1_Atmega128rfa1_Gcc.a(machwiPanServer.o) (machwiPollInd)
./../../../../BitCloud/lib/libBc_Router_Atmega128rfa1_Atmega128rfa1_Gcc.a(machwiPurgeHandler.o)
                              ./../../../../BitCloud/lib/libBc_Router_Atmega128rfa1_Atmega128rfa1_Gcc.a(machwiManager.o) (machwiPurgeReqHandler)
./../../../../BitCloud/lib/libBc_Router_Atmega128rfa1_Atmega128rfa1_Gcc.a(machwiResetHandler.o)
                              ./../../../../BitCloud/lib/libBc_Router_Atmega128rfa1_Atmega128rfa1_Gcc.a(machwiManager.o) (machwiResetReqHandler)
./../../../../BitCloud/lib/libBc_Router_Atmega128rfa1_Atmega128rfa1_Gcc.a(machwiRxEnableHandler.o)
                              ./../../../../BitCloud/lib/libBc_Router_Atmega128rfa1_Atmega128rfa1_Gcc.a(machwiManager.o) (machwiRxEnableReqHandler)
./../../../../BitCloud/lib/libBc_Router_Atmega128rfa1_Atmega128rfa1_Gcc.a(machwiScanHandler.o)
                              ./../../../../BitCloud/lib/libBc_Router_Atmega128rfa1_Atmega128rfa1_Gcc.a(machwiManager.o) (machwiScanReqHandler)
./../../../../BitCloud/lib/libBc_Router_Atmega128rfa1_Atmega128rfa1_Gcc.a(machwiSetGetHandler.o)
                              ./../../../../BitCloud/lib/libBc_Router_Atmega128rfa1_Atmega128rfa1_Gcc.a(machwiManager.o) (machwiGetReqHandler)
./../../../../BitCloud/lib/libBc_Router_Atmega128rfa1_Atmega128rfa1_Gcc.a(machwiStartHandler.o)
                              ./../../../../BitCloud/lib/libBc_Router_Atmega128rfa1_Atmega128rfa1_Gcc.a(machwiManager.o) (machwiStartReqHandler)
./../../../../BitCloud/lib/libBc_Router_Atmega128rfa1_Atmega128rfa1_Gcc.a(machwiSwitchRxCtrl.o)
                              ./../../../../BitCloud/lib/libBc_Router_Atmega128rfa1_Atmega128rfa1_Gcc.a(machwiPollHandler.o) (machwiSwitchRxAccordToRxOnWhenIdle)
./../../../../BitCloud/lib/libBc_Router_Atmega128rfa1_Atmega128rfa1_Gcc.a(machwiTransactionHandler.o)
                              ./../../../../BitCloud/lib/libBc_Router_Atmega128rfa1_Atmega128rfa1_Gcc.a(machwiResetHandler.o) (machwiResetTransactionHandler)
./../../../../BitCloud/lib/libBc_Router_Atmega128rfa1_Atmega128rfa1_Gcc.a(machwiTransactionQueue.o)
                              ./../../../../BitCloud/lib/libBc_Router_Atmega128rfa1_Atmega128rfa1_Gcc.a(machwiManager.o) (machwiGetActivatedTransactionFromQueue)
./../../../../BitCloud/lib/libBc_Router_Atmega128rfa1_Atmega128rfa1_Gcc.a(phyInit.o)
                              ./../../../../BitCloud/lib/libBc_Router_Atmega128rfa1_Atmega128rfa1_Gcc.a(taskManager.o) (RF_Init)
./../../../../BitCloud/lib/libBc_Router_Atmega128rfa1_Atmega128rfa1_Gcc.a(phyRegAccess.o)
                              ./../../../../BitCloud/lib/libBc_Router_Atmega128rfa1_Atmega128rfa1_Gcc.a(machwdRegAccessHandler.o) (PHY_RegWriteReq)
./../../../../BitCloud/lib/libBc_Router_Atmega128rfa1_Atmega128rfa1_Gcc.a(phyReset.o)
                              ./../../../../BitCloud/lib/libBc_Router_Atmega128rfa1_Atmega128rfa1_Gcc.a(machwdResetHandler.o) (PHY_Reset)
./../../../../BitCloud/lib/libBc_Router_Atmega128rfa1_Atmega128rfa1_Gcc.a(phyRfIrqDispatcher.o)
                              ./../../../../BitCloud/lib/libBc_Router_Atmega128rfa1_Atmega128rfa1_Gcc.a(phyRegAccess.o) (phyRestoreRfIrqMask)
./../../../../BitCloud/lib/libBc_Router_Atmega128rfa1_Atmega128rfa1_Gcc.a(phyRnd.o)
                              ./../../../../BitCloud/lib/libBc_Router_Atmega128rfa1_Atmega128rfa1_Gcc.a(machwdRndHandler.o) (PHY_RndReq)
./../../../../BitCloud/lib/libBc_Router_Atmega128rfa1_Atmega128rfa1_Gcc.a(phyRxFrame.o)
                              ./../../../../BitCloud/lib/libBc_Router_Atmega128rfa1_Atmega128rfa1_Gcc.a(machwdRxFrameHandler.o) (PHY_DownloadFrame)
./../../../../BitCloud/lib/libBc_Router_Atmega128rfa1_Atmega128rfa1_Gcc.a(phySet.o)
                              ./../../../../BitCloud/lib/libBc_Router_Atmega128rfa1_Atmega128rfa1_Gcc.a(machwdResetHandler.o) (PHY_SetReq)
./../../../../BitCloud/lib/libBc_Router_Atmega128rfa1_Atmega128rfa1_Gcc.a(phySetTrxState.o)
                              ./../../../../BitCloud/lib/libBc_Router_Atmega128rfa1_Atmega128rfa1_Gcc.a(machwdTrxCtrl.o) (PHY_SetTrxStateReq)
./../../../../BitCloud/lib/libBc_Router_Atmega128rfa1_Atmega128rfa1_Gcc.a(phyTxFrame.o)
                              ./../../../../BitCloud/lib/libBc_Router_Atmega128rfa1_Atmega128rfa1_Gcc.a(machwdTxFrameHandler.o) (PHY_DataReq)
./../../../../BitCloud/lib/libBc_Router_Atmega128rfa1_Atmega128rfa1_Gcc.a(machwdCalibHandler.o)
                              ./../../../../BitCloud/lib/libBc_Router_Atmega128rfa1_Atmega128rfa1_Gcc.a(machwdManager.o) (machwdCalibReqHandler)
./../../../../BitCloud/lib/libBc_Router_Atmega128rfa1_Atmega128rfa1_Gcc.a(machwdEdHandler.o)
                              ./../../../../BitCloud/lib/libBc_Router_Atmega128rfa1_Atmega128rfa1_Gcc.a(machwdManager.o) (machwdEdReqHandler)
./../../../../BitCloud/lib/libBc_Router_Atmega128rfa1_Atmega128rfa1_Gcc.a(machwdFrameRoutine.o)
                              ./../../../../BitCloud/lib/libBc_Router_Atmega128rfa1_Atmega128rfa1_Gcc.a(machwdRxFrameHandler.o) (machwdParseFrame)
./../../../../BitCloud/lib/libBc_Router_Atmega128rfa1_Atmega128rfa1_Gcc.a(machwdHandlerCtrl.o)
                              ./../../../../BitCloud/lib/libBc_Router_Atmega128rfa1_Atmega128rfa1_Gcc.a(machwdManager.o) (machwdGetHandlerId)
./../../../../BitCloud/lib/libBc_Router_Atmega128rfa1_Atmega128rfa1_Gcc.a(machwiAssociateHandler.o)
                              ./../../../../BitCloud/lib/libBc_Router_Atmega128rfa1_Atmega128rfa1_Gcc.a(machwiResetHandler.o) (machwiResetAssociateHandler)
./../../../../BitCloud/lib/libBc_Router_Atmega128rfa1_Atmega128rfa1_Gcc.a(machwiBeaconHandler.o)
                              ./../../../../BitCloud/lib/libBc_Router_Atmega128rfa1_Atmega128rfa1_Gcc.a(machwiManager.o) (machwiSendBeacon)
./../../../../BitCloud/lib/libBc_Router_Atmega128rfa1_Atmega128rfa1_Gcc.a(machwiDataHandler.o)
                              ./../../../../BitCloud/lib/libBc_Router_Atmega128rfa1_Atmega128rfa1_Gcc.a(machwiOrphanHandler.o) (machwiConvertmachwdDataConfirmTypes)
./../../../../BitCloud/lib/libBc_Router_Atmega128rfa1_Atmega128rfa1_Gcc.a(machwiTransactionHash.o)
                              ./../../../../BitCloud/lib/libBc_Router_Atmega128rfa1_Atmega128rfa1_Gcc.a(machwiTransactionQueue.o) (machwiTransctionHashInsert)
./../../../../BitCloud/lib/libBc_Router_Atmega128rfa1_Atmega128rfa1_Gcc.a(phyCalib.o)
                              ./../../../../BitCloud/lib/libBc_Router_Atmega128rfa1_Atmega128rfa1_Gcc.a(machwdCalibHandler.o) (PHY_CalibReq)
./../../../../BitCloud/lib/libBc_Router_Atmega128rfa1_Atmega128rfa1_Gcc.a(phyEd.o)
                              ./../../../../BitCloud/lib/libBc_Router_Atmega128rfa1_Atmega128rfa1_Gcc.a(machwdEdHandler.o) (PHY_EdReq)
./../../../../BitCloud/lib/libBc_Router_Atmega128rfa1_Atmega128rfa1_Gcc.a(phyRtimerIrqDispatcher.o)
                              ./../../../../BitCloud/lib/libBc_Router_Atmega128rfa1_Atmega128rfa1_Gcc.a(phyRxFrame.o) (phySetRTimerSource)
./../../../../BitCloud/lib/libHAL_RcbAtm128rfa1_Atmega128rfa1_8Mhz_Gcc.a(halDelay.o)
                              ./../../../../BitCloud/lib/libBc_Router_Atmega128rfa1_Atmega128rfa1_Gcc.a(phyInit.o) (HAL_Delay)
./../../../../BitCloud/lib/libHAL_RcbAtm128rfa1_Atmega128rfa1_8Mhz_Gcc.a(halInit.o)
                              ./../../../../BitCloud/lib/libBc_Router_Atmega128rfa1_Atmega128rfa1_Gcc.a(taskManager.o) (HAL_Init)
./../../../../BitCloud/lib/libHAL_RcbAtm128rfa1_Atmega128rfa1_8Mhz_Gcc.a(halRfCtrl.o)
                              ./../../../../BitCloud/lib/libBc_Router_Atmega128rfa1_Atmega128rfa1_Gcc.a(phyInit.o) (HAL_EnableRxTxSwitcher)
./../../../../BitCloud/lib/libHAL_RcbAtm128rfa1_Atmega128rfa1_8Mhz_Gcc.a(halUid.o)
                              ./../../../../BitCloud/lib/libHAL_RcbAtm128rfa1_Atmega128rfa1_8Mhz_Gcc.a(halInit.o) (halReadUid)
./../../../../BitCloud/lib/libHAL_RcbAtm128rfa1_Atmega128rfa1_8Mhz_Gcc.a(halMacIsr.o)
                              ./../../../../BitCloud/lib/libBc_Router_Atmega128rfa1_Atmega128rfa1_Gcc.a(phyInit.o) (HAL_InitMacIsr)
d:/program files/atmel/avr studio 5.1/extensions/atmel/avrgcc/3.3.1.27/avrtoolchain/bin/../lib/gcc/avr/4.5.1/avr51\libgcc.a(_mulsi3.o)
                              ./../../../../BitCloud/lib/libHAL_RcbAtm128rfa1_Atmega128rfa1_8Mhz_Gcc.a(halSleepTimerClock.o) (__mulsi3)
d:/program files/atmel/avr studio 5.1/extensions/atmel/avrgcc/3.3.1.27/avrtoolchain/bin/../lib/gcc/avr/4.5.1/avr51\libgcc.a(_udivmodqi4.o)
                              ./../../../../BitCloud/lib/libBc_Router_Atmega128rfa1_Atmega128rfa1_Gcc.a(aps.o) (__udivmodqi4)
d:/program files/atmel/avr studio 5.1/extensions/atmel/avrgcc/3.3.1.27/avrtoolchain/bin/../lib/gcc/avr/4.5.1/avr51\libgcc.a(_udivmodhi4.o)
                              Router_Rcb_Atmega128rfa1_8Mhz_Gcc/Obj/pdsInit.o (__udivmodhi4)
d:/program files/atmel/avr studio 5.1/extensions/atmel/avrgcc/3.3.1.27/avrtoolchain/bin/../lib/gcc/avr/4.5.1/avr51\libgcc.a(_udivmodsi4.o)
                              ./../../../../BitCloud/lib/libHAL_RcbAtm128rfa1_Atmega128rfa1_8Mhz_Gcc.a(sleepTimer.o) (__udivmodsi4)
d:/program files/atmel/avr studio 5.1/extensions/atmel/avrgcc/3.3.1.27/avrtoolchain/bin/../lib/gcc/avr/4.5.1/avr51\libgcc.a(_prologue.o)
                              Router_Rcb_Atmega128rfa1_8Mhz_Gcc/Obj/blink.o (__prologue_saves__)
d:/program files/atmel/avr studio 5.1/extensions/atmel/avrgcc/3.3.1.27/avrtoolchain/bin/../lib/gcc/avr/4.5.1/avr51\libgcc.a(_epilogue.o)
                              Router_Rcb_Atmega128rfa1_8Mhz_Gcc/Obj/blink.o (__epilogue_restores__)
d:/program files/atmel/avr studio 5.1/extensions/atmel/avrgcc/3.3.1.27/avrtoolchain/bin/../lib/gcc/avr/4.5.1/avr51\libgcc.a(_exit.o)
                              d:/program files/atmel/avr studio 5.1/extensions/atmel/avrgcc/3.3.1.27/avrtoolchain/bin/../lib/gcc/avr/4.5.1/../../../../avr/lib/avr51/crtm128rfa1.o (exit)
d:/program files/atmel/avr studio 5.1/extensions/atmel/avrgcc/3.3.1.27/avrtoolchain/bin/../lib/gcc/avr/4.5.1/avr51\libgcc.a(_tablejump.o)
                              ./../../../../BitCloud/lib/libBc_Router_Atmega128rfa1_Atmega128rfa1_Gcc.a(macenvPib.o) (__tablejump2__)
d:/program files/atmel/avr studio 5.1/extensions/atmel/avrgcc/3.3.1.27/avrtoolchain/bin/../lib/gcc/avr/4.5.1/avr51\libgcc.a(_copy_data.o)
                              Router_Rcb_Atmega128rfa1_8Mhz_Gcc/Obj/blink.o (__do_copy_data)
d:/program files/atmel/avr studio 5.1/extensions/atmel/avrgcc/3.3.1.27/avrtoolchain/bin/../lib/gcc/avr/4.5.1/avr51\libgcc.a(_clear_bss.o)
                              Router_Rcb_Atmega128rfa1_8Mhz_Gcc/Obj/blink.o (__do_clear_bss)
d:/program files/atmel/avr studio 5.1/extensions/atmel/avrgcc/3.3.1.27/avrtoolchain/bin/../lib/gcc/avr/4.5.1/avr51\libgcc.a(_ashldi3.o)
                              ./../../../../BitCloud/lib/libHAL_RcbAtm128rfa1_Atmega128rfa1_8Mhz_Gcc.a(appTimer.o) (__ashldi3)
d:/program files/atmel/avr studio 5.1/extensions/atmel/avrgcc/3.3.1.27/avrtoolchain/bin/../lib/gcc/avr/4.5.1/../../../../avr/lib/avr51\libc.a(rand.o)
                              ./../../../../BitCloud/lib/libBc_Router_Atmega128rfa1_Atmega128rfa1_Gcc.a(aps.o) (rand)
d:/program files/atmel/avr studio 5.1/extensions/atmel/avrgcc/3.3.1.27/avrtoolchain/bin/../lib/gcc/avr/4.5.1/../../../../avr/lib/avr51\libc.a(memcpy_P.o)
                              Router_Rcb_Atmega128rfa1_8Mhz_Gcc/Obj/pdsInit.o (memcpy_P)
d:/program files/atmel/avr studio 5.1/extensions/atmel/avrgcc/3.3.1.27/avrtoolchain/bin/../lib/gcc/avr/4.5.1/../../../../avr/lib/avr51\libc.a(memcmp.o)
                              ./../../../../BitCloud/lib/libBc_Router_Atmega128rfa1_Atmega128rfa1_Gcc.a(aps.o) (memcmp)
d:/program files/atmel/avr studio 5.1/extensions/atmel/avrgcc/3.3.1.27/avrtoolchain/bin/../lib/gcc/avr/4.5.1/../../../../avr/lib/avr51\libc.a(memcpy.o)
                              Router_Rcb_Atmega128rfa1_8Mhz_Gcc/Obj/configServer.o (memcpy)
d:/program files/atmel/avr studio 5.1/extensions/atmel/avrgcc/3.3.1.27/avrtoolchain/bin/../lib/gcc/avr/4.5.1/../../../../avr/lib/avr51\libc.a(memmove.o)
                              ./../../../../BitCloud/lib/libBc_Router_Atmega128rfa1_Atmega128rfa1_Gcc.a(nwk.o) (memmove)
d:/program files/atmel/avr studio 5.1/extensions/atmel/avrgcc/3.3.1.27/avrtoolchain/bin/../lib/gcc/avr/4.5.1/../../../../avr/lib/avr51\libc.a(memset.o)
                              Router_Rcb_Atmega128rfa1_8Mhz_Gcc/Obj/pdsMemAccess.o (memset)
d:/program files/atmel/avr studio 5.1/extensions/atmel/avrgcc/3.3.1.27/avrtoolchain/bin/../lib/gcc/avr/4.5.1/../../../../avr/lib/avr51\libc.a(strcpy.o)
                              Router_Rcb_Atmega128rfa1_8Mhz_Gcc/Obj/blink.o (strcpy)
d:/program files/atmel/avr studio 5.1/extensions/atmel/avrgcc/3.3.1.27/avrtoolchain/bin/../lib/gcc/avr/4.5.1/avr51\libgcc.a(_divmodsi4.o)
                              d:/program files/atmel/avr studio 5.1/extensions/atmel/avrgcc/3.3.1.27/avrtoolchain/bin/../lib/gcc/avr/4.5.1/../../../../avr/lib/avr51\libc.a(rand.o) (__divmodsi4)

Allocating common symbols
Common symbol       size              file

stackBuffers        0x840             Router_Rcb_Atmega128rfa1_8Mhz_Gcc/Obj/csMem.o
readBatteryDataCallback
                    0x2               Router_Rcb_Atmega128rfa1_8Mhz_Gcc/Obj/fakeBSP.o
csAIB               0x2               Router_Rcb_Atmega128rfa1_8Mhz_Gcc/Obj/csMem.o
macMem              0x88              ./../../../../BitCloud/lib/libBc_Router_Atmega128rfa1_Atmega128rfa1_Gcc.a(macMem.o)
extHandler          0x2               ./../../../../BitCloud/lib/libHAL_RcbAtm128rfa1_Atmega128rfa1_8Mhz_Gcc.a(halTaskManager.o)
nwkMem              0x158             ./../../../../BitCloud/lib/libBc_Router_Atmega128rfa1_Atmega128rfa1_Gcc.a(nwk.o)
csZIB               0x2f              Router_Rcb_Atmega128rfa1_8Mhz_Gcc/Obj/csMem.o
csPIB               0x38              Router_Rcb_Atmega128rfa1_8Mhz_Gcc/Obj/csMem.o
halEepromParams     0x6               ./../../../../BitCloud/lib/libHAL_RcbAtm128rfa1_Atmega128rfa1_8Mhz_Gcc.a(eeprom.o)
zdoMem              0x3a7             ./../../../../BitCloud/lib/libBc_Router_Atmega128rfa1_Atmega128rfa1_Gcc.a(zdo.o)
blink               0x2               Router_Rcb_Atmega128rfa1_8Mhz_Gcc/Obj/blink.o
readTemperatureDataCallback
                    0x2               Router_Rcb_Atmega128rfa1_8Mhz_Gcc/Obj/fakeBSP.o
csSIB               0x3c              Router_Rcb_Atmega128rfa1_8Mhz_Gcc/Obj/csMem.o
__energyLevel       0x1               ./../../../../BitCloud/lib/libBc_Router_Atmega128rfa1_Atmega128rfa1_Gcc.a(machwdEdHandler.o)
rxBuffer            0x1f4             Router_Rcb_Atmega128rfa1_8Mhz_Gcc/Obj/blink.o
apsMem              0xbc              ./../../../../BitCloud/lib/libBc_Router_Atmega128rfa1_Atmega128rfa1_Gcc.a(aps.o)
rxSlaveBuffer       0xa               ./../../../../BitCloud/lib/libHAL_RcbAtm128rfa1_Atmega128rfa1_8Mhz_Gcc.a(halSpi.o)
txBuffer            0x21              ./../../../../BitCloud/lib/libBc_Router_Atmega128rfa1_Atmega128rfa1_Gcc.a(machwdFrameRoutine.o)
__rtimer            0x5               ./../../../../BitCloud/lib/libHAL_RcbAtm128rfa1_Atmega128rfa1_8Mhz_Gcc.a(halMacIsr.o)
pdsMem              0x2e              Router_Rcb_Atmega128rfa1_8Mhz_Gcc/Obj/pdsMem.o
dataBuffers         0x12              Router_Rcb_Atmega128rfa1_8Mhz_Gcc/Obj/blink.o
__necessaryPhyTrxState
                    0x1               ./../../../../BitCloud/lib/libBc_Router_Atmega128rfa1_Atmega128rfa1_Gcc.a(phySetTrxState.o)
__sourceHandler     0x1               ./../../../../BitCloud/lib/libBc_Router_Atmega128rfa1_Atmega128rfa1_Gcc.a(machwdTrxCtrl.o)
readLightDataCallback
                    0x2               Router_Rcb_Atmega128rfa1_8Mhz_Gcc/Obj/fakeBSP.o
halEepromDone       0x2               ./../../../../BitCloud/lib/libHAL_RcbAtm128rfa1_Atmega128rfa1_8Mhz_Gcc.a(eeprom.o)
csNIB               0x86              Router_Rcb_Atmega128rfa1_8Mhz_Gcc/Obj/csMem.o

Discarded input sections

 .data          0x00000000        0x0 d:/program files/atmel/avr studio 5.1/extensions/atmel/avrgcc/3.3.1.27/avrtoolchain/bin/../lib/gcc/avr/4.5.1/../../../../avr/lib/avr51/crtm128rfa1.o
 .bss           0x00000000        0x0 d:/program files/atmel/avr studio 5.1/extensions/atmel/avrgcc/3.3.1.27/avrtoolchain/bin/../lib/gcc/avr/4.5.1/../../../../avr/lib/avr51/crtm128rfa1.o
 .init9         0x00000000        0x8 d:/program files/atmel/avr studio 5.1/extensions/atmel/avrgcc/3.3.1.27/avrtoolchain/bin/../lib/gcc/avr/4.5.1/../../../../avr/lib/avr51/crtm128rfa1.o
 .text          0x00000000        0x0 Router_Rcb_Atmega128rfa1_8Mhz_Gcc/Obj/blink.o
 .text          0x00000000        0x0 Router_Rcb_Atmega128rfa1_8Mhz_Gcc/Obj/pdsMem.o
 .data          0x00000000        0x0 Router_Rcb_Atmega128rfa1_8Mhz_Gcc/Obj/pdsMem.o
 .bss           0x00000000        0x0 Router_Rcb_Atmega128rfa1_8Mhz_Gcc/Obj/pdsMem.o
 .text          0x00000000        0x0 Router_Rcb_Atmega128rfa1_8Mhz_Gcc/Obj/pdsWriteData.o
 .data          0x00000000        0x0 Router_Rcb_Atmega128rfa1_8Mhz_Gcc/Obj/pdsWriteData.o
 .text.pdsUpdate
                0x00000000       0x98 Router_Rcb_Atmega128rfa1_8Mhz_Gcc/Obj/pdsWriteData.o
 .text.pdsCorruptFiles
                0x00000000       0xa4 Router_Rcb_Atmega128rfa1_8Mhz_Gcc/Obj/pdsWriteData.o
 .text          0x00000000        0x0 Router_Rcb_Atmega128rfa1_8Mhz_Gcc/Obj/pdsDataServer.o
 .data          0x00000000        0x0 Router_Rcb_Atmega128rfa1_8Mhz_Gcc/Obj/pdsDataServer.o
 .bss           0x00000000        0x0 Router_Rcb_Atmega128rfa1_8Mhz_Gcc/Obj/pdsDataServer.o
 .text.PDS_Restore
                0x00000000       0x80 Router_Rcb_Atmega128rfa1_8Mhz_Gcc/Obj/pdsDataServer.o
 .text.PDS_BlockingStore
                0x00000000       0x1a Router_Rcb_Atmega128rfa1_8Mhz_Gcc/Obj/pdsDataServer.o
 .text.PDS_IsAbleToRestore
                0x00000000       0x44 Router_Rcb_Atmega128rfa1_8Mhz_Gcc/Obj/pdsDataServer.o
 .text.PDS_IsAbleToStore
                0x00000000       0x2e Router_Rcb_Atmega128rfa1_8Mhz_Gcc/Obj/pdsDataServer.o
 .text.PDS_ClearRestoredMemory
                0x00000000       0x3a Router_Rcb_Atmega128rfa1_8Mhz_Gcc/Obj/pdsDataServer.o
 .text.PDS_ResetStorage
                0x00000000       0x54 Router_Rcb_Atmega128rfa1_8Mhz_Gcc/Obj/pdsDataServer.o
 .text.PDS_FlushData
                0x00000000        0x6 Router_Rcb_Atmega128rfa1_8Mhz_Gcc/Obj/pdsDataServer.o
 .text.PDS_ReadUserData
                0x00000000       0x6e Router_Rcb_Atmega128rfa1_8Mhz_Gcc/Obj/pdsDataServer.o
 .text.PDS_WriteUserData
                0x00000000       0x6e Router_Rcb_Atmega128rfa1_8Mhz_Gcc/Obj/pdsDataServer.o
 .text          0x00000000        0x0 Router_Rcb_Atmega128rfa1_8Mhz_Gcc/Obj/pdsInit.o
 .data          0x00000000        0x0 Router_Rcb_Atmega128rfa1_8Mhz_Gcc/Obj/pdsInit.o
 .bss           0x00000000        0x0 Router_Rcb_Atmega128rfa1_8Mhz_Gcc/Obj/pdsInit.o
 .text          0x00000000        0x0 Router_Rcb_Atmega128rfa1_8Mhz_Gcc/Obj/pdsTimer.o
 .data          0x00000000        0x0 Router_Rcb_Atmega128rfa1_8Mhz_Gcc/Obj/pdsTimer.o
 .bss           0x00000000        0x0 Router_Rcb_Atmega128rfa1_8Mhz_Gcc/Obj/pdsTimer.o
 .text.PDS_StoreByTimer
                0x00000000       0x5c Router_Rcb_Atmega128rfa1_8Mhz_Gcc/Obj/pdsTimer.o
 .text.PDS_Stop
                0x00000000       0x1e Router_Rcb_Atmega128rfa1_8Mhz_Gcc/Obj/pdsTimer.o
 .text.PDS_Run  0x00000000       0x1e Router_Rcb_Atmega128rfa1_8Mhz_Gcc/Obj/pdsTimer.o
 .text          0x00000000        0x0 Router_Rcb_Atmega128rfa1_8Mhz_Gcc/Obj/pdsEvents.o
 .data          0x00000000        0x8 Router_Rcb_Atmega128rfa1_8Mhz_Gcc/Obj/pdsEvents.o
 .bss           0x00000000        0x0 Router_Rcb_Atmega128rfa1_8Mhz_Gcc/Obj/pdsEvents.o
 .text.pdsObserver
                0x00000000       0x58 Router_Rcb_Atmega128rfa1_8Mhz_Gcc/Obj/pdsEvents.o
 .text.PDS_StoreByEvents
                0x00000000       0xfc Router_Rcb_Atmega128rfa1_8Mhz_Gcc/Obj/pdsEvents.o
 .progmem.data  0x00000000       0x39 Router_Rcb_Atmega128rfa1_8Mhz_Gcc/Obj/pdsEvents.o
 .text          0x00000000        0x0 Router_Rcb_Atmega128rfa1_8Mhz_Gcc/Obj/pdsMemAccess.o
 .data          0x00000000        0x0 Router_Rcb_Atmega128rfa1_8Mhz_Gcc/Obj/pdsMemAccess.o
 .bss           0x00000000        0x0 Router_Rcb_Atmega128rfa1_8Mhz_Gcc/Obj/pdsMemAccess.o
 .text.pdsGetDirectoryDescrRec
                0x00000000       0x66 Router_Rcb_Atmega128rfa1_8Mhz_Gcc/Obj/pdsMemAccess.o
 .text          0x00000000        0x0 Router_Rcb_Atmega128rfa1_8Mhz_Gcc/Obj/pdsCrcService.o
 .data          0x00000000        0x0 Router_Rcb_Atmega128rfa1_8Mhz_Gcc/Obj/pdsCrcService.o
 .bss           0x00000000        0x0 Router_Rcb_Atmega128rfa1_8Mhz_Gcc/Obj/pdsCrcService.o
 .text          0x00000000        0x0 Router_Rcb_Atmega128rfa1_8Mhz_Gcc/Obj/usbFifoVirtualUsart.o
 .data          0x00000000        0x0 Router_Rcb_Atmega128rfa1_8Mhz_Gcc/Obj/usbFifoVirtualUsart.o
 .bss           0x00000000        0x2 Router_Rcb_Atmega128rfa1_8Mhz_Gcc/Obj/usbFifoVirtualUsart.o
 .text.USBFIFO_OpenUsart
                0x00000000       0x5c Router_Rcb_Atmega128rfa1_8Mhz_Gcc/Obj/usbFifoVirtualUsart.o
 .text.USBFIFO_CloseUsart
                0x00000000       0x34 Router_Rcb_Atmega128rfa1_8Mhz_Gcc/Obj/usbFifoVirtualUsart.o
 .text.USBFIFO_WriteUsart
                0x00000000       0xbe Router_Rcb_Atmega128rfa1_8Mhz_Gcc/Obj/usbFifoVirtualUsart.o
 .text.USBFIFO_ReadUsart
                0x00000000       0x9e Router_Rcb_Atmega128rfa1_8Mhz_Gcc/Obj/usbFifoVirtualUsart.o
 .text.USBFIFO_IsTxEmpty
                0x00000000       0x3a Router_Rcb_Atmega128rfa1_8Mhz_Gcc/Obj/usbFifoVirtualUsart.o
 .text          0x00000000        0x0 Router_Rcb_Atmega128rfa1_8Mhz_Gcc/Obj/usbFifoFT245RL.o
 .data          0x00000000        0x0 Router_Rcb_Atmega128rfa1_8Mhz_Gcc/Obj/usbFifoFT245RL.o
 .bss           0x00000000        0x1 Router_Rcb_Atmega128rfa1_8Mhz_Gcc/Obj/usbFifoFT245RL.o
 .text.usbfifoTxComplete
                0x00000000       0x26 Router_Rcb_Atmega128rfa1_8Mhz_Gcc/Obj/usbFifoFT245RL.o
 .text.usbfifoRxComplete
                0x00000000       0x30 Router_Rcb_Atmega128rfa1_8Mhz_Gcc/Obj/usbFifoFT245RL.o
 .text.usbfifoPostTask
                0x00000000       0x3c Router_Rcb_Atmega128rfa1_8Mhz_Gcc/Obj/usbFifoFT245RL.o
 .text.usbfifoTxBufferCleaner
                0x00000000       0x5e Router_Rcb_Atmega128rfa1_8Mhz_Gcc/Obj/usbFifoFT245RL.o
 .text.usbfifoRxBufferFiller
                0x00000000       0x64 Router_Rcb_Atmega128rfa1_8Mhz_Gcc/Obj/usbFifoFT245RL.o
 .text.usbfifoInit
                0x00000000       0x2c Router_Rcb_Atmega128rfa1_8Mhz_Gcc/Obj/usbFifoFT245RL.o
 .text.usbfifoUnInit
                0x00000000       0x2a Router_Rcb_Atmega128rfa1_8Mhz_Gcc/Obj/usbFifoFT245RL.o
 .text.usbfifoHandler
                0x00000000       0x66 Router_Rcb_Atmega128rfa1_8Mhz_Gcc/Obj/usbFifoFT245RL.o
 .progmem.data  0x00000000        0x4 Router_Rcb_Atmega128rfa1_8Mhz_Gcc/Obj/usbFifoFT245RL.o
 .text          0x00000000        0x0 Router_Rcb_Atmega128rfa1_8Mhz_Gcc/Obj/leds.o
 .data          0x00000000        0x0 Router_Rcb_Atmega128rfa1_8Mhz_Gcc/Obj/leds.o
 .bss           0x00000000        0x0 Router_Rcb_Atmega128rfa1_8Mhz_Gcc/Obj/leds.o
 .text.BSP_CloseLeds
                0x00000000        0xc Router_Rcb_Atmega128rfa1_8Mhz_Gcc/Obj/leds.o
 .text          0x00000000        0x0 Router_Rcb_Atmega128rfa1_8Mhz_Gcc/Obj/bspTaskManager.o
 .data          0x00000000        0x0 Router_Rcb_Atmega128rfa1_8Mhz_Gcc/Obj/bspTaskManager.o
 .text          0x00000000        0x0 Router_Rcb_Atmega128rfa1_8Mhz_Gcc/Obj/buttons.o
 .data          0x00000000        0x0 Router_Rcb_Atmega128rfa1_8Mhz_Gcc/Obj/buttons.o
 .text.bspKey0InterruptHandler
                0x00000000       0x3e Router_Rcb_Atmega128rfa1_8Mhz_Gcc/Obj/buttons.o
 .text.BSP_OpenButtons
                0x00000000       0x54 Router_Rcb_Atmega128rfa1_8Mhz_Gcc/Obj/buttons.o
 .text.BSP_CloseButtons
                0x00000000       0x2a Router_Rcb_Atmega128rfa1_8Mhz_Gcc/Obj/buttons.o
 .text.BSP_ReadButtonsState
                0x00000000        0x8 Router_Rcb_Atmega128rfa1_8Mhz_Gcc/Obj/buttons.o
 .text          0x00000000        0x0 Router_Rcb_Atmega128rfa1_8Mhz_Gcc/Obj/fakeBSP.o
 .data          0x00000000        0x0 Router_Rcb_Atmega128rfa1_8Mhz_Gcc/Obj/fakeBSP.o
 .bss           0x00000000        0x0 Router_Rcb_Atmega128rfa1_8Mhz_Gcc/Obj/fakeBSP.o
 .text.BSP_OpenTemperatureSensor
                0x00000000        0x4 Router_Rcb_Atmega128rfa1_8Mhz_Gcc/Obj/fakeBSP.o
 .text.BSP_CloseTemperatureSensor
                0x00000000        0x4 Router_Rcb_Atmega128rfa1_8Mhz_Gcc/Obj/fakeBSP.o
 .text.BSP_ReadTemperatureData
                0x00000000       0x2e Router_Rcb_Atmega128rfa1_8Mhz_Gcc/Obj/fakeBSP.o
 .text.BSP_OpenLightSensor
                0x00000000        0x4 Router_Rcb_Atmega128rfa1_8Mhz_Gcc/Obj/fakeBSP.o
 .text.BSP_CloseLightSensor
                0x00000000        0x4 Router_Rcb_Atmega128rfa1_8Mhz_Gcc/Obj/fakeBSP.o
 .text.BSP_ReadLightData
                0x00000000       0x2e Router_Rcb_Atmega128rfa1_8Mhz_Gcc/Obj/fakeBSP.o
 .text.BSP_OpenBatterySensor
                0x00000000        0x4 Router_Rcb_Atmega128rfa1_8Mhz_Gcc/Obj/fakeBSP.o
 .text.BSP_CloseBatterySensor
                0x00000000        0x4 Router_Rcb_Atmega128rfa1_8Mhz_Gcc/Obj/fakeBSP.o
 .text.BSP_ReadBatteryData
                0x00000000       0x2e Router_Rcb_Atmega128rfa1_8Mhz_Gcc/Obj/fakeBSP.o
 .text.BSP_ReadSliders
                0x00000000        0x4 Router_Rcb_Atmega128rfa1_8Mhz_Gcc/Obj/fakeBSP.o
 .text.BSP_OpenJoystick
                0x00000000        0x4 Router_Rcb_Atmega128rfa1_8Mhz_Gcc/Obj/fakeBSP.o
 .text.BSP_CloseJoystick
                0x00000000        0x4 Router_Rcb_Atmega128rfa1_8Mhz_Gcc/Obj/fakeBSP.o
 .text.BSP_ReadJoystickState
                0x00000000        0x4 Router_Rcb_Atmega128rfa1_8Mhz_Gcc/Obj/fakeBSP.o
 .text          0x00000000        0x0 Router_Rcb_Atmega128rfa1_8Mhz_Gcc/Obj/csPersistentMem.o
 .data          0x00000000        0x0 Router_Rcb_Atmega128rfa1_8Mhz_Gcc/Obj/csPersistentMem.o
 .bss           0x00000000        0x0 Router_Rcb_Atmega128rfa1_8Mhz_Gcc/Obj/csPersistentMem.o
 .text          0x00000000        0x0 Router_Rcb_Atmega128rfa1_8Mhz_Gcc/Obj/csMem.o
 .data          0x00000000        0x0 Router_Rcb_Atmega128rfa1_8Mhz_Gcc/Obj/csMem.o
 .bss           0x00000000        0x0 Router_Rcb_Atmega128rfa1_8Mhz_Gcc/Obj/csMem.o
 .text          0x00000000        0x0 Router_Rcb_Atmega128rfa1_8Mhz_Gcc/Obj/configServer.o
 .data          0x00000000        0x0 Router_Rcb_Atmega128rfa1_8Mhz_Gcc/Obj/configServer.o
 .bss           0x00000000        0x0 Router_Rcb_Atmega128rfa1_8Mhz_Gcc/Obj/configServer.o
 .text.CS_PdsDefaultValue
                0x00000000       0xee Router_Rcb_Atmega128rfa1_8Mhz_Gcc/Obj/configServer.o
 .text          0x00000000        0x0 ./../../../../BitCloud/lib/libHAL_RcbAtm128rfa1_Atmega128rfa1_8Mhz_Gcc.a(appTimer.o)
 .data          0x00000000        0x0 ./../../../../BitCloud/lib/libHAL_RcbAtm128rfa1_Atmega128rfa1_8Mhz_Gcc.a(appTimer.o)
 .text          0x00000000        0x0 ./../../../../BitCloud/lib/libHAL_RcbAtm128rfa1_Atmega128rfa1_8Mhz_Gcc.a(halTaskManager.o)
 .data          0x00000000        0x0 ./../../../../BitCloud/lib/libHAL_RcbAtm128rfa1_Atmega128rfa1_8Mhz_Gcc.a(halTaskManager.o)
 .text          0x00000000        0x0 ./../../../../BitCloud/lib/libHAL_RcbAtm128rfa1_Atmega128rfa1_8Mhz_Gcc.a(usart.o)
 .text.HAL_EnableDtrWakeUp
                0x00000000       0x10 ./../../../../BitCloud/lib/libHAL_RcbAtm128rfa1_Atmega128rfa1_8Mhz_Gcc.a(usart.o)
 .text.HAL_DisableDtrWakeUp
                0x00000000        0x6 ./../../../../BitCloud/lib/libHAL_RcbAtm128rfa1_Atmega128rfa1_8Mhz_Gcc.a(usart.o)
 .text.HAL_IsTxEmpty
                0x00000000       0x6c ./../../../../BitCloud/lib/libHAL_RcbAtm128rfa1_Atmega128rfa1_8Mhz_Gcc.a(usart.o)
 .text.HAL_ReadUsart
                0x00000000       0xc6 ./../../../../BitCloud/lib/libHAL_RcbAtm128rfa1_Atmega128rfa1_8Mhz_Gcc.a(usart.o)
 .text.HAL_CloseUsart
                0x00000000       0x7e ./../../../../BitCloud/lib/libHAL_RcbAtm128rfa1_Atmega128rfa1_8Mhz_Gcc.a(usart.o)
 .text          0x00000000        0x0 ./../../../../BitCloud/lib/libHAL_RcbAtm128rfa1_Atmega128rfa1_8Mhz_Gcc.a(irq.o)
 .data          0x00000000        0x0 ./../../../../BitCloud/lib/libHAL_RcbAtm128rfa1_Atmega128rfa1_8Mhz_Gcc.a(irq.o)
 .bss           0x00000000        0x0 ./../../../../BitCloud/lib/libHAL_RcbAtm128rfa1_Atmega128rfa1_8Mhz_Gcc.a(irq.o)
 .text.HAL_RegisterIrq
                0x00000000       0x5a ./../../../../BitCloud/lib/libHAL_RcbAtm128rfa1_Atmega128rfa1_8Mhz_Gcc.a(irq.o)
 .text.HAL_DisableIrq
                0x00000000       0x3e ./../../../../BitCloud/lib/libHAL_RcbAtm128rfa1_Atmega128rfa1_8Mhz_Gcc.a(irq.o)
 .text.HAL_UnregisterIrq
                0x00000000       0x50 ./../../../../BitCloud/lib/libHAL_RcbAtm128rfa1_Atmega128rfa1_8Mhz_Gcc.a(irq.o)
 .text          0x00000000        0x0 ./../../../../BitCloud/lib/libHAL_RcbAtm128rfa1_Atmega128rfa1_8Mhz_Gcc.a(i2cPacket.o)
 .data          0x00000000        0x0 ./../../../../BitCloud/lib/libHAL_RcbAtm128rfa1_Atmega128rfa1_8Mhz_Gcc.a(i2cPacket.o)
 .text.HAL_OpenI2cPacket
                0x00000000       0x40 ./../../../../BitCloud/lib/libHAL_RcbAtm128rfa1_Atmega128rfa1_8Mhz_Gcc.a(i2cPacket.o)
 .text.HAL_CloseI2cPacket
                0x00000000       0x32 ./../../../../BitCloud/lib/libHAL_RcbAtm128rfa1_Atmega128rfa1_8Mhz_Gcc.a(i2cPacket.o)
 .text.HAL_WriteI2cPacket
                0x00000000       0x52 ./../../../../BitCloud/lib/libHAL_RcbAtm128rfa1_Atmega128rfa1_8Mhz_Gcc.a(i2cPacket.o)
 .text.HAL_ReadI2cPacket
                0x00000000       0x52 ./../../../../BitCloud/lib/libHAL_RcbAtm128rfa1_Atmega128rfa1_8Mhz_Gcc.a(i2cPacket.o)
 .text          0x00000000        0x0 ./../../../../BitCloud/lib/libHAL_RcbAtm128rfa1_Atmega128rfa1_8Mhz_Gcc.a(eeprom.o)
 .data          0x00000000        0x0 ./../../../../BitCloud/lib/libHAL_RcbAtm128rfa1_Atmega128rfa1_8Mhz_Gcc.a(eeprom.o)
 .text          0x00000000        0x0 ./../../../../BitCloud/lib/libHAL_RcbAtm128rfa1_Atmega128rfa1_8Mhz_Gcc.a(timer.o)
 .data          0x00000000        0x0 ./../../../../BitCloud/lib/libHAL_RcbAtm128rfa1_Atmega128rfa1_8Mhz_Gcc.a(timer.o)
 .bss           0x00000000        0x0 ./../../../../BitCloud/lib/libHAL_RcbAtm128rfa1_Atmega128rfa1_8Mhz_Gcc.a(timer.o)
 .text          0x00000000        0x0 ./../../../../BitCloud/lib/libHAL_RcbAtm128rfa1_Atmega128rfa1_8Mhz_Gcc.a(adc.o)
 .data          0x00000000        0x0 ./../../../../BitCloud/lib/libHAL_RcbAtm128rfa1_Atmega128rfa1_8Mhz_Gcc.a(adc.o)
 .text.HAL_OpenAdc
                0x00000000       0x54 ./../../../../BitCloud/lib/libHAL_RcbAtm128rfa1_Atmega128rfa1_8Mhz_Gcc.a(adc.o)
 .text.HAL_ReadAdc
                0x00000000       0x2e ./../../../../BitCloud/lib/libHAL_RcbAtm128rfa1_Atmega128rfa1_8Mhz_Gcc.a(adc.o)
 .text.HAL_CloseAdc
                0x00000000       0x28 ./../../../../BitCloud/lib/libHAL_RcbAtm128rfa1_Atmega128rfa1_8Mhz_Gcc.a(adc.o)
 .text          0x00000000        0x0 ./../../../../BitCloud/lib/libHAL_RcbAtm128rfa1_Atmega128rfa1_8Mhz_Gcc.a(spi.o)
 .data          0x00000000        0x0 ./../../../../BitCloud/lib/libHAL_RcbAtm128rfa1_Atmega128rfa1_8Mhz_Gcc.a(spi.o)
 .bss           0x00000000        0x0 ./../../../../BitCloud/lib/libHAL_RcbAtm128rfa1_Atmega128rfa1_8Mhz_Gcc.a(spi.o)
 .text.isClosedPd
                0x00000000        0xc ./../../../../BitCloud/lib/libHAL_RcbAtm128rfa1_Atmega128rfa1_8Mhz_Gcc.a(spi.o)
 .text.isOpenedPd
                0x00000000        0xc ./../../../../BitCloud/lib/libHAL_RcbAtm128rfa1_Atmega128rfa1_8Mhz_Gcc.a(spi.o)
 .text.halCheckSpiDescriptor
                0x00000000       0x2a ./../../../../BitCloud/lib/libHAL_RcbAtm128rfa1_Atmega128rfa1_8Mhz_Gcc.a(spi.o)
 .text.halCheckUsartDescriptor
                0x00000000       0x5a ./../../../../BitCloud/lib/libHAL_RcbAtm128rfa1_Atmega128rfa1_8Mhz_Gcc.a(spi.o)
 .text.HAL_OpenSpi
                0x00000000       0x8c ./../../../../BitCloud/lib/libHAL_RcbAtm128rfa1_Atmega128rfa1_8Mhz_Gcc.a(spi.o)
 .text.HAL_CloseSpi
                0x00000000       0x64 ./../../../../BitCloud/lib/libHAL_RcbAtm128rfa1_Atmega128rfa1_8Mhz_Gcc.a(spi.o)
 .text.HAL_WriteSpi
                0x00000000      0x120 ./../../../../BitCloud/lib/libHAL_RcbAtm128rfa1_Atmega128rfa1_8Mhz_Gcc.a(spi.o)
 .text.HAL_ReadSpi
                0x00000000      0x146 ./../../../../BitCloud/lib/libHAL_RcbAtm128rfa1_Atmega128rfa1_8Mhz_Gcc.a(spi.o)
 .text          0x00000000        0x0 ./../../../../BitCloud/lib/libHAL_RcbAtm128rfa1_Atmega128rfa1_8Mhz_Gcc.a(halSleepTimerClock.o)
 .data          0x00000000        0x0 ./../../../../BitCloud/lib/libHAL_RcbAtm128rfa1_Atmega128rfa1_8Mhz_Gcc.a(halSleepTimerClock.o)
 .text          0x00000000        0x0 ./../../../../BitCloud/lib/libHAL_RcbAtm128rfa1_Atmega128rfa1_8Mhz_Gcc.a(halSecurityModule.o)
 .data          0x00000000        0x0 ./../../../../BitCloud/lib/libHAL_RcbAtm128rfa1_Atmega128rfa1_8Mhz_Gcc.a(halSecurityModule.o)
 .text.HAL_SmEncryptReq
                0x00000000       0x2e ./../../../../BitCloud/lib/libHAL_RcbAtm128rfa1_Atmega128rfa1_8Mhz_Gcc.a(halSecurityModule.o)
 .text          0x00000000        0x0 ./../../../../BitCloud/lib/libHAL_RcbAtm128rfa1_Atmega128rfa1_8Mhz_Gcc.a(halAppClock.o)
 .data          0x00000000        0x0 ./../../../../BitCloud/lib/libHAL_RcbAtm128rfa1_Atmega128rfa1_8Mhz_Gcc.a(halAppClock.o)
 .text.halGetSystemTimeUs
                0x00000000       0x58 ./../../../../BitCloud/lib/libHAL_RcbAtm128rfa1_Atmega128rfa1_8Mhz_Gcc.a(halAppClock.o)
 .text          0x00000000        0x0 ./../../../../BitCloud/lib/libHAL_RcbAtm128rfa1_Atmega128rfa1_8Mhz_Gcc.a(halUsart.o)
 .data          0x00000000        0x0 ./../../../../BitCloud/lib/libHAL_RcbAtm128rfa1_Atmega128rfa1_8Mhz_Gcc.a(halUsart.o)
 .bss           0x00000000        0x0 ./../../../../BitCloud/lib/libHAL_RcbAtm128rfa1_Atmega128rfa1_8Mhz_Gcc.a(halUsart.o)
 .text          0x00000000        0x0 ./../../../../BitCloud/lib/libHAL_RcbAtm128rfa1_Atmega128rfa1_8Mhz_Gcc.a(halIrq.o)
 .data          0x00000000        0x0 ./../../../../BitCloud/lib/libHAL_RcbAtm128rfa1_Atmega128rfa1_8Mhz_Gcc.a(halIrq.o)
 .text.halSetIrqConfig
                0x00000000       0xd0 ./../../../../BitCloud/lib/libHAL_RcbAtm128rfa1_Atmega128rfa1_8Mhz_Gcc.a(halIrq.o)
 .text.halClrIrqConfig
                0x00000000       0x7e ./../../../../BitCloud/lib/libHAL_RcbAtm128rfa1_Atmega128rfa1_8Mhz_Gcc.a(halIrq.o)
 .text          0x00000000        0x0 ./../../../../BitCloud/lib/libHAL_RcbAtm128rfa1_Atmega128rfa1_8Mhz_Gcc.a(halTwi.o)
 .data          0x00000000        0x0 ./../../../../BitCloud/lib/libHAL_RcbAtm128rfa1_Atmega128rfa1_8Mhz_Gcc.a(halTwi.o)
 .bss           0x00000000        0x0 ./../../../../BitCloud/lib/libHAL_RcbAtm128rfa1_Atmega128rfa1_8Mhz_Gcc.a(halTwi.o)
 .text.halInitI2c
                0x00000000        0xe ./../../../../BitCloud/lib/libHAL_RcbAtm128rfa1_Atmega128rfa1_8Mhz_Gcc.a(halTwi.o)
 .text          0x00000000        0x0 ./../../../../BitCloud/lib/libHAL_RcbAtm128rfa1_Atmega128rfa1_8Mhz_Gcc.a(halEeprom.o)
 .data          0x00000000        0x0 ./../../../../BitCloud/lib/libHAL_RcbAtm128rfa1_Atmega128rfa1_8Mhz_Gcc.a(halEeprom.o)
 .bss           0x00000000        0x0 ./../../../../BitCloud/lib/libHAL_RcbAtm128rfa1_Atmega128rfa1_8Mhz_Gcc.a(halEeprom.o)
 .text          0x00000000        0x0 ./../../../../BitCloud/lib/libHAL_RcbAtm128rfa1_Atmega128rfa1_8Mhz_Gcc.a(halSleep.o)
 .data          0x00000000        0x0 ./../../../../BitCloud/lib/libHAL_RcbAtm128rfa1_Atmega128rfa1_8Mhz_Gcc.a(halSleep.o)
 .text.HAL_IdleMode
                0x00000000        0xa ./../../../../BitCloud/lib/libHAL_RcbAtm128rfa1_Atmega128rfa1_8Mhz_Gcc.a(halSleep.o)
 .text          0x00000000        0x0 ./../../../../BitCloud/lib/libHAL_RcbAtm128rfa1_Atmega128rfa1_8Mhz_Gcc.a(halAdc.o)
 .data          0x00000000        0x0 ./../../../../BitCloud/lib/libHAL_RcbAtm128rfa1_Atmega128rfa1_8Mhz_Gcc.a(halAdc.o)
 .bss           0x00000000        0x0 ./../../../../BitCloud/lib/libHAL_RcbAtm128rfa1_Atmega128rfa1_8Mhz_Gcc.a(halAdc.o)
 .text.halOpenAdc
                0x00000000       0x56 ./../../../../BitCloud/lib/libHAL_RcbAtm128rfa1_Atmega128rfa1_8Mhz_Gcc.a(halAdc.o)
 .text.halStartAdc
                0x00000000       0xa6 ./../../../../BitCloud/lib/libHAL_RcbAtm128rfa1_Atmega128rfa1_8Mhz_Gcc.a(halAdc.o)
 .text.halCloseAdc
                0x00000000        0xe ./../../../../BitCloud/lib/libHAL_RcbAtm128rfa1_Atmega128rfa1_8Mhz_Gcc.a(halAdc.o)
 .progmem.data  0x00000000        0x5 ./../../../../BitCloud/lib/libHAL_RcbAtm128rfa1_Atmega128rfa1_8Mhz_Gcc.a(halAdc.o)
 .text          0x00000000        0x0 ./../../../../BitCloud/lib/libHAL_RcbAtm128rfa1_Atmega128rfa1_8Mhz_Gcc.a(halSpi.o)
 .data          0x00000000        0x0 ./../../../../BitCloud/lib/libHAL_RcbAtm128rfa1_Atmega128rfa1_8Mhz_Gcc.a(halSpi.o)
 .text.halSetUsartSpiConfig
                0x00000000       0x98 ./../../../../BitCloud/lib/libHAL_RcbAtm128rfa1_Atmega128rfa1_8Mhz_Gcc.a(halSpi.o)
 .text.halClearUsartSpi
                0x00000000       0x16 ./../../../../BitCloud/lib/libHAL_RcbAtm128rfa1_Atmega128rfa1_8Mhz_Gcc.a(halSpi.o)
 .text.halSetSlaveSpiConfig
                0x00000000       0x58 ./../../../../BitCloud/lib/libHAL_RcbAtm128rfa1_Atmega128rfa1_8Mhz_Gcc.a(halSpi.o)
 .text.halSyncUsartSpiWriteData
                0x00000000       0x3c ./../../../../BitCloud/lib/libHAL_RcbAtm128rfa1_Atmega128rfa1_8Mhz_Gcc.a(halSpi.o)
 .text.halSyncUsartSpiReadData
                0x00000000       0x3c ./../../../../BitCloud/lib/libHAL_RcbAtm128rfa1_Atmega128rfa1_8Mhz_Gcc.a(halSpi.o)
 .text          0x00000000        0x0 ./../../../../BitCloud/lib/libHAL_RcbAtm128rfa1_Atmega128rfa1_8Mhz_Gcc.a(calibration.o)
 .data          0x00000000        0x0 ./../../../../BitCloud/lib/libHAL_RcbAtm128rfa1_Atmega128rfa1_8Mhz_Gcc.a(calibration.o)
 .bss           0x00000000        0x0 ./../../../../BitCloud/lib/libHAL_RcbAtm128rfa1_Atmega128rfa1_8Mhz_Gcc.a(calibration.o)
 .data          0x00000000        0x0 ./../../../../BitCloud/lib/libHAL_RcbAtm128rfa1_Atmega128rfa1_8Mhz_Gcc.a(halW1.o)
 .bss           0x00000000        0x0 ./../../../../BitCloud/lib/libHAL_RcbAtm128rfa1_Atmega128rfa1_8Mhz_Gcc.a(halW1.o)
 .data          0x00000000        0x0 ./../../../../BitCloud/lib/libHAL_RcbAtm128rfa1_Atmega128rfa1_8Mhz_Gcc.a(halCalibration.o)
 .bss           0x00000000        0x0 ./../../../../BitCloud/lib/libHAL_RcbAtm128rfa1_Atmega128rfa1_8Mhz_Gcc.a(halCalibration.o)
 .text          0x00000000        0x0 ./../../../../BitCloud/lib/libHAL_RcbAtm128rfa1_Atmega128rfa1_8Mhz_Gcc.a(sleepTimer.o)
 .data          0x00000000        0x0 ./../../../../BitCloud/lib/libHAL_RcbAtm128rfa1_Atmega128rfa1_8Mhz_Gcc.a(sleepTimer.o)
 .bss           0x00000000        0x0 ./../../../../BitCloud/lib/libHAL_RcbAtm128rfa1_Atmega128rfa1_8Mhz_Gcc.a(sleepTimer.o)
 .text.HAL_StopSleepTimer
                0x00000000       0x24 ./../../../../BitCloud/lib/libHAL_RcbAtm128rfa1_Atmega128rfa1_8Mhz_Gcc.a(sleepTimer.o)
 .text          0x00000000        0x0 ./../../../../BitCloud/lib/libHAL_RcbAtm128rfa1_Atmega128rfa1_8Mhz_Gcc.a(sleep.o)
 .data          0x00000000        0x0 ./../../../../BitCloud/lib/libHAL_RcbAtm128rfa1_Atmega128rfa1_8Mhz_Gcc.a(sleep.o)
 .text          0x00000000        0x0 ./../../../../BitCloud/lib/libHAL_RcbAtm128rfa1_Atmega128rfa1_8Mhz_Gcc.a(halClkCtrl.o)
 .data          0x00000000        0x0 ./../../../../BitCloud/lib/libHAL_RcbAtm128rfa1_Atmega128rfa1_8Mhz_Gcc.a(halClkCtrl.o)
 .text.HAL_ReadFreq
                0x00000000        0xa ./../../../../BitCloud/lib/libHAL_RcbAtm128rfa1_Atmega128rfa1_8Mhz_Gcc.a(halClkCtrl.o)
 .text          0x00000000        0x0 ./../../../../BitCloud/lib/libBc_Router_Atmega128rfa1_Atmega128rfa1_Gcc.a(aps.o)
 .data          0x00000000        0x0 ./../../../../BitCloud/lib/libBc_Router_Atmega128rfa1_Atmega128rfa1_Gcc.a(aps.o)
 .text.APS_DeactivateBindRecords
                0x00000000       0x5a ./../../../../BitCloud/lib/libBc_Router_Atmega128rfa1_Atmega128rfa1_Gcc.a(aps.o)
 .text.APS_ActivateBindRecords
                0x00000000       0x5a ./../../../../BitCloud/lib/libBc_Router_Atmega128rfa1_Atmega128rfa1_Gcc.a(aps.o)
 .text.APS_NextBindingEntry
                0x00000000       0x46 ./../../../../BitCloud/lib/libBc_Router_Atmega128rfa1_Atmega128rfa1_Gcc.a(aps.o)
 .text.APS_UnregisterEndpointReq
                0x00000000       0x2c ./../../../../BitCloud/lib/libBc_Router_Atmega128rfa1_Atmega128rfa1_Gcc.a(aps.o)
 .text.apsSetNoIndicationFlag
                0x00000000       0x42 ./../../../../BitCloud/lib/libBc_Router_Atmega128rfa1_Atmega128rfa1_Gcc.a(aps.o)
 .text.APS_StopEndpointIndication
                0x00000000        0x8 ./../../../../BitCloud/lib/libBc_Router_Atmega128rfa1_Atmega128rfa1_Gcc.a(aps.o)
 .text.APS_ResumeEndpointIndication
                0x00000000        0x8 ./../../../../BitCloud/lib/libBc_Router_Atmega128rfa1_Atmega128rfa1_Gcc.a(aps.o)
 .text.APS_AddGroupReq
                0x00000000       0x22 ./../../../../BitCloud/lib/libBc_Router_Atmega128rfa1_Atmega128rfa1_Gcc.a(aps.o)
 .text.APS_RemoveGroupReq
                0x00000000       0x22 ./../../../../BitCloud/lib/libBc_Router_Atmega128rfa1_Atmega128rfa1_Gcc.a(aps.o)
 .text.APS_RemoveAllGroupsReq
                0x00000000       0x1e ./../../../../BitCloud/lib/libBc_Router_Atmega128rfa1_Atmega128rfa1_Gcc.a(aps.o)
 .text.APS_IsStarted
                0x00000000       0x16 ./../../../../BitCloud/lib/libBc_Router_Atmega128rfa1_Atmega128rfa1_Gcc.a(aps.o)
 .text          0x00000000        0x0 ./../../../../BitCloud/lib/libBc_Router_Atmega128rfa1_Atmega128rfa1_Gcc.a(macenvPib.o)
 .data          0x00000000        0x0 ./../../../../BitCloud/lib/libBc_Router_Atmega128rfa1_Atmega128rfa1_Gcc.a(macenvPib.o)
 .bss           0x00000000        0x0 ./../../../../BitCloud/lib/libBc_Router_Atmega128rfa1_Atmega128rfa1_Gcc.a(macenvPib.o)
 .text          0x00000000        0x0 ./../../../../BitCloud/lib/libBc_Router_Atmega128rfa1_Atmega128rfa1_Gcc.a(nwk.o)
 .bss           0x00000000       0x12 ./../../../../BitCloud/lib/libBc_Router_Atmega128rfa1_Atmega128rfa1_Gcc.a(nwk.o)
 .text.nwkAddressMacSetConf
                0x00000000       0x5a ./../../../../BitCloud/lib/libBc_Router_Atmega128rfa1_Atmega128rfa1_Gcc.a(nwk.o)
 .text.NWK_SetShortAddr
                0x00000000       0x52 ./../../../../BitCloud/lib/libBc_Router_Atmega128rfa1_Atmega128rfa1_Gcc.a(nwk.o)
 .text.NWK_AddGroup
                0x00000000       0x36 ./../../../../BitCloud/lib/libBc_Router_Atmega128rfa1_Atmega128rfa1_Gcc.a(nwk.o)
 .text.NWK_RemoveGroup
                0x00000000       0x58 ./../../../../BitCloud/lib/libBc_Router_Atmega128rfa1_Atmega128rfa1_Gcc.a(nwk.o)
 .text.NWK_RemoveAllGroups
                0x00000000       0x42 ./../../../../BitCloud/lib/libBc_Router_Atmega128rfa1_Atmega128rfa1_Gcc.a(nwk.o)
 .text.NWK_GroupCapacity
                0x00000000       0x24 ./../../../../BitCloud/lib/libBc_Router_Atmega128rfa1_Atmega128rfa1_Gcc.a(nwk.o)
 .text.NWK_NextGroup
                0x00000000       0x32 ./../../../../BitCloud/lib/libBc_Router_Atmega128rfa1_Atmega128rfa1_Gcc.a(nwk.o)
 .text.NWK_GetUpdateId
                0x00000000        0x6 ./../../../../BitCloud/lib/libBc_Router_Atmega128rfa1_Atmega128rfa1_Gcc.a(nwk.o)
 .text.NWK_SetSymLink
                0x00000000        0x6 ./../../../../BitCloud/lib/libBc_Router_Atmega128rfa1_Atmega128rfa1_Gcc.a(nwk.o)
 .text.NWK_GetProtocolVersion
                0x00000000        0x6 ./../../../../BitCloud/lib/libBc_Router_Atmega128rfa1_Atmega128rfa1_Gcc.a(nwk.o)
 .text.NWK_FindAnyRouteAtFirstTime
                0x00000000        0x6 ./../../../../BitCloud/lib/libBc_Router_Atmega128rfa1_Atmega128rfa1_Gcc.a(nwk.o)
 .text.NWK_NextEDChild
                0x00000000       0x46 ./../../../../BitCloud/lib/libBc_Router_Atmega128rfa1_Atmega128rfa1_Gcc.a(nwk.o)
 .text.NWK_GetNeighborsRssi
                0x00000000       0x3e ./../../../../BitCloud/lib/libBc_Router_Atmega128rfa1_Atmega128rfa1_Gcc.a(nwk.o)
 .text.NWK_SetRejoinPermit
                0x00000000        0xa ./../../../../BitCloud/lib/libBc_Router_Atmega128rfa1_Atmega128rfa1_Gcc.a(nwk.o)
 .text.NWK_GetNextHop
                0x00000000       0x4c ./../../../../BitCloud/lib/libBc_Router_Atmega128rfa1_Atmega128rfa1_Gcc.a(nwk.o)
 .text.NWK_SetFailRouteOrder
                0x00000000       0x10 ./../../../../BitCloud/lib/libBc_Router_Atmega128rfa1_Atmega128rfa1_Gcc.a(nwk.o)
 .text          0x00000000        0x0 ./../../../../BitCloud/lib/libBc_Router_Atmega128rfa1_Atmega128rfa1_Gcc.a(phyRxTxIndicator.o)
 .data          0x00000000        0x0 ./../../../../BitCloud/lib/libBc_Router_Atmega128rfa1_Atmega128rfa1_Gcc.a(phyRxTxIndicator.o)
 .bss           0x00000000        0x0 ./../../../../BitCloud/lib/libBc_Router_Atmega128rfa1_Atmega128rfa1_Gcc.a(phyRxTxIndicator.o)
 .text          0x00000000        0x0 ./../../../../BitCloud/lib/libBc_Router_Atmega128rfa1_Atmega128rfa1_Gcc.a(phyStateMachine.o)
 .data          0x00000000        0x0 ./../../../../BitCloud/lib/libBc_Router_Atmega128rfa1_Atmega128rfa1_Gcc.a(phyStateMachine.o)
 .text          0x00000000        0x0 ./../../../../BitCloud/lib/libBc_Router_Atmega128rfa1_Atmega128rfa1_Gcc.a(queue.o)
 .data          0x00000000        0x0 ./../../../../BitCloud/lib/libBc_Router_Atmega128rfa1_Atmega128rfa1_Gcc.a(queue.o)
 .bss           0x00000000        0x0 ./../../../../BitCloud/lib/libBc_Router_Atmega128rfa1_Atmega128rfa1_Gcc.a(queue.o)
 .text          0x00000000        0x0 ./../../../../BitCloud/lib/libBc_Router_Atmega128rfa1_Atmega128rfa1_Gcc.a(sysDuplicateTable.o)
 .data          0x00000000        0x0 ./../../../../BitCloud/lib/libBc_Router_Atmega128rfa1_Atmega128rfa1_Gcc.a(sysDuplicateTable.o)
 .bss           0x00000000        0x0 ./../../../../BitCloud/lib/libBc_Router_Atmega128rfa1_Atmega128rfa1_Gcc.a(sysDuplicateTable.o)
 .text          0x00000000        0x0 ./../../../../BitCloud/lib/libBc_Router_Atmega128rfa1_Atmega128rfa1_Gcc.a(sysEvents.o)
 .data          0x00000000        0x0 ./../../../../BitCloud/lib/libBc_Router_Atmega128rfa1_Atmega128rfa1_Gcc.a(sysEvents.o)
 .text.SYS_UnsubscribeFromEvent
                0x00000000       0x7c ./../../../../BitCloud/lib/libBc_Router_Atmega128rfa1_Atmega128rfa1_Gcc.a(sysEvents.o)
 .text          0x00000000        0x0 ./../../../../BitCloud/lib/libBc_Router_Atmega128rfa1_Atmega128rfa1_Gcc.a(sysTimer.o)
 .data          0x00000000        0x0 ./../../../../BitCloud/lib/libBc_Router_Atmega128rfa1_Atmega128rfa1_Gcc.a(sysTimer.o)
 .bss           0x00000000        0x0 ./../../../../BitCloud/lib/libBc_Router_Atmega128rfa1_Atmega128rfa1_Gcc.a(sysTimer.o)
 .text          0x00000000        0x0 ./../../../../BitCloud/lib/libBc_Router_Atmega128rfa1_Atmega128rfa1_Gcc.a(taskManager.o)
 .text          0x00000000        0x0 ./../../../../BitCloud/lib/libBc_Router_Atmega128rfa1_Atmega128rfa1_Gcc.a(zdo.o)
 .bss           0x00000000        0x0 ./../../../../BitCloud/lib/libBc_Router_Atmega128rfa1_Atmega128rfa1_Gcc.a(zdo.o)
 .text.setTxPowerConf
                0x00000000       0x30 ./../../../../BitCloud/lib/libBc_Router_Atmega128rfa1_Atmega128rfa1_Gcc.a(zdo.o)
 .text.zdoResetNetworkConf
                0x00000000       0x3c ./../../../../BitCloud/lib/libBc_Router_Atmega128rfa1_Atmega128rfa1_Gcc.a(zdo.o)
 .text.ZDO_NotifyGeneral
                0x00000000        0x6 ./../../../../BitCloud/lib/libBc_Router_Atmega128rfa1_Atmega128rfa1_Gcc.a(zdo.o)
 .text.ZDO_GetLqiRssi
                0x00000000       0x36 ./../../../../BitCloud/lib/libBc_Router_Atmega128rfa1_Atmega128rfa1_Gcc.a(zdo.o)
 .text.ZDO_GetParentAddr
                0x00000000       0x62 ./../../../../BitCloud/lib/libBc_Router_Atmega128rfa1_Atmega128rfa1_Gcc.a(zdo.o)
 .text.ZDO_GetChildrenAddr
                0x00000000       0xd0 ./../../../../BitCloud/lib/libBc_Router_Atmega128rfa1_Atmega128rfa1_Gcc.a(zdo.o)
 .text.ZDO_SetTxPowerReq
                0x00000000       0x4c ./../../../../BitCloud/lib/libBc_Router_Atmega128rfa1_Atmega128rfa1_Gcc.a(zdo.o)
 .text.ZDO_GetNeibAmount
                0x00000000       0x66 ./../../../../BitCloud/lib/libBc_Router_Atmega128rfa1_Atmega128rfa1_Gcc.a(zdo.o)
 .text.ZDO_GetNeibTable
                0x00000000      0x176 ./../../../../BitCloud/lib/libBc_Router_Atmega128rfa1_Atmega128rfa1_Gcc.a(zdo.o)
 .text.ZDO_SleepReq
                0x00000000       0x3a ./../../../../BitCloud/lib/libBc_Router_Atmega128rfa1_Atmega128rfa1_Gcc.a(zdo.o)
 .text.ZDO_SoftwareResetReq
                0x00000000       0x18 ./../../../../BitCloud/lib/libBc_Router_Atmega128rfa1_Atmega128rfa1_Gcc.a(zdo.o)
 .text.ZDO_ResetNetworkReq
                0x00000000       0x2a ./../../../../BitCloud/lib/libBc_Router_Atmega128rfa1_Atmega128rfa1_Gcc.a(zdo.o)
 .text          0x00000000        0x0 ./../../../../BitCloud/lib/libBc_Router_Atmega128rfa1_Atmega128rfa1_Gcc.a(bcSysSleep.o)
 .data          0x00000000        0x0 ./../../../../BitCloud/lib/libBc_Router_Atmega128rfa1_Atmega128rfa1_Gcc.a(bcSysSleep.o)
 .bss           0x00000000        0x0 ./../../../../BitCloud/lib/libBc_Router_Atmega128rfa1_Atmega128rfa1_Gcc.a(bcSysSleep.o)
 .text          0x00000000        0x0 ./../../../../BitCloud/lib/libBc_Router_Atmega128rfa1_Atmega128rfa1_Gcc.a(macMem.o)
 .data          0x00000000        0x0 ./../../../../BitCloud/lib/libBc_Router_Atmega128rfa1_Atmega128rfa1_Gcc.a(macMem.o)
 .bss           0x00000000        0x0 ./../../../../BitCloud/lib/libBc_Router_Atmega128rfa1_Atmega128rfa1_Gcc.a(macMem.o)
 .text          0x00000000        0x0 ./../../../../BitCloud/lib/libBc_Router_Atmega128rfa1_Atmega128rfa1_Gcc.a(machwdManager.o)
 .data          0x00000000        0x0 ./../../../../BitCloud/lib/libBc_Router_Atmega128rfa1_Atmega128rfa1_Gcc.a(machwdManager.o)
 .text.RF_RandomSeqReq
                0x00000000        0xc ./../../../../BitCloud/lib/libBc_Router_Atmega128rfa1_Atmega128rfa1_Gcc.a(machwdManager.o)
 .text.RF_CalibrationReq
                0x00000000        0xc ./../../../../BitCloud/lib/libBc_Router_Atmega128rfa1_Atmega128rfa1_Gcc.a(machwdManager.o)
 .text.RF_RegWriteReq
                0x00000000        0xc ./../../../../BitCloud/lib/libBc_Router_Atmega128rfa1_Atmega128rfa1_Gcc.a(machwdManager.o)
 .text.RF_RegReadReq
                0x00000000        0xc ./../../../../BitCloud/lib/libBc_Router_Atmega128rfa1_Atmega128rfa1_Gcc.a(machwdManager.o)
 .text          0x00000000        0x0 ./../../../../BitCloud/lib/libBc_Router_Atmega128rfa1_Atmega128rfa1_Gcc.a(machwdRegAccessHandler.o)
 .data          0x00000000        0x0 ./../../../../BitCloud/lib/libBc_Router_Atmega128rfa1_Atmega128rfa1_Gcc.a(machwdRegAccessHandler.o)
 .text.machwdResetRegAccessHandler
                0x00000000        0x6 ./../../../../BitCloud/lib/libBc_Router_Atmega128rfa1_Atmega128rfa1_Gcc.a(machwdRegAccessHandler.o)
 .text          0x00000000        0x0 ./../../../../BitCloud/lib/libBc_Router_Atmega128rfa1_Atmega128rfa1_Gcc.a(machwdResetHandler.o)
 .data          0x00000000        0x0 ./../../../../BitCloud/lib/libBc_Router_Atmega128rfa1_Atmega128rfa1_Gcc.a(machwdResetHandler.o)
 .bss           0x00000000        0x0 ./../../../../BitCloud/lib/libBc_Router_Atmega128rfa1_Atmega128rfa1_Gcc.a(machwdResetHandler.o)
 .text          0x00000000        0x0 ./../../../../BitCloud/lib/libBc_Router_Atmega128rfa1_Atmega128rfa1_Gcc.a(machwdRndHandler.o)
 .data          0x00000000        0x0 ./../../../../BitCloud/lib/libBc_Router_Atmega128rfa1_Atmega128rfa1_Gcc.a(machwdRndHandler.o)
 .text          0x00000000        0x0 ./../../../../BitCloud/lib/libBc_Router_Atmega128rfa1_Atmega128rfa1_Gcc.a(machwdRxBuffer.o)
 .data          0x00000000        0x0 ./../../../../BitCloud/lib/libBc_Router_Atmega128rfa1_Atmega128rfa1_Gcc.a(machwdRxBuffer.o)
 .bss           0x00000000        0x0 ./../../../../BitCloud/lib/libBc_Router_Atmega128rfa1_Atmega128rfa1_Gcc.a(machwdRxBuffer.o)
 .text          0x00000000        0x0 ./../../../../BitCloud/lib/libBc_Router_Atmega128rfa1_Atmega128rfa1_Gcc.a(machwdRxFrameHandler.o)
 .data          0x00000000        0x0 ./../../../../BitCloud/lib/libBc_Router_Atmega128rfa1_Atmega128rfa1_Gcc.a(machwdRxFrameHandler.o)
 .bss           0x00000000        0x0 ./../../../../BitCloud/lib/libBc_Router_Atmega128rfa1_Atmega128rfa1_Gcc.a(machwdRxFrameHandler.o)
 .text          0x00000000        0x0 ./../../../../BitCloud/lib/libBc_Router_Atmega128rfa1_Atmega128rfa1_Gcc.a(machwdSetHandler.o)
 .data          0x00000000        0x0 ./../../../../BitCloud/lib/libBc_Router_Atmega128rfa1_Atmega128rfa1_Gcc.a(machwdSetHandler.o)
 .text.machwdIsBeaconRxMode
                0x00000000        0x6 ./../../../../BitCloud/lib/libBc_Router_Atmega128rfa1_Atmega128rfa1_Gcc.a(machwdSetHandler.o)
 .text          0x00000000        0x0 ./../../../../BitCloud/lib/libBc_Router_Atmega128rfa1_Atmega128rfa1_Gcc.a(machwdTrxCtrl.o)
 .bss           0x00000000        0x0 ./../../../../BitCloud/lib/libBc_Router_Atmega128rfa1_Atmega128rfa1_Gcc.a(machwdTrxCtrl.o)
 .text          0x00000000        0x0 ./../../../../BitCloud/lib/libBc_Router_Atmega128rfa1_Atmega128rfa1_Gcc.a(machwdTrxHandler.o)
 .data          0x00000000        0x0 ./../../../../BitCloud/lib/libBc_Router_Atmega128rfa1_Atmega128rfa1_Gcc.a(machwdTrxHandler.o)
 .text          0x00000000        0x0 ./../../../../BitCloud/lib/libBc_Router_Atmega128rfa1_Atmega128rfa1_Gcc.a(machwdTxFrameHandler.o)
 .data          0x00000000        0x0 ./../../../../BitCloud/lib/libBc_Router_Atmega128rfa1_Atmega128rfa1_Gcc.a(machwdTxFrameHandler.o)
 .text          0x00000000        0x0 ./../../../../BitCloud/lib/libBc_Router_Atmega128rfa1_Atmega128rfa1_Gcc.a(machwiManager.o)
 .data          0x00000000        0x0 ./../../../../BitCloud/lib/libBc_Router_Atmega128rfa1_Atmega128rfa1_Gcc.a(machwiManager.o)
 .bss           0x00000000        0x0 ./../../../../BitCloud/lib/libBc_Router_Atmega128rfa1_Atmega128rfa1_Gcc.a(machwiManager.o)
 .text.MAC_OrphanResp
                0x00000000        0xc ./../../../../BitCloud/lib/libBc_Router_Atmega128rfa1_Atmega128rfa1_Gcc.a(machwiManager.o)
 .text.MAC_PurgeReq
                0x00000000        0xc ./../../../../BitCloud/lib/libBc_Router_Atmega128rfa1_Atmega128rfa1_Gcc.a(machwiManager.o)
 .text          0x00000000        0x0 ./../../../../BitCloud/lib/libBc_Router_Atmega128rfa1_Atmega128rfa1_Gcc.a(machwiOrphanHandler.o)
 .data          0x00000000        0x0 ./../../../../BitCloud/lib/libBc_Router_Atmega128rfa1_Atmega128rfa1_Gcc.a(machwiOrphanHandler.o)
 .bss           0x00000000        0x0 ./../../../../BitCloud/lib/libBc_Router_Atmega128rfa1_Atmega128rfa1_Gcc.a(machwiOrphanHandler.o)
 .text          0x00000000        0x0 ./../../../../BitCloud/lib/libBc_Router_Atmega128rfa1_Atmega128rfa1_Gcc.a(machwiPanServer.o)
 .data          0x00000000        0x0 ./../../../../BitCloud/lib/libBc_Router_Atmega128rfa1_Atmega128rfa1_Gcc.a(machwiPanServer.o)
 .bss           0x00000000        0x0 ./../../../../BitCloud/lib/libBc_Router_Atmega128rfa1_Atmega128rfa1_Gcc.a(machwiPanServer.o)
 .text          0x00000000        0x0 ./../../../../BitCloud/lib/libBc_Router_Atmega128rfa1_Atmega128rfa1_Gcc.a(machwiPollHandler.o)
 .data          0x00000000        0x0 ./../../../../BitCloud/lib/libBc_Router_Atmega128rfa1_Atmega128rfa1_Gcc.a(machwiPollHandler.o)
 .bss           0x00000000        0x0 ./../../../../BitCloud/lib/libBc_Router_Atmega128rfa1_Atmega128rfa1_Gcc.a(machwiPollHandler.o)
 .text          0x00000000        0x0 ./../../../../BitCloud/lib/libBc_Router_Atmega128rfa1_Atmega128rfa1_Gcc.a(machwiPurgeHandler.o)
 .data          0x00000000        0x0 ./../../../../BitCloud/lib/libBc_Router_Atmega128rfa1_Atmega128rfa1_Gcc.a(machwiPurgeHandler.o)
 .bss           0x00000000        0x0 ./../../../../BitCloud/lib/libBc_Router_Atmega128rfa1_Atmega128rfa1_Gcc.a(machwiPurgeHandler.o)
 .text          0x00000000        0x0 ./../../../../BitCloud/lib/libBc_Router_Atmega128rfa1_Atmega128rfa1_Gcc.a(machwiResetHandler.o)
 .data          0x00000000        0x0 ./../../../../BitCloud/lib/libBc_Router_Atmega128rfa1_Atmega128rfa1_Gcc.a(machwiResetHandler.o)
 .bss           0x00000000        0x0 ./../../../../BitCloud/lib/libBc_Router_Atmega128rfa1_Atmega128rfa1_Gcc.a(machwiResetHandler.o)
 .text          0x00000000        0x0 ./../../../../BitCloud/lib/libBc_Router_Atmega128rfa1_Atmega128rfa1_Gcc.a(machwiRxEnableHandler.o)
 .data          0x00000000        0x0 ./../../../../BitCloud/lib/libBc_Router_Atmega128rfa1_Atmega128rfa1_Gcc.a(machwiRxEnableHandler.o)
 .bss           0x00000000        0x0 ./../../../../BitCloud/lib/libBc_Router_Atmega128rfa1_Atmega128rfa1_Gcc.a(machwiRxEnableHandler.o)
 .text          0x00000000        0x0 ./../../../../BitCloud/lib/libBc_Router_Atmega128rfa1_Atmega128rfa1_Gcc.a(machwiScanHandler.o)
 .data          0x00000000        0x0 ./../../../../BitCloud/lib/libBc_Router_Atmega128rfa1_Atmega128rfa1_Gcc.a(machwiScanHandler.o)
 .text          0x00000000        0x0 ./../../../../BitCloud/lib/libBc_Router_Atmega128rfa1_Atmega128rfa1_Gcc.a(machwiSetGetHandler.o)
 .bss           0x00000000        0x0 ./../../../../BitCloud/lib/libBc_Router_Atmega128rfa1_Atmega128rfa1_Gcc.a(machwiSetGetHandler.o)
 .text          0x00000000        0x0 ./../../../../BitCloud/lib/libBc_Router_Atmega128rfa1_Atmega128rfa1_Gcc.a(machwiStartHandler.o)
 .data          0x00000000        0x0 ./../../../../BitCloud/lib/libBc_Router_Atmega128rfa1_Atmega128rfa1_Gcc.a(machwiStartHandler.o)
 .bss           0x00000000        0x0 ./../../../../BitCloud/lib/libBc_Router_Atmega128rfa1_Atmega128rfa1_Gcc.a(machwiStartHandler.o)
 .text          0x00000000        0x0 ./../../../../BitCloud/lib/libBc_Router_Atmega128rfa1_Atmega128rfa1_Gcc.a(machwiSwitchRxCtrl.o)
 .data          0x00000000        0x0 ./../../../../BitCloud/lib/libBc_Router_Atmega128rfa1_Atmega128rfa1_Gcc.a(machwiSwitchRxCtrl.o)
 .bss           0x00000000        0x0 ./../../../../BitCloud/lib/libBc_Router_Atmega128rfa1_Atmega128rfa1_Gcc.a(machwiSwitchRxCtrl.o)
 .text          0x00000000        0x0 ./../../../../BitCloud/lib/libBc_Router_Atmega128rfa1_Atmega128rfa1_Gcc.a(machwiTransactionHandler.o)
 .data          0x00000000        0x0 ./../../../../BitCloud/lib/libBc_Router_Atmega128rfa1_Atmega128rfa1_Gcc.a(machwiTransactionHandler.o)
 .bss           0x00000000        0x0 ./../../../../BitCloud/lib/libBc_Router_Atmega128rfa1_Atmega128rfa1_Gcc.a(machwiTransactionHandler.o)
 .text          0x00000000        0x0 ./../../../../BitCloud/lib/libBc_Router_Atmega128rfa1_Atmega128rfa1_Gcc.a(machwiTransactionQueue.o)
 .data          0x00000000        0x0 ./../../../../BitCloud/lib/libBc_Router_Atmega128rfa1_Atmega128rfa1_Gcc.a(machwiTransactionQueue.o)
 .bss           0x00000000        0x0 ./../../../../BitCloud/lib/libBc_Router_Atmega128rfa1_Atmega128rfa1_Gcc.a(machwiTransactionQueue.o)
 .text          0x00000000        0x0 ./../../../../BitCloud/lib/libBc_Router_Atmega128rfa1_Atmega128rfa1_Gcc.a(phyInit.o)
 .data          0x00000000        0x0 ./../../../../BitCloud/lib/libBc_Router_Atmega128rfa1_Atmega128rfa1_Gcc.a(phyInit.o)
 .bss           0x00000000        0x0 ./../../../../BitCloud/lib/libBc_Router_Atmega128rfa1_Atmega128rfa1_Gcc.a(phyInit.o)
 .text          0x00000000        0x0 ./../../../../BitCloud/lib/libBc_Router_Atmega128rfa1_Atmega128rfa1_Gcc.a(phyRegAccess.o)
 .data          0x00000000        0x0 ./../../../../BitCloud/lib/libBc_Router_Atmega128rfa1_Atmega128rfa1_Gcc.a(phyRegAccess.o)
 .bss           0x00000000        0x0 ./../../../../BitCloud/lib/libBc_Router_Atmega128rfa1_Atmega128rfa1_Gcc.a(phyRegAccess.o)
 .text          0x00000000        0x0 ./../../../../BitCloud/lib/libBc_Router_Atmega128rfa1_Atmega128rfa1_Gcc.a(phyReset.o)
 .data          0x00000000        0x0 ./../../../../BitCloud/lib/libBc_Router_Atmega128rfa1_Atmega128rfa1_Gcc.a(phyReset.o)
 .bss           0x00000000        0x0 ./../../../../BitCloud/lib/libBc_Router_Atmega128rfa1_Atmega128rfa1_Gcc.a(phyReset.o)
 .text          0x00000000        0x0 ./../../../../BitCloud/lib/libBc_Router_Atmega128rfa1_Atmega128rfa1_Gcc.a(phyRfIrqDispatcher.o)
 .text          0x00000000        0x0 ./../../../../BitCloud/lib/libBc_Router_Atmega128rfa1_Atmega128rfa1_Gcc.a(phyRnd.o)
 .data          0x00000000        0x0 ./../../../../BitCloud/lib/libBc_Router_Atmega128rfa1_Atmega128rfa1_Gcc.a(phyRnd.o)
 .bss           0x00000000        0x0 ./../../../../BitCloud/lib/libBc_Router_Atmega128rfa1_Atmega128rfa1_Gcc.a(phyRnd.o)
 .text          0x00000000        0x0 ./../../../../BitCloud/lib/libBc_Router_Atmega128rfa1_Atmega128rfa1_Gcc.a(phyRxFrame.o)
 .data          0x00000000        0x0 ./../../../../BitCloud/lib/libBc_Router_Atmega128rfa1_Atmega128rfa1_Gcc.a(phyRxFrame.o)
 .bss           0x00000000        0x0 ./../../../../BitCloud/lib/libBc_Router_Atmega128rfa1_Atmega128rfa1_Gcc.a(phyRxFrame.o)
 .text          0x00000000        0x0 ./../../../../BitCloud/lib/libBc_Router_Atmega128rfa1_Atmega128rfa1_Gcc.a(phySet.o)
 .data          0x00000000        0x0 ./../../../../BitCloud/lib/libBc_Router_Atmega128rfa1_Atmega128rfa1_Gcc.a(phySet.o)
 .text          0x00000000        0x0 ./../../../../BitCloud/lib/libBc_Router_Atmega128rfa1_Atmega128rfa1_Gcc.a(phySetTrxState.o)
 .data          0x00000000        0x0 ./../../../../BitCloud/lib/libBc_Router_Atmega128rfa1_Atmega128rfa1_Gcc.a(phySetTrxState.o)
 .bss           0x00000000        0x0 ./../../../../BitCloud/lib/libBc_Router_Atmega128rfa1_Atmega128rfa1_Gcc.a(phySetTrxState.o)
 COMMON         0x00000000        0x1 ./../../../../BitCloud/lib/libBc_Router_Atmega128rfa1_Atmega128rfa1_Gcc.a(phySetTrxState.o)
 .text          0x00000000        0x0 ./../../../../BitCloud/lib/libBc_Router_Atmega128rfa1_Atmega128rfa1_Gcc.a(phyTxFrame.o)
 .data          0x00000000        0x0 ./../../../../BitCloud/lib/libBc_Router_Atmega128rfa1_Atmega128rfa1_Gcc.a(phyTxFrame.o)
 .bss           0x00000000        0x0 ./../../../../BitCloud/lib/libBc_Router_Atmega128rfa1_Atmega128rfa1_Gcc.a(phyTxFrame.o)
 .text          0x00000000        0x0 ./../../../../BitCloud/lib/libBc_Router_Atmega128rfa1_Atmega128rfa1_Gcc.a(machwdCalibHandler.o)
 .data          0x00000000        0x0 ./../../../../BitCloud/lib/libBc_Router_Atmega128rfa1_Atmega128rfa1_Gcc.a(machwdCalibHandler.o)
 .text          0x00000000        0x0 ./../../../../BitCloud/lib/libBc_Router_Atmega128rfa1_Atmega128rfa1_Gcc.a(machwdEdHandler.o)
 .data          0x00000000        0x0 ./../../../../BitCloud/lib/libBc_Router_Atmega128rfa1_Atmega128rfa1_Gcc.a(machwdEdHandler.o)
 .text          0x00000000        0x0 ./../../../../BitCloud/lib/libBc_Router_Atmega128rfa1_Atmega128rfa1_Gcc.a(machwdFrameRoutine.o)
 .bss           0x00000000        0x0 ./../../../../BitCloud/lib/libBc_Router_Atmega128rfa1_Atmega128rfa1_Gcc.a(machwdFrameRoutine.o)
 .text          0x00000000        0x0 ./../../../../BitCloud/lib/libBc_Router_Atmega128rfa1_Atmega128rfa1_Gcc.a(machwdHandlerCtrl.o)
 .data          0x00000000        0x0 ./../../../../BitCloud/lib/libBc_Router_Atmega128rfa1_Atmega128rfa1_Gcc.a(machwdHandlerCtrl.o)
 .text          0x00000000        0x0 ./../../../../BitCloud/lib/libBc_Router_Atmega128rfa1_Atmega128rfa1_Gcc.a(machwiAssociateHandler.o)
 .data          0x00000000        0x0 ./../../../../BitCloud/lib/libBc_Router_Atmega128rfa1_Atmega128rfa1_Gcc.a(machwiAssociateHandler.o)
 .bss           0x00000000        0x0 ./../../../../BitCloud/lib/libBc_Router_Atmega128rfa1_Atmega128rfa1_Gcc.a(machwiAssociateHandler.o)
 .text          0x00000000        0x0 ./../../../../BitCloud/lib/libBc_Router_Atmega128rfa1_Atmega128rfa1_Gcc.a(machwiBeaconHandler.o)
 .data          0x00000000        0x0 ./../../../../BitCloud/lib/libBc_Router_Atmega128rfa1_Atmega128rfa1_Gcc.a(machwiBeaconHandler.o)
 .bss           0x00000000        0x0 ./../../../../BitCloud/lib/libBc_Router_Atmega128rfa1_Atmega128rfa1_Gcc.a(machwiBeaconHandler.o)
 .text          0x00000000        0x0 ./../../../../BitCloud/lib/libBc_Router_Atmega128rfa1_Atmega128rfa1_Gcc.a(machwiDataHandler.o)
 .bss           0x00000000        0x0 ./../../../../BitCloud/lib/libBc_Router_Atmega128rfa1_Atmega128rfa1_Gcc.a(machwiDataHandler.o)
 .text          0x00000000        0x0 ./../../../../BitCloud/lib/libBc_Router_Atmega128rfa1_Atmega128rfa1_Gcc.a(machwiTransactionHash.o)
 .data          0x00000000        0x0 ./../../../../BitCloud/lib/libBc_Router_Atmega128rfa1_Atmega128rfa1_Gcc.a(machwiTransactionHash.o)
 .text.machwiIsDataPending
                0x00000000      0x1c4 ./../../../../BitCloud/lib/libBc_Router_Atmega128rfa1_Atmega128rfa1_Gcc.a(machwiTransactionHash.o)
 .text          0x00000000        0x0 ./../../../../BitCloud/lib/libBc_Router_Atmega128rfa1_Atmega128rfa1_Gcc.a(phyCalib.o)
 .data          0x00000000        0x0 ./../../../../BitCloud/lib/libBc_Router_Atmega128rfa1_Atmega128rfa1_Gcc.a(phyCalib.o)
 .bss           0x00000000        0x0 ./../../../../BitCloud/lib/libBc_Router_Atmega128rfa1_Atmega128rfa1_Gcc.a(phyCalib.o)
 .text          0x00000000        0x0 ./../../../../BitCloud/lib/libBc_Router_Atmega128rfa1_Atmega128rfa1_Gcc.a(phyEd.o)
 .data          0x00000000        0x0 ./../../../../BitCloud/lib/libBc_Router_Atmega128rfa1_Atmega128rfa1_Gcc.a(phyEd.o)
 .bss           0x00000000        0x0 ./../../../../BitCloud/lib/libBc_Router_Atmega128rfa1_Atmega128rfa1_Gcc.a(phyEd.o)
 .text          0x00000000        0x0 ./../../../../BitCloud/lib/libBc_Router_Atmega128rfa1_Atmega128rfa1_Gcc.a(phyRtimerIrqDispatcher.o)
 .data          0x00000000        0x0 ./../../../../BitCloud/lib/libBc_Router_Atmega128rfa1_Atmega128rfa1_Gcc.a(phyRtimerIrqDispatcher.o)
 .bss           0x00000000        0x0 ./../../../../BitCloud/lib/libBc_Router_Atmega128rfa1_Atmega128rfa1_Gcc.a(phyRtimerIrqDispatcher.o)
 .text          0x00000000        0x0 ./../../../../BitCloud/lib/WdtInitatmega128rfa1_Gcc.o
 .data          0x00000000        0x0 ./../../../../BitCloud/lib/WdtInitatmega128rfa1_Gcc.o
 .bss           0x00000000        0x0 ./../../../../BitCloud/lib/WdtInitatmega128rfa1_Gcc.o
 .text          0x00000000        0x0 ./../../../../BitCloud/lib/libHAL_RcbAtm128rfa1_Atmega128rfa1_8Mhz_Gcc.a(halDelay.o)
 .data          0x00000000        0x0 ./../../../../BitCloud/lib/libHAL_RcbAtm128rfa1_Atmega128rfa1_8Mhz_Gcc.a(halDelay.o)
 .bss           0x00000000        0x0 ./../../../../BitCloud/lib/libHAL_RcbAtm128rfa1_Atmega128rfa1_8Mhz_Gcc.a(halDelay.o)
 .text          0x00000000        0x0 ./../../../../BitCloud/lib/libHAL_RcbAtm128rfa1_Atmega128rfa1_8Mhz_Gcc.a(halInit.o)
 .data          0x00000000        0x0 ./../../../../BitCloud/lib/libHAL_RcbAtm128rfa1_Atmega128rfa1_8Mhz_Gcc.a(halInit.o)
 .bss           0x00000000        0x0 ./../../../../BitCloud/lib/libHAL_RcbAtm128rfa1_Atmega128rfa1_8Mhz_Gcc.a(halInit.o)
 .text          0x00000000        0x0 ./../../../../BitCloud/lib/libHAL_RcbAtm128rfa1_Atmega128rfa1_8Mhz_Gcc.a(halRfCtrl.o)
 .data          0x00000000        0x0 ./../../../../BitCloud/lib/libHAL_RcbAtm128rfa1_Atmega128rfa1_8Mhz_Gcc.a(halRfCtrl.o)
 .bss           0x00000000        0x0 ./../../../../BitCloud/lib/libHAL_RcbAtm128rfa1_Atmega128rfa1_8Mhz_Gcc.a(halRfCtrl.o)
 .text          0x00000000        0x0 ./../../../../BitCloud/lib/libHAL_RcbAtm128rfa1_Atmega128rfa1_8Mhz_Gcc.a(halUid.o)
 .data          0x00000000        0x0 ./../../../../BitCloud/lib/libHAL_RcbAtm128rfa1_Atmega128rfa1_8Mhz_Gcc.a(halUid.o)
 .text          0x00000000        0x0 ./../../../../BitCloud/lib/libHAL_RcbAtm128rfa1_Atmega128rfa1_8Mhz_Gcc.a(halMacIsr.o)
 .data          0x00000000        0x0 ./../../../../BitCloud/lib/libHAL_RcbAtm128rfa1_Atmega128rfa1_8Mhz_Gcc.a(halMacIsr.o)
 .bss           0x00000000        0x0 ./../../../../BitCloud/lib/libHAL_RcbAtm128rfa1_Atmega128rfa1_8Mhz_Gcc.a(halMacIsr.o)
 .text          0x00000000        0x0 d:/program files/atmel/avr studio 5.1/extensions/atmel/avrgcc/3.3.1.27/avrtoolchain/bin/../lib/gcc/avr/4.5.1/avr51\libgcc.a(_mulsi3.o)
 .data          0x00000000        0x0 d:/program files/atmel/avr studio 5.1/extensions/atmel/avrgcc/3.3.1.27/avrtoolchain/bin/../lib/gcc/avr/4.5.1/avr51\libgcc.a(_mulsi3.o)
 .bss           0x00000000        0x0 d:/program files/atmel/avr studio 5.1/extensions/atmel/avrgcc/3.3.1.27/avrtoolchain/bin/../lib/gcc/avr/4.5.1/avr51\libgcc.a(_mulsi3.o)
 .text          0x00000000        0x0 d:/program files/atmel/avr studio 5.1/extensions/atmel/avrgcc/3.3.1.27/avrtoolchain/bin/../lib/gcc/avr/4.5.1/avr51\libgcc.a(_udivmodqi4.o)
 .data          0x00000000        0x0 d:/program files/atmel/avr studio 5.1/extensions/atmel/avrgcc/3.3.1.27/avrtoolchain/bin/../lib/gcc/avr/4.5.1/avr51\libgcc.a(_udivmodqi4.o)
 .bss           0x00000000        0x0 d:/program files/atmel/avr studio 5.1/extensions/atmel/avrgcc/3.3.1.27/avrtoolchain/bin/../lib/gcc/avr/4.5.1/avr51\libgcc.a(_udivmodqi4.o)
 .text          0x00000000        0x0 d:/program files/atmel/avr studio 5.1/extensions/atmel/avrgcc/3.3.1.27/avrtoolchain/bin/../lib/gcc/avr/4.5.1/avr51\libgcc.a(_udivmodhi4.o)
 .data          0x00000000        0x0 d:/program files/atmel/avr studio 5.1/extensions/atmel/avrgcc/3.3.1.27/avrtoolchain/bin/../lib/gcc/avr/4.5.1/avr51\libgcc.a(_udivmodhi4.o)
 .bss           0x00000000        0x0 d:/program files/atmel/avr studio 5.1/extensions/atmel/avrgcc/3.3.1.27/avrtoolchain/bin/../lib/gcc/avr/4.5.1/avr51\libgcc.a(_udivmodhi4.o)
 .text          0x00000000        0x0 d:/program files/atmel/avr studio 5.1/extensions/atmel/avrgcc/3.3.1.27/avrtoolchain/bin/../lib/gcc/avr/4.5.1/avr51\libgcc.a(_udivmodsi4.o)
 .data          0x00000000        0x0 d:/program files/atmel/avr studio 5.1/extensions/atmel/avrgcc/3.3.1.27/avrtoolchain/bin/../lib/gcc/avr/4.5.1/avr51\libgcc.a(_udivmodsi4.o)
 .bss           0x00000000        0x0 d:/program files/atmel/avr studio 5.1/extensions/atmel/avrgcc/3.3.1.27/avrtoolchain/bin/../lib/gcc/avr/4.5.1/avr51\libgcc.a(_udivmodsi4.o)
 .text          0x00000000        0x0 d:/program files/atmel/avr studio 5.1/extensions/atmel/avrgcc/3.3.1.27/avrtoolchain/bin/../lib/gcc/avr/4.5.1/avr51\libgcc.a(_prologue.o)
 .data          0x00000000        0x0 d:/program files/atmel/avr studio 5.1/extensions/atmel/avrgcc/3.3.1.27/avrtoolchain/bin/../lib/gcc/avr/4.5.1/avr51\libgcc.a(_prologue.o)
 .bss           0x00000000        0x0 d:/program files/atmel/avr studio 5.1/extensions/atmel/avrgcc/3.3.1.27/avrtoolchain/bin/../lib/gcc/avr/4.5.1/avr51\libgcc.a(_prologue.o)
 .text          0x00000000        0x0 d:/program files/atmel/avr studio 5.1/extensions/atmel/avrgcc/3.3.1.27/avrtoolchain/bin/../lib/gcc/avr/4.5.1/avr51\libgcc.a(_epilogue.o)
 .data          0x00000000        0x0 d:/program files/atmel/avr studio 5.1/extensions/atmel/avrgcc/3.3.1.27/avrtoolchain/bin/../lib/gcc/avr/4.5.1/avr51\libgcc.a(_epilogue.o)
 .bss           0x00000000        0x0 d:/program files/atmel/avr studio 5.1/extensions/atmel/avrgcc/3.3.1.27/avrtoolchain/bin/../lib/gcc/avr/4.5.1/avr51\libgcc.a(_epilogue.o)
 .text          0x00000000        0x0 d:/program files/atmel/avr studio 5.1/extensions/atmel/avrgcc/3.3.1.27/avrtoolchain/bin/../lib/gcc/avr/4.5.1/avr51\libgcc.a(_exit.o)
 .data          0x00000000        0x0 d:/program files/atmel/avr studio 5.1/extensions/atmel/avrgcc/3.3.1.27/avrtoolchain/bin/../lib/gcc/avr/4.5.1/avr51\libgcc.a(_exit.o)
 .bss           0x00000000        0x0 d:/program files/atmel/avr studio 5.1/extensions/atmel/avrgcc/3.3.1.27/avrtoolchain/bin/../lib/gcc/avr/4.5.1/avr51\libgcc.a(_exit.o)
 .text.libgcc   0x00000000        0x0 d:/program files/atmel/avr studio 5.1/extensions/atmel/avrgcc/3.3.1.27/avrtoolchain/bin/../lib/gcc/avr/4.5.1/avr51\libgcc.a(_exit.o)
 .fini9         0x00000000        0x0 d:/program files/atmel/avr studio 5.1/extensions/atmel/avrgcc/3.3.1.27/avrtoolchain/bin/../lib/gcc/avr/4.5.1/avr51\libgcc.a(_exit.o)
 .fini0         0x00000000        0x4 d:/program files/atmel/avr studio 5.1/extensions/atmel/avrgcc/3.3.1.27/avrtoolchain/bin/../lib/gcc/avr/4.5.1/avr51\libgcc.a(_exit.o)
 .text          0x00000000        0x0 d:/program files/atmel/avr studio 5.1/extensions/atmel/avrgcc/3.3.1.27/avrtoolchain/bin/../lib/gcc/avr/4.5.1/avr51\libgcc.a(_tablejump.o)
 .data          0x00000000        0x0 d:/program files/atmel/avr studio 5.1/extensions/atmel/avrgcc/3.3.1.27/avrtoolchain/bin/../lib/gcc/avr/4.5.1/avr51\libgcc.a(_tablejump.o)
 .bss           0x00000000        0x0 d:/program files/atmel/avr studio 5.1/extensions/atmel/avrgcc/3.3.1.27/avrtoolchain/bin/../lib/gcc/avr/4.5.1/avr51\libgcc.a(_tablejump.o)
 .text          0x00000000        0x0 d:/program files/atmel/avr studio 5.1/extensions/atmel/avrgcc/3.3.1.27/avrtoolchain/bin/../lib/gcc/avr/4.5.1/avr51\libgcc.a(_copy_data.o)
 .data          0x00000000        0x0 d:/program files/atmel/avr studio 5.1/extensions/atmel/avrgcc/3.3.1.27/avrtoolchain/bin/../lib/gcc/avr/4.5.1/avr51\libgcc.a(_copy_data.o)
 .bss           0x00000000        0x0 d:/program files/atmel/avr studio 5.1/extensions/atmel/avrgcc/3.3.1.27/avrtoolchain/bin/../lib/gcc/avr/4.5.1/avr51\libgcc.a(_copy_data.o)
 .text.libgcc   0x00000000        0x0 d:/program files/atmel/avr studio 5.1/extensions/atmel/avrgcc/3.3.1.27/avrtoolchain/bin/../lib/gcc/avr/4.5.1/avr51\libgcc.a(_copy_data.o)
 .text          0x00000000        0x0 d:/program files/atmel/avr studio 5.1/extensions/atmel/avrgcc/3.3.1.27/avrtoolchain/bin/../lib/gcc/avr/4.5.1/avr51\libgcc.a(_clear_bss.o)
 .data          0x00000000        0x0 d:/program files/atmel/avr studio 5.1/extensions/atmel/avrgcc/3.3.1.27/avrtoolchain/bin/../lib/gcc/avr/4.5.1/avr51\libgcc.a(_clear_bss.o)
 .bss           0x00000000        0x0 d:/program files/atmel/avr studio 5.1/extensions/atmel/avrgcc/3.3.1.27/avrtoolchain/bin/../lib/gcc/avr/4.5.1/avr51\libgcc.a(_clear_bss.o)
 .text.libgcc   0x00000000        0x0 d:/program files/atmel/avr studio 5.1/extensions/atmel/avrgcc/3.3.1.27/avrtoolchain/bin/../lib/gcc/avr/4.5.1/avr51\libgcc.a(_clear_bss.o)
 .data          0x00000000        0x0 d:/program files/atmel/avr studio 5.1/extensions/atmel/avrgcc/3.3.1.27/avrtoolchain/bin/../lib/gcc/avr/4.5.1/avr51\libgcc.a(_ashldi3.o)
 .bss           0x00000000        0x0 d:/program files/atmel/avr studio 5.1/extensions/atmel/avrgcc/3.3.1.27/avrtoolchain/bin/../lib/gcc/avr/4.5.1/avr51\libgcc.a(_ashldi3.o)
 .text          0x00000000        0x0 d:/program files/atmel/avr studio 5.1/extensions/atmel/avrgcc/3.3.1.27/avrtoolchain/bin/../lib/gcc/avr/4.5.1/../../../../avr/lib/avr51\libc.a(rand.o)
 .bss           0x00000000        0x0 d:/program files/atmel/avr studio 5.1/extensions/atmel/avrgcc/3.3.1.27/avrtoolchain/bin/../lib/gcc/avr/4.5.1/../../../../avr/lib/avr51\libc.a(rand.o)
 .text          0x00000000        0x0 d:/program files/atmel/avr studio 5.1/extensions/atmel/avrgcc/3.3.1.27/avrtoolchain/bin/../lib/gcc/avr/4.5.1/../../../../avr/lib/avr51\libc.a(memcpy_P.o)
 .data          0x00000000        0x0 d:/program files/atmel/avr studio 5.1/extensions/atmel/avrgcc/3.3.1.27/avrtoolchain/bin/../lib/gcc/avr/4.5.1/../../../../avr/lib/avr51\libc.a(memcpy_P.o)
 .bss           0x00000000        0x0 d:/program files/atmel/avr studio 5.1/extensions/atmel/avrgcc/3.3.1.27/avrtoolchain/bin/../lib/gcc/avr/4.5.1/../../../../avr/lib/avr51\libc.a(memcpy_P.o)
 .text          0x00000000        0x0 d:/program files/atmel/avr studio 5.1/extensions/atmel/avrgcc/3.3.1.27/avrtoolchain/bin/../lib/gcc/avr/4.5.1/../../../../avr/lib/avr51\libc.a(memcmp.o)
 .data          0x00000000        0x0 d:/program files/atmel/avr studio 5.1/extensions/atmel/avrgcc/3.3.1.27/avrtoolchain/bin/../lib/gcc/avr/4.5.1/../../../../avr/lib/avr51\libc.a(memcmp.o)
 .bss           0x00000000        0x0 d:/program files/atmel/avr studio 5.1/extensions/atmel/avrgcc/3.3.1.27/avrtoolchain/bin/../lib/gcc/avr/4.5.1/../../../../avr/lib/avr51\libc.a(memcmp.o)
 .text          0x00000000        0x0 d:/program files/atmel/avr studio 5.1/extensions/atmel/avrgcc/3.3.1.27/avrtoolchain/bin/../lib/gcc/avr/4.5.1/../../../../avr/lib/avr51\libc.a(memcpy.o)
 .data          0x00000000        0x0 d:/program files/atmel/avr studio 5.1/extensions/atmel/avrgcc/3.3.1.27/avrtoolchain/bin/../lib/gcc/avr/4.5.1/../../../../avr/lib/avr51\libc.a(memcpy.o)
 .bss           0x00000000        0x0 d:/program files/atmel/avr studio 5.1/extensions/atmel/avrgcc/3.3.1.27/avrtoolchain/bin/../lib/gcc/avr/4.5.1/../../../../avr/lib/avr51\libc.a(memcpy.o)
 .text          0x00000000        0x0 d:/program files/atmel/avr studio 5.1/extensions/atmel/avrgcc/3.3.1.27/avrtoolchain/bin/../lib/gcc/avr/4.5.1/../../../../avr/lib/avr51\libc.a(memmove.o)
 .data          0x00000000        0x0 d:/program files/atmel/avr studio 5.1/extensions/atmel/avrgcc/3.3.1.27/avrtoolchain/bin/../lib/gcc/avr/4.5.1/../../../../avr/lib/avr51\libc.a(memmove.o)
 .bss           0x00000000        0x0 d:/program files/atmel/avr studio 5.1/extensions/atmel/avrgcc/3.3.1.27/avrtoolchain/bin/../lib/gcc/avr/4.5.1/../../../../avr/lib/avr51\libc.a(memmove.o)
 .text          0x00000000        0x0 d:/program files/atmel/avr studio 5.1/extensions/atmel/avrgcc/3.3.1.27/avrtoolchain/bin/../lib/gcc/avr/4.5.1/../../../../avr/lib/avr51\libc.a(memset.o)
 .data          0x00000000        0x0 d:/program files/atmel/avr studio 5.1/extensions/atmel/avrgcc/3.3.1.27/avrtoolchain/bin/../lib/gcc/avr/4.5.1/../../../../avr/lib/avr51\libc.a(memset.o)
 .bss           0x00000000        0x0 d:/program files/atmel/avr studio 5.1/extensions/atmel/avrgcc/3.3.1.27/avrtoolchain/bin/../lib/gcc/avr/4.5.1/../../../../avr/lib/avr51\libc.a(memset.o)
 .text          0x00000000        0x0 d:/program files/atmel/avr studio 5.1/extensions/atmel/avrgcc/3.3.1.27/avrtoolchain/bin/../lib/gcc/avr/4.5.1/../../../../avr/lib/avr51\libc.a(strcpy.o)
 .data          0x00000000        0x0 d:/program files/atmel/avr studio 5.1/extensions/atmel/avrgcc/3.3.1.27/avrtoolchain/bin/../lib/gcc/avr/4.5.1/../../../../avr/lib/avr51\libc.a(strcpy.o)
 .bss           0x00000000        0x0 d:/program files/atmel/avr studio 5.1/extensions/atmel/avrgcc/3.3.1.27/avrtoolchain/bin/../lib/gcc/avr/4.5.1/../../../../avr/lib/avr51\libc.a(strcpy.o)
 .text          0x00000000        0x0 d:/program files/atmel/avr studio 5.1/extensions/atmel/avrgcc/3.3.1.27/avrtoolchain/bin/../lib/gcc/avr/4.5.1/avr51\libgcc.a(_divmodsi4.o)
 .data          0x00000000        0x0 d:/program files/atmel/avr studio 5.1/extensions/atmel/avrgcc/3.3.1.27/avrtoolchain/bin/../lib/gcc/avr/4.5.1/avr51\libgcc.a(_divmodsi4.o)
 .bss           0x00000000        0x0 d:/program files/atmel/avr studio 5.1/extensions/atmel/avrgcc/3.3.1.27/avrtoolchain/bin/../lib/gcc/avr/4.5.1/avr51\libgcc.a(_divmodsi4.o)

Memory Configuration

Name             Origin             Length             Attributes
text             0x00000000         0x00020000         xr
data             0x00800190         0x00003e0c         rw !x
eeprom           0x00810000         0x00001000         rw !x
*default*        0x00000000         0xffffffff

Linker script and memory map

Address of section .data set to 0x800200
LOAD d:/program files/atmel/avr studio 5.1/extensions/atmel/avrgcc/3.3.1.27/avrtoolchain/bin/../lib/gcc/avr/4.5.1/../../../../avr/lib/avr51/crtm128rfa1.o

.text           0x00000000    0x166bc
                0x00000000                PROVIDE (__text_start, .)
 *(.vectors)
 .vectors       0x00000000      0x120 d:/program files/atmel/avr studio 5.1/extensions/atmel/avrgcc/3.3.1.27/avrtoolchain/bin/../lib/gcc/avr/4.5.1/../../../../avr/lib/avr51/crtm128rfa1.o
                0x00000000                __vector_default
                0x00000000                __vectors
 *(.vectors)
                0x00000120                PROVIDE (__pds_ff_start, .)
 *(.pds_ff)
 .pds_ff        0x00000120       0x8a Router_Rcb_Atmega128rfa1_8Mhz_Gcc/Obj/csPersistentMem.o
                0x00000120                csGeneralFileDescriptors
                0x00000180                csExtendedFileDescriptors
                0x00000198                csNeighborTableFileDescriptor
                0x0000019e                csGroupTableFileDescriptor
                0x000001a4                csBindingTableFileDescriptor
                0x000001aa                PROVIDE (__pds_ff_end, .)
                0x000001aa                PROVIDE (__pds_fd_start, .)
 *(.pds_fd)
 .pds_fd        0x000001aa       0x24 Router_Rcb_Atmega128rfa1_8Mhz_Gcc/Obj/csPersistentMem.o
                0x000001aa                csGeneralParamsDirDescr
                0x000001b0                csExtendedParamsDirDescr
                0x000001b6                csNwkSecurityTablesDirDescr
                0x000001bc                BCSystemDirDescr
                0x000001c2                BCExtGenParamsDirDescr
                0x000001c8                BCRejoinParamsDirDescr
                0x000001ce                PROVIDE (__pds_fd_end, .)
 *(.progmem.gcc*)
 .progmem.gcc_sw_table
                0x000001ce      0x110 ./../../../../BitCloud/lib/libBc_Router_Atmega128rfa1_Atmega128rfa1_Gcc.a(macenvPib.o)
 .progmem.gcc_sw_table
                0x000002de       0x56 ./../../../../BitCloud/lib/libBc_Router_Atmega128rfa1_Atmega128rfa1_Gcc.a(nwk.o)
 .progmem.gcc_sw_table
                0x00000334       0x58 ./../../../../BitCloud/lib/libBc_Router_Atmega128rfa1_Atmega128rfa1_Gcc.a(zdo.o)
 .progmem.gcc_sw_table
                0x0000038c       0x28 ./../../../../BitCloud/lib/libBc_Router_Atmega128rfa1_Atmega128rfa1_Gcc.a(machwdManager.o)
 .progmem.gcc_sw_table
                0x000003b4       0x3c ./../../../../BitCloud/lib/libBc_Router_Atmega128rfa1_Atmega128rfa1_Gcc.a(machwiManager.o)
 .progmem.gcc_sw_table
                0x000003f0       0x16 ./../../../../BitCloud/lib/libBc_Router_Atmega128rfa1_Atmega128rfa1_Gcc.a(machwiPanServer.o)
 .progmem.gcc_sw_table
                0x00000406       0x20 ./../../../../BitCloud/lib/libBc_Router_Atmega128rfa1_Atmega128rfa1_Gcc.a(machwiScanHandler.o)
 .progmem.gcc_sw_table
                0x00000426       0x26 ./../../../../BitCloud/lib/libBc_Router_Atmega128rfa1_Atmega128rfa1_Gcc.a(machwdFrameRoutine.o)
 *(.progmem*)
 .progmem.data  0x0000044c       0xa4 Router_Rcb_Atmega128rfa1_8Mhz_Gcc/Obj/csPersistentMem.o
                0x0000044c                CsGeneralMemoryIdsTable
                0x0000046c                CsExtendedMemoryIdsTable
                0x00000474                CsNwkSecurityMemoryIdsTable
                0x00000478                BCSystemMemoryIdsTable
                0x000004a6                BCExtGenParamsMemoryIdsTable
                0x000004ce                BCRejoinParamsMemoryIdsTable
 .progmem.data  0x000004f0      0x25e Router_Rcb_Atmega128rfa1_8Mhz_Gcc/Obj/csMem.o
                0x000004f0                defaultNIB
                0x00000576                defaultZIB
                0x000005a5                defaultAIB
                0x000005a7                defaultSIB
                0x000005e3                csReadOnlyItems
                0x00000602                csMemoryItems
 .progmem.data  0x0000074e        0xc ./../../../../BitCloud/lib/libHAL_RcbAtm128rfa1_Atmega128rfa1_8Mhz_Gcc.a(usart.o)
 .progmem.data  0x0000075a       0x10 ./../../../../BitCloud/lib/libBc_Router_Atmega128rfa1_Atmega128rfa1_Gcc.a(aps.o)
 .progmem.data  0x0000076a      0x132 ./../../../../BitCloud/lib/libBc_Router_Atmega128rfa1_Atmega128rfa1_Gcc.a(nwk.o)
                0x0000089c                . = ALIGN (0x2)
 *(.trampolines*)
 .trampolines   0x0000089c        0x0 linker stubs
 *(.jumptables*)
 *(.lowtext*)
 *(.init0)
 .init0         0x0000089c        0x0 d:/program files/atmel/avr studio 5.1/extensions/atmel/avrgcc/3.3.1.27/avrtoolchain/bin/../lib/gcc/avr/4.5.1/../../../../avr/lib/avr51/crtm128rfa1.o
                0x0000089c                __init
 .init0         0x0000089c       0x30 ./../../../../BitCloud/lib/WdtInitatmega128rfa1_Gcc.o
                0x0000089c                halWdtInit
 *(.init0)
 *(.init1)
 *(.init1)
 *(.init2)
 .init2         0x000008cc        0xc d:/program files/atmel/avr studio 5.1/extensions/atmel/avrgcc/3.3.1.27/avrtoolchain/bin/../lib/gcc/avr/4.5.1/../../../../avr/lib/avr51/crtm128rfa1.o
 *(.init2)
 *(.init3)
 *(.init3)
 *(.init4)
 .init4         0x000008d8       0x1a d:/program files/atmel/avr studio 5.1/extensions/atmel/avrgcc/3.3.1.27/avrtoolchain/bin/../lib/gcc/avr/4.5.1/avr51\libgcc.a(_copy_data.o)
                0x000008d8                __do_copy_data
 .init4         0x000008f2       0x10 d:/program files/atmel/avr studio 5.1/extensions/atmel/avrgcc/3.3.1.27/avrtoolchain/bin/../lib/gcc/avr/4.5.1/avr51\libgcc.a(_clear_bss.o)
                0x000008f2                __do_clear_bss
 *(.init4)
 *(.init5)
 *(.init5)
 *(.init6)
 *(.init6)
 *(.init7)
 *(.init7)
 *(.init8)
 *(.init8)
 *(.text.main)
 .text.main     0x00000902        0xa Router_Rcb_Atmega128rfa1_8Mhz_Gcc/Obj/blink.o
                0x00000902                main
 *(.text.main)
 *(.text)
 .text          0x0000090c        0x4 d:/program files/atmel/avr studio 5.1/extensions/atmel/avrgcc/3.3.1.27/avrtoolchain/bin/../lib/gcc/avr/4.5.1/../../../../avr/lib/avr51/crtm128rfa1.o
                0x0000090c                __vector_22
                0x0000090c                __vector_28
                0x0000090c                __vector_67
                0x0000090c                __vector_32
                0x0000090c                __vector_71
                0x0000090c                __vector_34
                0x0000090c                __vector_62
                0x0000090c                __vector_12
                0x0000090c                __vector_55
                0x0000090c                __vector_69
                0x0000090c                __vector_46
                0x0000090c                __bad_interrupt
                0x0000090c                __vector_31
                0x0000090c                __vector_35
                0x0000090c                __vector_23
                0x0000090c                __vector_68
                0x0000090c                __vector_45
                0x0000090c                __vector_61
                0x0000090c                __vector_11
                0x0000090c                __vector_54
                0x0000090c                __vector_17
                0x0000090c                __vector_19
                0x0000090c                __vector_56
                0x0000090c                __vector_49
                0x0000090c                __vector_41
                0x0000090c                __vector_64
                0x0000090c                __vector_33
                0x0000090c                __vector_47
                0x0000090c                __vector_52
                0x0000090c                __vector_44
                0x0000090c                __vector_51
                0x0000090c                __vector_9
                0x0000090c                __vector_21
                0x0000090c                __vector_66
                0x0000090c                __vector_58
                0x0000090c                __vector_70
                0x0000090c                __vector_40
                0x0000090c                __vector_48
                0x0000090c                __vector_14
                0x0000090c                __vector_57
                0x0000090c                __vector_53
                0x0000090c                __vector_10
                0x0000090c                __vector_50
                0x0000090c                __vector_16
                0x0000090c                __vector_59
                0x0000090c                __vector_18
                0x0000090c                __vector_20
                0x0000090c                __vector_65
 .text          0x00000910       0xce ./../../../../BitCloud/lib/libHAL_RcbAtm128rfa1_Atmega128rfa1_8Mhz_Gcc.a(halW1.o)
                0x00000910                halResetW1
                0x00000944                halReadW1Bit
                0x00000974                halReadW1
                0x00000990                halWriteW1bit
                0x000009bc                halWriteW1
                0x000009ce                __delay_us
 .text          0x000009de       0x3a ./../../../../BitCloud/lib/libHAL_RcbAtm128rfa1_Atmega128rfa1_8Mhz_Gcc.a(halCalibration.o)
                0x000009de                halMeasurement
 .text          0x00000a18       0xe2 d:/program files/atmel/avr studio 5.1/extensions/atmel/avrgcc/3.3.1.27/avrtoolchain/bin/../lib/gcc/avr/4.5.1/avr51\libgcc.a(_ashldi3.o)
                0x00000a18                __ashldi3
 *(.text.*)
 .text.APS_DataInd
                0x00000afa        0x2 Router_Rcb_Atmega128rfa1_8Mhz_Gcc/Obj/blink.o
 .text.ZDO_WakeUpConf
                0x00000afc       0x2c Router_Rcb_Atmega128rfa1_8Mhz_Gcc/Obj/blink.o
 .text.ZDO_StartNetworkConf
                0x00000b28       0xa2 Router_Rcb_Atmega128rfa1_8Mhz_Gcc/Obj/blink.o
 .text.APS_DataInd2
                0x00000bca        0x8 Router_Rcb_Atmega128rfa1_8Mhz_Gcc/Obj/blink.o
 .text.APS_DataConf
                0x00000bd2        0x8 Router_Rcb_Atmega128rfa1_8Mhz_Gcc/Obj/blink.o
 .text.Timer_Handler
                0x00000bda       0x94 Router_Rcb_Atmega128rfa1_8Mhz_Gcc/Obj/blink.o
 .text.Timer_Handler2
                0x00000c6e       0x2c Router_Rcb_Atmega128rfa1_8Mhz_Gcc/Obj/blink.o
 .text.check_state
                0x00000c9a       0x32 Router_Rcb_Atmega128rfa1_8Mhz_Gcc/Obj/blink.o
                0x00000c9a                check_state
 .text.APL_TaskHandler
                0x00000ccc      0x198 Router_Rcb_Atmega128rfa1_8Mhz_Gcc/Obj/blink.o
                0x00000ccc                APL_TaskHandler
 .text.ZDO_MgmtNwkUpdateNotf
                0x00000e64       0xa2 Router_Rcb_Atmega128rfa1_8Mhz_Gcc/Obj/blink.o
                0x00000e64                ZDO_MgmtNwkUpdateNotf
 .text.ZDO_WakeUpInd
                0x00000f06       0x2c Router_Rcb_Atmega128rfa1_8Mhz_Gcc/Obj/blink.o
                0x00000f06                ZDO_WakeUpInd
 .text.ZDO_BindIndication
                0x00000f32        0x2 Router_Rcb_Atmega128rfa1_8Mhz_Gcc/Obj/blink.o
                0x00000f32                ZDO_BindIndication
 .text.ZDO_UnbindIndication
                0x00000f34        0x2 Router_Rcb_Atmega128rfa1_8Mhz_Gcc/Obj/blink.o
                0x00000f34                ZDO_UnbindIndication
 .text.pdsDummyCallback
                0x00000f36        0x2 Router_Rcb_Atmega128rfa1_8Mhz_Gcc/Obj/pdsWriteData.o
                0x00000f36                pdsDummyCallback
 .text.pdsAddDataForCommitment
                0x00000f38       0x70 Router_Rcb_Atmega128rfa1_8Mhz_Gcc/Obj/pdsWriteData.o
                0x00000f38                pdsAddDataForCommitment
 .text.pdsWaitMemoryFree
                0x00000fa8       0x10 Router_Rcb_Atmega128rfa1_8Mhz_Gcc/Obj/pdsWriteData.o
                0x00000fa8                pdsWaitMemoryFree
 .text.pdsRead  0x00000fb8       0x3e Router_Rcb_Atmega128rfa1_8Mhz_Gcc/Obj/pdsWriteData.o
                0x00000fb8                pdsRead
 .text.pdsWrite
                0x00000ff6       0x3e Router_Rcb_Atmega128rfa1_8Mhz_Gcc/Obj/pdsWriteData.o
                0x00000ff6                pdsWrite
 .text.pdsStartCommitment
                0x00001034      0x1e6 Router_Rcb_Atmega128rfa1_8Mhz_Gcc/Obj/pdsWriteData.o
                0x00001034                pdsStartCommitment
 .text.pdsMemMaskIsAnyBitSet
                0x0000121a       0x1c Router_Rcb_Atmega128rfa1_8Mhz_Gcc/Obj/pdsDataServer.o
 .text.pdsInitMemMask
                0x00001236       0x3c Router_Rcb_Atmega128rfa1_8Mhz_Gcc/Obj/pdsDataServer.o
 .text.pdsGetMemoryAllowed
                0x00001272       0x38 Router_Rcb_Atmega128rfa1_8Mhz_Gcc/Obj/pdsDataServer.o
 .text.PDS_Store
                0x000012aa       0x14 Router_Rcb_Atmega128rfa1_8Mhz_Gcc/Obj/pdsDataServer.o
                0x000012aa                PDS_Store
 .text.PDS_IsMemoryRestored
                0x000012be       0x54 Router_Rcb_Atmega128rfa1_8Mhz_Gcc/Obj/pdsDataServer.o
                0x000012be                PDS_IsMemoryRestored
 .text.PDS_Init
                0x00001312      0x226 Router_Rcb_Atmega128rfa1_8Mhz_Gcc/Obj/pdsInit.o
                0x00001312                PDS_Init
 .text.pdsTimerFired
                0x00001538        0xe Router_Rcb_Atmega128rfa1_8Mhz_Gcc/Obj/pdsTimer.o
 .text.pdsTimerInit
                0x00001546       0x12 Router_Rcb_Atmega128rfa1_8Mhz_Gcc/Obj/pdsTimer.o
                0x00001546                pdsTimerInit
 .text.pdsGetFileDescrRec
                0x00001558       0x66 Router_Rcb_Atmega128rfa1_8Mhz_Gcc/Obj/pdsMemAccess.o
                0x00001558                pdsGetFileDescrRec
 .text.pdsGetFileOffset
                0x000015be      0x112 Router_Rcb_Atmega128rfa1_8Mhz_Gcc/Obj/pdsMemAccess.o
                0x000015be                pdsGetFileOffset
 .text.pdsPrepareMemoryAccess
                0x000016d0       0xc0 Router_Rcb_Atmega128rfa1_8Mhz_Gcc/Obj/pdsMemAccess.o
                0x000016d0                pdsPrepareMemoryAccess
 .text.pdsExpandMemoryMask
                0x00001790      0x162 Router_Rcb_Atmega128rfa1_8Mhz_Gcc/Obj/pdsMemAccess.o
                0x00001790                pdsExpandMemoryMask
 .text.pdsPrepareAccessContext
                0x000018f2       0x40 Router_Rcb_Atmega128rfa1_8Mhz_Gcc/Obj/pdsMemAccess.o
                0x000018f2                pdsPrepareAccessContext
 .text.pdsCalculateRAMDataCrc
                0x00001932       0x1c Router_Rcb_Atmega128rfa1_8Mhz_Gcc/Obj/pdsCrcService.o
                0x00001932                pdsCalculateRAMDataCrc
 .text.pdsCheckFile
                0x0000194e       0xc8 Router_Rcb_Atmega128rfa1_8Mhz_Gcc/Obj/pdsCrcService.o
                0x0000194e                pdsCheckFile
 .text.pdsCheckStorage
                0x00001a16       0x8e Router_Rcb_Atmega128rfa1_8Mhz_Gcc/Obj/pdsCrcService.o
                0x00001a16                pdsCheckStorage
 .text.BSP_OpenLeds
                0x00001aa4        0x8 Router_Rcb_Atmega128rfa1_8Mhz_Gcc/Obj/leds.o
                0x00001aa4                BSP_OpenLeds
 .text.BSP_OnLed
                0x00001aac       0x20 Router_Rcb_Atmega128rfa1_8Mhz_Gcc/Obj/leds.o
                0x00001aac                BSP_OnLed
 .text.BSP_OffLed
                0x00001acc       0x20 Router_Rcb_Atmega128rfa1_8Mhz_Gcc/Obj/leds.o
                0x00001acc                BSP_OffLed
 .text.BSP_ToggleLed
                0x00001aec       0x1e Router_Rcb_Atmega128rfa1_8Mhz_Gcc/Obj/leds.o
                0x00001aec                BSP_ToggleLed
 .text.BSP_TaskHandler
                0x00001b0a       0x7a Router_Rcb_Atmega128rfa1_8Mhz_Gcc/Obj/bspTaskManager.o
                0x00001b0a                BSP_TaskHandler
 .text.bspButtonsHandler
                0x00001b84       0x88 Router_Rcb_Atmega128rfa1_8Mhz_Gcc/Obj/buttons.o
                0x00001b84                bspButtonsHandler
 .text.bspTemperatureSensorHandler
                0x00001c0c       0x12 Router_Rcb_Atmega128rfa1_8Mhz_Gcc/Obj/fakeBSP.o
                0x00001c0c                bspTemperatureSensorHandler
 .text.bspLightSensorHandler
                0x00001c1e       0x12 Router_Rcb_Atmega128rfa1_8Mhz_Gcc/Obj/fakeBSP.o
                0x00001c1e                bspLightSensorHandler
 .text.bspEmptyBatteryHandler
                0x00001c30       0x10 Router_Rcb_Atmega128rfa1_8Mhz_Gcc/Obj/fakeBSP.o
                0x00001c30                bspEmptyBatteryHandler
 .text.csSetToDefault
                0x00001c40       0x80 Router_Rcb_Atmega128rfa1_8Mhz_Gcc/Obj/csMem.o
                0x00001c40                csSetToDefault
 .text.csGetItem
                0x00001cc0       0x38 Router_Rcb_Atmega128rfa1_8Mhz_Gcc/Obj/configServer.o
 .text.CS_Init  0x00001cf8        0xa Router_Rcb_Atmega128rfa1_8Mhz_Gcc/Obj/configServer.o
                0x00001cf8                CS_Init
 .text.CS_ReadParameter
                0x00001d02       0x36 Router_Rcb_Atmega128rfa1_8Mhz_Gcc/Obj/configServer.o
                0x00001d02                CS_ReadParameter
 .text.CS_WriteParameter
                0x00001d38       0x34 Router_Rcb_Atmega128rfa1_8Mhz_Gcc/Obj/configServer.o
                0x00001d38                CS_WriteParameter
 .text.CS_GetMemory
                0x00001d6c       0x18 Router_Rcb_Atmega128rfa1_8Mhz_Gcc/Obj/configServer.o
                0x00001d6c                CS_GetMemory
 .text.halAppTimerHandler
                0x00001d84       0x8a ./../../../../BitCloud/lib/libHAL_RcbAtm128rfa1_Atmega128rfa1_8Mhz_Gcc.a(appTimer.o)
                0x00001d84                halAppTimerHandler
 .text.HAL_StartAppTimer
                0x00001e0e       0x58 ./../../../../BitCloud/lib/libHAL_RcbAtm128rfa1_Atmega128rfa1_8Mhz_Gcc.a(appTimer.o)
                0x00001e0e                HAL_StartAppTimer
 .text.HAL_StopAppTimer
                0x00001e66       0x4a ./../../../../BitCloud/lib/libHAL_RcbAtm128rfa1_Atmega128rfa1_8Mhz_Gcc.a(appTimer.o)
                0x00001e66                HAL_StopAppTimer
 .text.HAL_GetSystemTime
                0x00001eb0       0x4e ./../../../../BitCloud/lib/libHAL_RcbAtm128rfa1_Atmega128rfa1_8Mhz_Gcc.a(appTimer.o)
                0x00001eb0                HAL_GetSystemTime
 .text.HAL_TaskHandler
                0x00001efe      0x1b2 ./../../../../BitCloud/lib/libHAL_RcbAtm128rfa1_Atmega128rfa1_8Mhz_Gcc.a(halTaskManager.o)
                0x00001efe                HAL_TaskHandler
 .text.halUsartHwController
                0x000020b0       0x9a ./../../../../BitCloud/lib/libHAL_RcbAtm128rfa1_Atmega128rfa1_8Mhz_Gcc.a(usart.o)
 .text.halSigUsartReceptionComplete
                0x0000214a       0x54 ./../../../../BitCloud/lib/libHAL_RcbAtm128rfa1_Atmega128rfa1_8Mhz_Gcc.a(usart.o)
 .text.halSetUsartClockPinDirection
                0x0000219e       0x36 ./../../../../BitCloud/lib/libHAL_RcbAtm128rfa1_Atmega128rfa1_8Mhz_Gcc.a(usart.o)
 .text.halUsartTaskUsart0Dre
                0x000021d4        0x8 ./../../../../BitCloud/lib/libHAL_RcbAtm128rfa1_Atmega128rfa1_8Mhz_Gcc.a(usart.o)
 .text.halUsartTaskUsart0Rxc
                0x000021dc        0x8 ./../../../../BitCloud/lib/libHAL_RcbAtm128rfa1_Atmega128rfa1_8Mhz_Gcc.a(usart.o)
 .text.halUsartTaskUsart1Dre
                0x000021e4        0x8 ./../../../../BitCloud/lib/libHAL_RcbAtm128rfa1_Atmega128rfa1_8Mhz_Gcc.a(usart.o)
 .text.halUsartTaskUsart1Rxc
                0x000021ec        0x8 ./../../../../BitCloud/lib/libHAL_RcbAtm128rfa1_Atmega128rfa1_8Mhz_Gcc.a(usart.o)
 .text.halSigUsartHandler
                0x000021f4       0x6e ./../../../../BitCloud/lib/libHAL_RcbAtm128rfa1_Atmega128rfa1_8Mhz_Gcc.a(usart.o)
                0x000021f4                halSigUsartHandler
 .text.halPostUsartTask
                0x00002262       0x3c ./../../../../BitCloud/lib/libHAL_RcbAtm128rfa1_Atmega128rfa1_8Mhz_Gcc.a(usart.o)
                0x00002262                halPostUsartTask
 .text.halUsartRxBufferFiller
                0x0000229e       0xa4 ./../../../../BitCloud/lib/libHAL_RcbAtm128rfa1_Atmega128rfa1_8Mhz_Gcc.a(usart.o)
                0x0000229e                halUsartRxBufferFiller
 .text.halSigUsartTransmissionComplete
                0x00002342       0x68 ./../../../../BitCloud/lib/libHAL_RcbAtm128rfa1_Atmega128rfa1_8Mhz_Gcc.a(usart.o)
                0x00002342                halSigUsartTransmissionComplete
 .text.halUsartTaskUsart1Txc
                0x000023aa        0x8 ./../../../../BitCloud/lib/libHAL_RcbAtm128rfa1_Atmega128rfa1_8Mhz_Gcc.a(usart.o)
 .text.halUsartTaskUsart0Txc
                0x000023b2        0x8 ./../../../../BitCloud/lib/libHAL_RcbAtm128rfa1_Atmega128rfa1_8Mhz_Gcc.a(usart.o)
 .text.halIsUsartChannelCorrect
                0x000023ba       0x16 ./../../../../BitCloud/lib/libHAL_RcbAtm128rfa1_Atmega128rfa1_8Mhz_Gcc.a(usart.o)
                0x000023ba                halIsUsartChannelCorrect
 .text.HAL_WriteUsart
                0x000023d0       0xfc ./../../../../BitCloud/lib/libHAL_RcbAtm128rfa1_Atmega128rfa1_8Mhz_Gcc.a(usart.o)
                0x000023d0                HAL_WriteUsart
 .text.HAL_OpenUsart
                0x000024cc       0x92 ./../../../../BitCloud/lib/libHAL_RcbAtm128rfa1_Atmega128rfa1_8Mhz_Gcc.a(usart.o)
                0x000024cc                HAL_OpenUsart
 .text.HAL_EnableIrq
                0x0000255e       0x3c ./../../../../BitCloud/lib/libHAL_RcbAtm128rfa1_Atmega128rfa1_8Mhz_Gcc.a(irq.o)
                0x0000255e                HAL_EnableIrq
 .text.halI2cBusReset
                0x0000259a       0x36 ./../../../../BitCloud/lib/libHAL_RcbAtm128rfa1_Atmega128rfa1_8Mhz_Gcc.a(i2cPacket.o)
                0x0000259a                halI2cBusReset
 .text.halSendStartDoneI2c
                0x000025d0       0x3e ./../../../../BitCloud/lib/libHAL_RcbAtm128rfa1_Atmega128rfa1_8Mhz_Gcc.a(i2cPacket.o)
                0x000025d0                halSendStartDoneI2c
 .text.halWriteData
                0x0000260e       0x64 ./../../../../BitCloud/lib/libHAL_RcbAtm128rfa1_Atmega128rfa1_8Mhz_Gcc.a(i2cPacket.o)
                0x0000260e                halWriteData
 .text.halWriteInternalAddress
                0x00002672       0x5c ./../../../../BitCloud/lib/libHAL_RcbAtm128rfa1_Atmega128rfa1_8Mhz_Gcc.a(i2cPacket.o)
                0x00002672                halWriteInternalAddress
 .text.halWriteDoneI2c
                0x000026ce       0x3a ./../../../../BitCloud/lib/libHAL_RcbAtm128rfa1_Atmega128rfa1_8Mhz_Gcc.a(i2cPacket.o)
                0x000026ce                halWriteDoneI2c
 .text.halMasterReadWriteAddressAckI2c
                0x00002708       0x3c ./../../../../BitCloud/lib/libHAL_RcbAtm128rfa1_Atmega128rfa1_8Mhz_Gcc.a(i2cPacket.o)
                0x00002708                halMasterReadWriteAddressAckI2c
 .text.halReadDoneI2c
                0x00002744       0x58 ./../../../../BitCloud/lib/libHAL_RcbAtm128rfa1_Atmega128rfa1_8Mhz_Gcc.a(i2cPacket.o)
                0x00002744                halReadDoneI2c
 .text.halReadLastByteDoneI2c
                0x0000279c       0x58 ./../../../../BitCloud/lib/libHAL_RcbAtm128rfa1_Atmega128rfa1_8Mhz_Gcc.a(i2cPacket.o)
                0x0000279c                halReadLastByteDoneI2c
 .text.halSig2WireSerialHandler
                0x000027f4       0x46 ./../../../../BitCloud/lib/libHAL_RcbAtm128rfa1_Atmega128rfa1_8Mhz_Gcc.a(i2cPacket.o)
                0x000027f4                halSig2WireSerialHandler
 .text.HAL_ReadEeprom
                0x0000283a       0xc8 ./../../../../BitCloud/lib/libHAL_RcbAtm128rfa1_Atmega128rfa1_8Mhz_Gcc.a(eeprom.o)
                0x0000283a                HAL_ReadEeprom
 .text.HAL_WriteEeprom
                0x00002902       0xea ./../../../../BitCloud/lib/libHAL_RcbAtm128rfa1_Atmega128rfa1_8Mhz_Gcc.a(eeprom.o)
                0x00002902                HAL_WriteEeprom
 .text.HAL_IsEepromBusy
                0x000029ec        0xe ./../../../../BitCloud/lib/libHAL_RcbAtm128rfa1_Atmega128rfa1_8Mhz_Gcc.a(eeprom.o)
                0x000029ec                HAL_IsEepromBusy
 .text.halSigEepromReadyHandler
                0x000029fa       0x60 ./../../../../BitCloud/lib/libHAL_RcbAtm128rfa1_Atmega128rfa1_8Mhz_Gcc.a(eeprom.o)
                0x000029fa                halSigEepromReadyHandler
 .text.halAddTimer
                0x00002a5a      0x370 ./../../../../BitCloud/lib/libHAL_RcbAtm128rfa1_Atmega128rfa1_8Mhz_Gcc.a(timer.o)
                0x00002a5a                halAddTimer
 .text.halRemoveTimer
                0x00002dca       0x3e ./../../../../BitCloud/lib/libHAL_RcbAtm128rfa1_Atmega128rfa1_8Mhz_Gcc.a(timer.o)
                0x00002dca                halRemoveTimer
 .text.halFindPrevTimer
                0x00002e08       0x1e ./../../../../BitCloud/lib/libHAL_RcbAtm128rfa1_Atmega128rfa1_8Mhz_Gcc.a(timer.o)
                0x00002e08                halFindPrevTimer
 .text.halSigAdcHandler
                0x00002e26       0x16 ./../../../../BitCloud/lib/libHAL_RcbAtm128rfa1_Atmega128rfa1_8Mhz_Gcc.a(adc.o)
                0x00002e26                halSigAdcHandler
 .text.halClearRealSpi
                0x00002e3c        0x8 ./../../../../BitCloud/lib/libHAL_RcbAtm128rfa1_Atmega128rfa1_8Mhz_Gcc.a(spi.o)
 .text.halSpiTxByteComplete
                0x00002e44       0x32 ./../../../../BitCloud/lib/libHAL_RcbAtm128rfa1_Atmega128rfa1_8Mhz_Gcc.a(spi.o)
                0x00002e44                halSpiTxByteComplete
 .text.halSpiRxBufferFiller
                0x00002e76       0x58 ./../../../../BitCloud/lib/libHAL_RcbAtm128rfa1_Atmega128rfa1_8Mhz_Gcc.a(spi.o)
                0x00002e76                halSpiRxBufferFiller
 .text.halSpiRxByteComplete
                0x00002ece       0x24 ./../../../../BitCloud/lib/libHAL_RcbAtm128rfa1_Atmega128rfa1_8Mhz_Gcc.a(spi.o)
                0x00002ece                halSpiRxByteComplete
 .text.halClearTimeControl
                0x00002ef2       0x14 ./../../../../BitCloud/lib/libHAL_RcbAtm128rfa1_Atmega128rfa1_8Mhz_Gcc.a(halSleepTimerClock.o)
                0x00002ef2                halClearTimeControl
 .text.halWakeupFromIrq
                0x00002f06       0x28 ./../../../../BitCloud/lib/libHAL_RcbAtm128rfa1_Atmega128rfa1_8Mhz_Gcc.a(halSleepTimerClock.o)
                0x00002f06                halWakeupFromIrq
 .text.halStartSleepTimerClock
                0x00002f2e       0x48 ./../../../../BitCloud/lib/libHAL_RcbAtm128rfa1_Atmega128rfa1_8Mhz_Gcc.a(halSleepTimerClock.o)
                0x00002f2e                halStartSleepTimerClock
 .text.halStopSleepTimerClock
                0x00002f76       0x42 ./../../../../BitCloud/lib/libHAL_RcbAtm128rfa1_Atmega128rfa1_8Mhz_Gcc.a(halSleepTimerClock.o)
                0x00002f76                halStopSleepTimerClock
 .text.halSetSleepTimerInterval
                0x00002fb8       0x6a ./../../../../BitCloud/lib/libHAL_RcbAtm128rfa1_Atmega128rfa1_8Mhz_Gcc.a(halSleepTimerClock.o)
                0x00002fb8                halSetSleepTimerInterval
 .text.halGetTimeOfSleepTimer
                0x00003022       0xbc ./../../../../BitCloud/lib/libHAL_RcbAtm128rfa1_Atmega128rfa1_8Mhz_Gcc.a(halSleepTimerClock.o)
                0x00003022                halGetTimeOfSleepTimer
 .text.halSleepTimerFrequency
                0x000030de        0xa ./../../../../BitCloud/lib/libHAL_RcbAtm128rfa1_Atmega128rfa1_8Mhz_Gcc.a(halSleepTimerClock.o)
                0x000030de                halSleepTimerFrequency
 .text.halSleepSystemTimeSynchronize
                0x000030e8       0x62 ./../../../../BitCloud/lib/libHAL_RcbAtm128rfa1_Atmega128rfa1_8Mhz_Gcc.a(halSleepTimerClock.o)
                0x000030e8                halSleepSystemTimeSynchronize
 .text.__vector_13
                0x0000314a       0x92 ./../../../../BitCloud/lib/libHAL_RcbAtm128rfa1_Atmega128rfa1_8Mhz_Gcc.a(halSleepTimerClock.o)
                0x0000314a                __vector_13
 .text.__vector_15
                0x000031dc      0x10a ./../../../../BitCloud/lib/libHAL_RcbAtm128rfa1_Atmega128rfa1_8Mhz_Gcc.a(halSleepTimerClock.o)
                0x000031dc                __vector_15
 .text.halSmRequestHandler
                0x000032e6      0x15c ./../../../../BitCloud/lib/libHAL_RcbAtm128rfa1_Atmega128rfa1_8Mhz_Gcc.a(halSecurityModule.o)
                0x000032e6                halSmRequestHandler
 .text.halInitAppClock
                0x00003442       0x26 ./../../../../BitCloud/lib/libHAL_RcbAtm128rfa1_Atmega128rfa1_8Mhz_Gcc.a(halAppClock.o)
                0x00003442                halInitAppClock
 .text.halAdjustSleepInterval
                0x00003468       0x50 ./../../../../BitCloud/lib/libHAL_RcbAtm128rfa1_Atmega128rfa1_8Mhz_Gcc.a(halAppClock.o)
                0x00003468                halAdjustSleepInterval
 .text.halAppSystemTimeSynchronize
                0x000034b8       0x62 ./../../../../BitCloud/lib/libHAL_RcbAtm128rfa1_Atmega128rfa1_8Mhz_Gcc.a(halAppClock.o)
                0x000034b8                halAppSystemTimeSynchronize
 .text.halGetTimeOfAppTimer
                0x0000351a       0x16 ./../../../../BitCloud/lib/libHAL_RcbAtm128rfa1_Atmega128rfa1_8Mhz_Gcc.a(halAppClock.o)
                0x0000351a                halGetTimeOfAppTimer
 .text.__vector_42
                0x00003530       0x4c ./../../../../BitCloud/lib/libHAL_RcbAtm128rfa1_Atmega128rfa1_8Mhz_Gcc.a(halAppClock.o)
                0x00003530                __vector_42
 .text.halSetUsartConfig
                0x0000357c       0xb2 ./../../../../BitCloud/lib/libHAL_RcbAtm128rfa1_Atmega128rfa1_8Mhz_Gcc.a(halUsart.o)
                0x0000357c                halSetUsartConfig
 .text.__vector_26
                0x0000362e       0x5c ./../../../../BitCloud/lib/libHAL_RcbAtm128rfa1_Atmega128rfa1_8Mhz_Gcc.a(halUsart.o)
                0x0000362e                __vector_26
 .text.__vector_27
                0x0000368a       0x5c ./../../../../BitCloud/lib/libHAL_RcbAtm128rfa1_Atmega128rfa1_8Mhz_Gcc.a(halUsart.o)
                0x0000368a                __vector_27
 .text.__vector_25
                0x000036e6       0x64 ./../../../../BitCloud/lib/libHAL_RcbAtm128rfa1_Atmega128rfa1_8Mhz_Gcc.a(halUsart.o)
                0x000036e6                __vector_25
 .text.__vector_37
                0x0000374a       0x5c ./../../../../BitCloud/lib/libHAL_RcbAtm128rfa1_Atmega128rfa1_8Mhz_Gcc.a(halUsart.o)
                0x0000374a                __vector_37
 .text.__vector_38
                0x000037a6       0x5c ./../../../../BitCloud/lib/libHAL_RcbAtm128rfa1_Atmega128rfa1_8Mhz_Gcc.a(halUsart.o)
                0x000037a6                __vector_38
 .text.__vector_36
                0x00003802       0x64 ./../../../../BitCloud/lib/libHAL_RcbAtm128rfa1_Atmega128rfa1_8Mhz_Gcc.a(halUsart.o)
                0x00003802                __vector_36
 .text.__vector_1
                0x00003866       0x5a ./../../../../BitCloud/lib/libHAL_RcbAtm128rfa1_Atmega128rfa1_8Mhz_Gcc.a(halIrq.o)
                0x00003866                __vector_1
 .text.__vector_2
                0x000038c0       0x5a ./../../../../BitCloud/lib/libHAL_RcbAtm128rfa1_Atmega128rfa1_8Mhz_Gcc.a(halIrq.o)
                0x000038c0                __vector_2
 .text.__vector_3
                0x0000391a       0x5a ./../../../../BitCloud/lib/libHAL_RcbAtm128rfa1_Atmega128rfa1_8Mhz_Gcc.a(halIrq.o)
                0x0000391a                __vector_3
 .text.__vector_4
                0x00003974       0x5a ./../../../../BitCloud/lib/libHAL_RcbAtm128rfa1_Atmega128rfa1_8Mhz_Gcc.a(halIrq.o)
                0x00003974                __vector_4
 .text.__vector_5
                0x000039ce       0x5a ./../../../../BitCloud/lib/libHAL_RcbAtm128rfa1_Atmega128rfa1_8Mhz_Gcc.a(halIrq.o)
                0x000039ce                __vector_5
 .text.__vector_6
                0x00003a28       0x5a ./../../../../BitCloud/lib/libHAL_RcbAtm128rfa1_Atmega128rfa1_8Mhz_Gcc.a(halIrq.o)
                0x00003a28                __vector_6
 .text.__vector_7
                0x00003a82       0x5a ./../../../../BitCloud/lib/libHAL_RcbAtm128rfa1_Atmega128rfa1_8Mhz_Gcc.a(halIrq.o)
                0x00003a82                __vector_7
 .text.__vector_8
                0x00003adc       0x5a ./../../../../BitCloud/lib/libHAL_RcbAtm128rfa1_Atmega128rfa1_8Mhz_Gcc.a(halIrq.o)
                0x00003adc                __vector_8
 .text.__vector_39
                0x00003b36       0xda ./../../../../BitCloud/lib/libHAL_RcbAtm128rfa1_Atmega128rfa1_8Mhz_Gcc.a(halTwi.o)
                0x00003b36                __vector_39
 .text.halEepromWrite
                0x00003c10       0x1c ./../../../../BitCloud/lib/libHAL_RcbAtm128rfa1_Atmega128rfa1_8Mhz_Gcc.a(halEeprom.o)
                0x00003c10                halEepromWrite
 .text.__vector_30
                0x00003c2c       0x44 ./../../../../BitCloud/lib/libHAL_RcbAtm128rfa1_Atmega128rfa1_8Mhz_Gcc.a(halEeprom.o)
                0x00003c2c                __vector_30
 .text.halPowerOn
                0x00003c70       0x3e ./../../../../BitCloud/lib/libHAL_RcbAtm128rfa1_Atmega128rfa1_8Mhz_Gcc.a(halSleep.o)
                0x00003c70                halPowerOn
 .text.halPowerOff
                0x00003cae       0x9a ./../../../../BitCloud/lib/libHAL_RcbAtm128rfa1_Atmega128rfa1_8Mhz_Gcc.a(halSleep.o)
                0x00003cae                halPowerOff
 .text.HAL_Sleep
                0x00003d48       0x40 ./../../../../BitCloud/lib/libHAL_RcbAtm128rfa1_Atmega128rfa1_8Mhz_Gcc.a(halSleep.o)
                0x00003d48                HAL_Sleep
 .text.halWakeupHandler
                0x00003d88       0x6a ./../../../../BitCloud/lib/libHAL_RcbAtm128rfa1_Atmega128rfa1_8Mhz_Gcc.a(halSleep.o)
                0x00003d88                halWakeupHandler
 .text.__vector_29
                0x00003df2       0xcc ./../../../../BitCloud/lib/libHAL_RcbAtm128rfa1_Atmega128rfa1_8Mhz_Gcc.a(halAdc.o)
                0x00003df2                __vector_29
 .text.__vector_24
                0x00003ebe       0x8c ./../../../../BitCloud/lib/libHAL_RcbAtm128rfa1_Atmega128rfa1_8Mhz_Gcc.a(halSpi.o)
                0x00003ebe                __vector_24
 .text.halCalibrateInternalRc
                0x00003f4a       0xda ./../../../../BitCloud/lib/libHAL_RcbAtm128rfa1_Atmega128rfa1_8Mhz_Gcc.a(calibration.o)
                0x00003f4a                halCalibrateInternalRc
 .text.HAL_CalibrateMainClock
                0x00004024        0xe ./../../../../BitCloud/lib/libHAL_RcbAtm128rfa1_Atmega128rfa1_8Mhz_Gcc.a(calibration.o)
                0x00004024                HAL_CalibrateMainClock
 .text.halStartingCalibrate
                0x00004032       0x1c ./../../../../BitCloud/lib/libHAL_RcbAtm128rfa1_Atmega128rfa1_8Mhz_Gcc.a(calibration.o)
                0x00004032                halStartingCalibrate
 .text.HAL_StartSleepTimer
                0x0000404e       0x72 ./../../../../BitCloud/lib/libHAL_RcbAtm128rfa1_Atmega128rfa1_8Mhz_Gcc.a(sleepTimer.o)
                0x0000404e                HAL_StartSleepTimer
 .text.halAsyncTimerHandler
                0x000040c0       0x52 ./../../../../BitCloud/lib/libHAL_RcbAtm128rfa1_Atmega128rfa1_8Mhz_Gcc.a(sleepTimer.o)
                0x000040c0                halAsyncTimerHandler
 .text.HAL_StartSystemSleep
                0x00004112       0x7a ./../../../../BitCloud/lib/libHAL_RcbAtm128rfa1_Atmega128rfa1_8Mhz_Gcc.a(sleep.o)
                0x00004112                HAL_StartSystemSleep
 .text.halInitFreq
                0x0000418c       0x6c ./../../../../BitCloud/lib/libHAL_RcbAtm128rfa1_Atmega128rfa1_8Mhz_Gcc.a(halClkCtrl.o)
                0x0000418c                halInitFreq
 .text.halGetClockSource
                0x000041f8        0x6 ./../../../../BitCloud/lib/libHAL_RcbAtm128rfa1_Atmega128rfa1_8Mhz_Gcc.a(halClkCtrl.o)
                0x000041f8                halGetClockSource
 .text.apsGetApsCounter
                0x000041fe        0xe ./../../../../BitCloud/lib/libBc_Router_Atmega128rfa1_Atmega128rfa1_Gcc.a(aps.o)
 .text.apsPrepareFragmentedTransmission
                0x0000420c       0x70 ./../../../../BitCloud/lib/libBc_Router_Atmega128rfa1_Atmega128rfa1_Gcc.a(aps.o)
 .text.apsIsFragmentationDataReq
                0x0000427c       0x22 ./../../../../BitCloud/lib/libBc_Router_Atmega128rfa1_Atmega128rfa1_Gcc.a(aps.o)
 .text.apsGetBuffer
                0x0000429e       0xd6 ./../../../../BitCloud/lib/libBc_Router_Atmega128rfa1_Atmega128rfa1_Gcc.a(aps.o)
 .text.apsFreeBuffer
                0x00004374       0x8e ./../../../../BitCloud/lib/libBc_Router_Atmega128rfa1_Atmega128rfa1_Gcc.a(aps.o)
 .text.apsPostTask
                0x00004402       0x32 ./../../../../BitCloud/lib/libBc_Router_Atmega128rfa1_Atmega128rfa1_Gcc.a(aps.o)
 .text.apsMakeApsDataConf
                0x00004434       0x5a ./../../../../BitCloud/lib/libBc_Router_Atmega128rfa1_Atmega128rfa1_Gcc.a(aps.o)
 .text.apsAckForFragmentedReceiveConfirmHandler
                0x0000448e       0x9e ./../../../../BitCloud/lib/libBc_Router_Atmega128rfa1_Atmega128rfa1_Gcc.a(aps.o)
 .text.apsStopConf
                0x0000452c       0x4a ./../../../../BitCloud/lib/libBc_Router_Atmega128rfa1_Atmega128rfa1_Gcc.a(aps.o)
 .text.apsSendNwkDataReq
                0x00004576       0x10 ./../../../../BitCloud/lib/libBc_Router_Atmega128rfa1_Atmega128rfa1_Gcc.a(aps.o)
 .text.apsProcessShortAddrModeDataReq
                0x00004586      0x296 ./../../../../BitCloud/lib/libBc_Router_Atmega128rfa1_Atmega128rfa1_Gcc.a(aps.o)
 .text.apsSendNextBlock
                0x0000481c       0x14 ./../../../../BitCloud/lib/libBc_Router_Atmega128rfa1_Atmega128rfa1_Gcc.a(aps.o)
 .text.apsSendAckForFragmentedReceive
                0x00004830       0xce ./../../../../BitCloud/lib/libBc_Router_Atmega128rfa1_Atmega128rfa1_Gcc.a(aps.o)
 .text.apsDataManagerNwkDataConf
                0x000048fe       0x1c ./../../../../BitCloud/lib/libBc_Router_Atmega128rfa1_Atmega128rfa1_Gcc.a(aps.o)
 .text.apsProcessEvent
                0x0000491a       0x26 ./../../../../BitCloud/lib/libBc_Router_Atmega128rfa1_Atmega128rfa1_Gcc.a(aps.o)
 .text.apsProcessGroupAddrModeDataReq
                0x00004940      0x190 ./../../../../BitCloud/lib/libBc_Router_Atmega128rfa1_Atmega128rfa1_Gcc.a(aps.o)
 .text.apsCalculateApsAckTimeout
                0x00004ad0       0x56 ./../../../../BitCloud/lib/libBc_Router_Atmega128rfa1_Atmega128rfa1_Gcc.a(aps.o)
 .text.apsGroupNwkDataConf
                0x00004b26       0x4a ./../../../../BitCloud/lib/libBc_Router_Atmega128rfa1_Atmega128rfa1_Gcc.a(aps.o)
 .text.apsNextBind
                0x00004b70       0xb0 ./../../../../BitCloud/lib/libBc_Router_Atmega128rfa1_Atmega128rfa1_Gcc.a(aps.o)
 .text.apsSendToNextBoundDevice
                0x00004c20       0x9c ./../../../../BitCloud/lib/libBc_Router_Atmega128rfa1_Atmega128rfa1_Gcc.a(aps.o)
 .text.apsProcessIndirectDataReq
                0x00004cbc       0x2c ./../../../../BitCloud/lib/libBc_Router_Atmega128rfa1_Atmega128rfa1_Gcc.a(aps.o)
 .text.apsFindBindingEntry
                0x00004ce8       0xc6 ./../../../../BitCloud/lib/libBc_Router_Atmega128rfa1_Atmega128rfa1_Gcc.a(aps.o)
 .text.SYS_GetRandomNumber
                0x00004dae       0x2a ./../../../../BitCloud/lib/libBc_Router_Atmega128rfa1_Atmega128rfa1_Gcc.a(aps.o)
 .text.apsResetMemoryManager
                0x00004dd8       0xfa ./../../../../BitCloud/lib/libBc_Router_Atmega128rfa1_Atmega128rfa1_Gcc.a(aps.o)
 .text.apsAckOnTimerFired
                0x00004ed2       0xf8 ./../../../../BitCloud/lib/libBc_Router_Atmega128rfa1_Atmega128rfa1_Gcc.a(aps.o)
 .text.apsHandleTransmittedData.clone.10
                0x00004fca       0x6e ./../../../../BitCloud/lib/libBc_Router_Atmega128rfa1_Atmega128rfa1_Gcc.a(aps.o)
 .text.APS_BindReq
                0x00005038       0xa6 ./../../../../BitCloud/lib/libBc_Router_Atmega128rfa1_Atmega128rfa1_Gcc.a(aps.o)
                0x00005038                APS_BindReq
 .text.APS_UnbindReq
                0x000050de       0x4a ./../../../../BitCloud/lib/libBc_Router_Atmega128rfa1_Atmega128rfa1_Gcc.a(aps.o)
                0x000050de                APS_UnbindReq
 .text.APS_DataReq
                0x00005128       0x12 ./../../../../BitCloud/lib/libBc_Router_Atmega128rfa1_Atmega128rfa1_Gcc.a(aps.o)
                0x00005128                APS_DataReq
 .text.NWK_DataInd
                0x0000513a       0x12 ./../../../../BitCloud/lib/libBc_Router_Atmega128rfa1_Atmega128rfa1_Gcc.a(aps.o)
                0x0000513a                NWK_DataInd
 .text.APS_CalculateTimes
                0x0000514c      0x1b2 ./../../../../BitCloud/lib/libBc_Router_Atmega128rfa1_Atmega128rfa1_Gcc.a(aps.o)
                0x0000514c                APS_CalculateTimes
 .text.apsResetDataManager
                0x000052fe      0x110 ./../../../../BitCloud/lib/libBc_Router_Atmega128rfa1_Atmega128rfa1_Gcc.a(aps.o)
 .text.apsNwkResetConf
                0x0000540e      0x196 ./../../../../BitCloud/lib/libBc_Router_Atmega128rfa1_Atmega128rfa1_Gcc.a(aps.o)
 .text.apsStateMachineTaskHandler
                0x000055a4       0xee ./../../../../BitCloud/lib/libBc_Router_Atmega128rfa1_Atmega128rfa1_Gcc.a(aps.o)
 .text.APS_IsProfileIdMatched
                0x00005692       0x22 ./../../../../BitCloud/lib/libBc_Router_Atmega128rfa1_Atmega128rfa1_Gcc.a(aps.o)
                0x00005692                APS_IsProfileIdMatched
 .text.APS_NextEndpoint
                0x000056b4       0x16 ./../../../../BitCloud/lib/libBc_Router_Atmega128rfa1_Atmega128rfa1_Gcc.a(aps.o)
                0x000056b4                APS_NextEndpoint
 .text.apsFindEndpoint
                0x000056ca       0x26 ./../../../../BitCloud/lib/libBc_Router_Atmega128rfa1_Atmega128rfa1_Gcc.a(aps.o)
 .text.APS_RegisterEndpointReq
                0x000056f0       0x48 ./../../../../BitCloud/lib/libBc_Router_Atmega128rfa1_Atmega128rfa1_Gcc.a(aps.o)
                0x000056f0                APS_RegisterEndpointReq
 .text.apsGroupIndication
                0x00005738       0x8a ./../../../../BitCloud/lib/libBc_Router_Atmega128rfa1_Atmega128rfa1_Gcc.a(aps.o)
 .text.apsUnicastDataInd
                0x000057c2      0x2a2 ./../../../../BitCloud/lib/libBc_Router_Atmega128rfa1_Atmega128rfa1_Gcc.a(aps.o)
 .text.apsApduUnicastHandler.clone.8
                0x00005a64      0x5dc ./../../../../BitCloud/lib/libBc_Router_Atmega128rfa1_Atmega128rfa1_Gcc.a(aps.o)
 .text.apsDataTaskHandler
                0x00006040      0xb20 ./../../../../BitCloud/lib/libBc_Router_Atmega128rfa1_Atmega128rfa1_Gcc.a(aps.o)
 .text.APS_Init
                0x00006b60       0x2e ./../../../../BitCloud/lib/libBc_Router_Atmega128rfa1_Atmega128rfa1_Gcc.a(aps.o)
                0x00006b60                APS_Init
 .text.APS_ResetReq
                0x00006b8e        0xc ./../../../../BitCloud/lib/libBc_Router_Atmega128rfa1_Atmega128rfa1_Gcc.a(aps.o)
                0x00006b8e                APS_ResetReq
 .text.APS_StartReq
                0x00006b9a        0xc ./../../../../BitCloud/lib/libBc_Router_Atmega128rfa1_Atmega128rfa1_Gcc.a(aps.o)
                0x00006b9a                APS_StartReq
 .text.APS_StopReq
                0x00006ba6        0xc ./../../../../BitCloud/lib/libBc_Router_Atmega128rfa1_Atmega128rfa1_Gcc.a(aps.o)
                0x00006ba6                APS_StopReq
 .text.APS_IsActiveTransaction
                0x00006bb2       0x54 ./../../../../BitCloud/lib/libBc_Router_Atmega128rfa1_Atmega128rfa1_Gcc.a(aps.o)
                0x00006bb2                APS_IsActiveTransaction
 .text.APS_TaskHandler
                0x00006c06       0x9c ./../../../../BitCloud/lib/libBc_Router_Atmega128rfa1_Atmega128rfa1_Gcc.a(aps.o)
                0x00006c06                APS_TaskHandler
 .text.getSymbolsPerOctet
                0x00006ca2       0x3c ./../../../../BitCloud/lib/libBc_Router_Atmega128rfa1_Atmega128rfa1_Gcc.a(macenvPib.o)
 .text.calculateMaxFrameDuration
                0x00006cde       0x22 ./../../../../BitCloud/lib/libBc_Router_Atmega128rfa1_Atmega128rfa1_Gcc.a(macenvPib.o)
 .text.storeTransmitPower
                0x00006d00       0x44 ./../../../../BitCloud/lib/libBc_Router_Atmega128rfa1_Atmega128rfa1_Gcc.a(macenvPib.o)
 .text.SYS_GetRandomNumber
                0x00006d44       0x2a ./../../../../BitCloud/lib/libBc_Router_Atmega128rfa1_Atmega128rfa1_Gcc.a(macenvPib.o)
 .text.macenvGetPhySymbolDuration
                0x00006d6e       0x4a ./../../../../BitCloud/lib/libBc_Router_Atmega128rfa1_Atmega128rfa1_Gcc.a(macenvPib.o)
                0x00006d6e                macenvGetPhySymbolDuration
 .text.updateMaxFrameTxTime
                0x00006db8       0x3a ./../../../../BitCloud/lib/libBc_Router_Atmega128rfa1_Atmega128rfa1_Gcc.a(macenvPib.o)
 .text.macenvResetPib
                0x00006df2       0xfa ./../../../../BitCloud/lib/libBc_Router_Atmega128rfa1_Atmega128rfa1_Gcc.a(macenvPib.o)
                0x00006df2                macenvResetPib
 .text.macenvConvertTransPersistTimeFromUnitsToMs
                0x00006eec       0x48 ./../../../../BitCloud/lib/libBc_Router_Atmega128rfa1_Atmega128rfa1_Gcc.a(macenvPib.o)
                0x00006eec                macenvConvertTransPersistTimeFromUnitsToMs
 .text.macenvSetPibAttr
                0x00006f34      0x2a0 ./../../../../BitCloud/lib/libBc_Router_Atmega128rfa1_Atmega128rfa1_Gcc.a(macenvPib.o)
                0x00006f34                macenvSetPibAttr
 .text.macenvCalculateMaxFrameTotalWaitTimeInMs
                0x000071d4      0x128 ./../../../../BitCloud/lib/libBc_Router_Atmega128rfa1_Atmega128rfa1_Gcc.a(macenvPib.o)
                0x000071d4                macenvCalculateMaxFrameTotalWaitTimeInMs
 .text.macenvCalculateResponceWaitTimeInMs
                0x000072fc       0x42 ./../../../../BitCloud/lib/libBc_Router_Atmega128rfa1_Atmega128rfa1_Gcc.a(macenvPib.o)
                0x000072fc                macenvCalculateResponceWaitTimeInMs
 .text.macenvGetPibAttr
                0x0000733e      0x216 ./../../../../BitCloud/lib/libBc_Router_Atmega128rfa1_Atmega128rfa1_Gcc.a(macenvPib.o)
                0x0000733e                macenvGetPibAttr
 .text.MAC_GetExtAddr
                0x00007554        0x6 ./../../../../BitCloud/lib/libBc_Router_Atmega128rfa1_Atmega128rfa1_Gcc.a(macenvPib.o)
                0x00007554                MAC_GetExtAddr
 .text.MAC_SetExtAddr
                0x0000755a       0x34 ./../../../../BitCloud/lib/libBc_Router_Atmega128rfa1_Atmega128rfa1_Gcc.a(macenvPib.o)
                0x0000755a                MAC_SetExtAddr
 .text.MAC_IsOwnExtAddr
                0x0000758e       0x1c ./../../../../BitCloud/lib/libBc_Router_Atmega128rfa1_Atmega128rfa1_Gcc.a(macenvPib.o)
                0x0000758e                MAC_IsOwnExtAddr
 .text.MAC_GetOctetsTransmissionTimeInMs
                0x000075aa       0x5e ./../../../../BitCloud/lib/libBc_Router_Atmega128rfa1_Atmega128rfa1_Gcc.a(macenvPib.o)
                0x000075aa                MAC_GetOctetsTransmissionTimeInMs
 .text.nwkBroadcastForMe
                0x00007608       0x60 ./../../../../BitCloud/lib/libBc_Router_Atmega128rfa1_Atmega128rfa1_Gcc.a(nwk.o)
 .text.nwkAddressConflictIsIdle
                0x00007668        0xe ./../../../../BitCloud/lib/libBc_Router_Atmega128rfa1_Atmega128rfa1_Gcc.a(nwk.o)
 .text.nwkFindAddressMapEntryByShortAddr
                0x00007676       0x30 ./../../../../BitCloud/lib/libBc_Router_Atmega128rfa1_Atmega128rfa1_Gcc.a(nwk.o)
 .text.nwkDataReqIsIdle
                0x000076a6        0xe ./../../../../BitCloud/lib/libBc_Router_Atmega128rfa1_Atmega128rfa1_Gcc.a(nwk.o)
 .text.nwkDiscoveryIsIdle
                0x000076b4        0xe ./../../../../BitCloud/lib/libBc_Router_Atmega128rfa1_Atmega128rfa1_Gcc.a(nwk.o)
 .text.nwkEDScanIsIdle
                0x000076c2        0xe ./../../../../BitCloud/lib/libBc_Router_Atmega128rfa1_Atmega128rfa1_Gcc.a(nwk.o)
 .text.nwkSetDepth
                0x000076d0        0xc ./../../../../BitCloud/lib/libBc_Router_Atmega128rfa1_Atmega128rfa1_Gcc.a(nwk.o)
 .text.nwkJoinIndIsIdle
                0x000076dc       0x30 ./../../../../BitCloud/lib/libBc_Router_Atmega128rfa1_Atmega128rfa1_Gcc.a(nwk.o)
 .text.nwkJoinReqIsIdle
                0x0000770c        0xe ./../../../../BitCloud/lib/libBc_Router_Atmega128rfa1_Atmega128rfa1_Gcc.a(nwk.o)
 .text.nwkLeaveReqIsIdle
                0x0000771a        0xe ./../../../../BitCloud/lib/libBc_Router_Atmega128rfa1_Atmega128rfa1_Gcc.a(nwk.o)
 .text.nwkLinkStatusIsIdle
                0x00007728        0xe ./../../../../BitCloud/lib/libBc_Router_Atmega128rfa1_Atmega128rfa1_Gcc.a(nwk.o)
 .text.nwkLoopbackIsIdle
                0x00007736        0xe ./../../../../BitCloud/lib/libBc_Router_Atmega128rfa1_Atmega128rfa1_Gcc.a(nwk.o)
 .text.nwkGetOutgoingCost
                0x00007744       0x44 ./../../../../BitCloud/lib/libBc_Router_Atmega128rfa1_Atmega128rfa1_Gcc.a(nwk.o)
 .text.nwkClearNeighborTable
                0x00007788       0x72 ./../../../../BitCloud/lib/libBc_Router_Atmega128rfa1_Atmega128rfa1_Gcc.a(nwk.o)
 .text.nwkGetEdCapacity
                0x000077fa       0x1c ./../../../../BitCloud/lib/libBc_Router_Atmega128rfa1_Atmega128rfa1_Gcc.a(nwk.o)
 .text.nwkGetRouterCapacity
                0x00007816       0x1c ./../../../../BitCloud/lib/libBc_Router_Atmega128rfa1_Atmega128rfa1_Gcc.a(nwk.o)
 .text.nwkIsJoiningForbidden
                0x00007832       0x3e ./../../../../BitCloud/lib/libBc_Router_Atmega128rfa1_Atmega128rfa1_Gcc.a(nwk.o)
 .text.nwkUpdateCapacityBits
                0x00007870       0x56 ./../../../../BitCloud/lib/libBc_Router_Atmega128rfa1_Atmega128rfa1_Gcc.a(nwk.o)
 .text.nwkUpdateCapacityBitsInBeacon
                0x000078c6       0x3c ./../../../../BitCloud/lib/libBc_Router_Atmega128rfa1_Atmega128rfa1_Gcc.a(nwk.o)
 .text.nwkUpdateBeaconPayload
                0x00007902       0x94 ./../../../../BitCloud/lib/libBc_Router_Atmega128rfa1_Atmega128rfa1_Gcc.a(nwk.o)
 .text.nwkFreeNeighbor
                0x00007996       0x26 ./../../../../BitCloud/lib/libBc_Router_Atmega128rfa1_Atmega128rfa1_Gcc.a(nwk.o)
 .text.nwkCostFromLqi
                0x000079bc       0x3a ./../../../../BitCloud/lib/libBc_Router_Atmega128rfa1_Atmega128rfa1_Gcc.a(nwk.o)
 .text.nwkInitLqiAndCostOfNeighbor
                0x000079f6       0x70 ./../../../../BitCloud/lib/libBc_Router_Atmega128rfa1_Atmega128rfa1_Gcc.a(nwk.o)
 .text.nwkUpdateLqiAndCostOfNeighbor
                0x00007a66       0x88 ./../../../../BitCloud/lib/libBc_Router_Atmega128rfa1_Atmega128rfa1_Gcc.a(nwk.o)
 .text.nwkFindPassiveAck
                0x00007aee       0x2a ./../../../../BitCloud/lib/libBc_Router_Atmega128rfa1_Atmega128rfa1_Gcc.a(nwk.o)
 .text.nwkNewPassiveAck
                0x00007b18       0xfa ./../../../../BitCloud/lib/libBc_Router_Atmega128rfa1_Atmega128rfa1_Gcc.a(nwk.o)
 .text.nwkFreePassiveAck
                0x00007c12       0x2e ./../../../../BitCloud/lib/libBc_Router_Atmega128rfa1_Atmega128rfa1_Gcc.a(nwk.o)
 .text.nwkPermitJoiningIsIdle
                0x00007c40       0x1c ./../../../../BitCloud/lib/libBc_Router_Atmega128rfa1_Atmega128rfa1_Gcc.a(nwk.o)
 .text.nwkResetIsIdle
                0x00007c5c        0xe ./../../../../BitCloud/lib/libBc_Router_Atmega128rfa1_Atmega128rfa1_Gcc.a(nwk.o)
 .text.nwkRouteDiscoveryIsIdle
                0x00007c6a       0x14 ./../../../../BitCloud/lib/libBc_Router_Atmega128rfa1_Atmega128rfa1_Gcc.a(nwk.o)
 .text.nwkFindRouteDiscoveryEntry
                0x00007c7e       0x36 ./../../../../BitCloud/lib/libBc_Router_Atmega128rfa1_Atmega128rfa1_Gcc.a(nwk.o)
 .text.nwkFreeRouteDiscoveryEntry
                0x00007cb4       0x3a ./../../../../BitCloud/lib/libBc_Router_Atmega128rfa1_Atmega128rfa1_Gcc.a(nwk.o)
 .text.nwkConfirmRouteRequestTx
                0x00007cee       0x60 ./../../../../BitCloud/lib/libBc_Router_Atmega128rfa1_Atmega128rfa1_Gcc.a(nwk.o)
 .text.nwkRouteDiscoveryTableIsIdle
                0x00007d4e        0xc ./../../../../BitCloud/lib/libBc_Router_Atmega128rfa1_Atmega128rfa1_Gcc.a(nwk.o)
 .text.nwkFindRoutingEntry
                0x00007d5a       0x40 ./../../../../BitCloud/lib/libBc_Router_Atmega128rfa1_Atmega128rfa1_Gcc.a(nwk.o)
 .text.nwkFreeRoutingEntry
                0x00007d9a       0x12 ./../../../../BitCloud/lib/libBc_Router_Atmega128rfa1_Atmega128rfa1_Gcc.a(nwk.o)
 .text.nwkDeleteRoute
                0x00007dac       0x48 ./../../../../BitCloud/lib/libBc_Router_Atmega128rfa1_Atmega128rfa1_Gcc.a(nwk.o)
 .text.nwkUpdateNextHop
                0x00007df4       0xc8 ./../../../../BitCloud/lib/libBc_Router_Atmega128rfa1_Atmega128rfa1_Gcc.a(nwk.o)
 .text.nwkParseRxHeader
                0x00007ebc       0xb0 ./../../../../BitCloud/lib/libBc_Router_Atmega128rfa1_Atmega128rfa1_Gcc.a(nwk.o)
 .text.nwkStartRouterIsIdle
                0x00007f6c        0xe ./../../../../BitCloud/lib/libBc_Router_Atmega128rfa1_Atmega128rfa1_Gcc.a(nwk.o)
 .text.nwkSendRouteErrorConf
                0x00007f7a        0x6 ./../../../../BitCloud/lib/libBc_Router_Atmega128rfa1_Atmega128rfa1_Gcc.a(nwk.o)
 .text.nwkPostTask
                0x00007f80       0x58 ./../../../../BitCloud/lib/libBc_Router_Atmega128rfa1_Atmega128rfa1_Gcc.a(nwk.o)
 .text.nwkEDScanMacEDScanConf
                0x00007fd8       0x3e ./../../../../BitCloud/lib/libBc_Router_Atmega128rfa1_Atmega128rfa1_Gcc.a(nwk.o)
 .text.nwkDiscoveryMacActiveScanConf
                0x00008016       0x28 ./../../../../BitCloud/lib/libBc_Router_Atmega128rfa1_Atmega128rfa1_Gcc.a(nwk.o)
 .text.nwkPermitJoiningMacSetConf
                0x0000803e       0x34 ./../../../../BitCloud/lib/libBc_Router_Atmega128rfa1_Atmega128rfa1_Gcc.a(nwk.o)
 .text.nwkStartRouterMacStartConf
                0x00008072       0x1c ./../../../../BitCloud/lib/libBc_Router_Atmega128rfa1_Atmega128rfa1_Gcc.a(nwk.o)
 .text.nwkStatusConf
                0x0000808e        0xe ./../../../../BitCloud/lib/libBc_Router_Atmega128rfa1_Atmega128rfa1_Gcc.a(nwk.o)
 .text.nwkResetMacRxEnableConf
                0x0000809c       0x1c ./../../../../BitCloud/lib/libBc_Router_Atmega128rfa1_Atmega128rfa1_Gcc.a(nwk.o)
 .text.nwkSendRouteDiscoveryReply
                0x000080b8       0x1e ./../../../../BitCloud/lib/libBc_Router_Atmega128rfa1_Atmega128rfa1_Gcc.a(nwk.o)
 .text.nwkTxDelayIsIdle
                0x000080d6       0x14 ./../../../../BitCloud/lib/libBc_Router_Atmega128rfa1_Atmega128rfa1_Gcc.a(nwk.o)
 .text.nwkReloadNibFromConfigServer
                0x000080ea       0x6c ./../../../../BitCloud/lib/libBc_Router_Atmega128rfa1_Atmega128rfa1_Gcc.a(nwk.o)
 .text.nwkSetLifeTimeOfNeighbor
                0x00008156       0xe8 ./../../../../BitCloud/lib/libBc_Router_Atmega128rfa1_Atmega128rfa1_Gcc.a(nwk.o)
 .text.nwkUpdateOutgoingCostAndLifeTime
                0x0000823e       0x4a ./../../../../BitCloud/lib/libBc_Router_Atmega128rfa1_Atmega128rfa1_Gcc.a(nwk.o)
 .text.nwkAllocPacket
                0x00008288       0xd2 ./../../../../BitCloud/lib/libBc_Router_Atmega128rfa1_Atmega128rfa1_Gcc.a(nwk.o)
 .text.nwkAllocInputPacket
                0x0000835a       0x2c ./../../../../BitCloud/lib/libBc_Router_Atmega128rfa1_Atmega128rfa1_Gcc.a(nwk.o)
 .text.nwkLoopbackTaskHandler
                0x00008386       0xe2 ./../../../../BitCloud/lib/libBc_Router_Atmega128rfa1_Atmega128rfa1_Gcc.a(nwk.o)
 .text.nwkEDScanTaskHandler
                0x00008468       0xac ./../../../../BitCloud/lib/libBc_Router_Atmega128rfa1_Atmega128rfa1_Gcc.a(nwk.o)
 .text.nwkDiscoveryTaskHandler
                0x00008514       0xba ./../../../../BitCloud/lib/libBc_Router_Atmega128rfa1_Atmega128rfa1_Gcc.a(nwk.o)
 .text.nwkTxReq
                0x000085ce       0x12 ./../../../../BitCloud/lib/libBc_Router_Atmega128rfa1_Atmega128rfa1_Gcc.a(nwk.o)
 .text.nwkDataConf
                0x000085e0       0x4a ./../../../../BitCloud/lib/libBc_Router_Atmega128rfa1_Atmega128rfa1_Gcc.a(nwk.o)
 .text.nwkConfirmDataTx
                0x0000862a       0x3a ./../../../../BitCloud/lib/libBc_Router_Atmega128rfa1_Atmega128rfa1_Gcc.a(nwk.o)
 .text.findFreeJoinIndObjFor
                0x00008664       0xd6 ./../../../../BitCloud/lib/libBc_Router_Atmega128rfa1_Atmega128rfa1_Gcc.a(nwk.o)
 .text.nwkFindAddressMapEntryByExtAddr
                0x0000873a       0x52 ./../../../../BitCloud/lib/libBc_Router_Atmega128rfa1_Atmega128rfa1_Gcc.a(nwk.o)
 .text.nwkAddToAddressMap
                0x0000878c       0xc2 ./../../../../BitCloud/lib/libBc_Router_Atmega128rfa1_Atmega128rfa1_Gcc.a(nwk.o)
 .text.nwkStopLinkStatusTimer
                0x0000884e        0xe ./../../../../BitCloud/lib/libBc_Router_Atmega128rfa1_Atmega128rfa1_Gcc.a(nwk.o)
 .text.nwkRouteDiscoveryTableTimerFired
                0x0000885c       0x56 ./../../../../BitCloud/lib/libBc_Router_Atmega128rfa1_Atmega128rfa1_Gcc.a(nwk.o)
 .text.nwkStopAgeTimerOfNeighborTable
                0x000088b2        0xa ./../../../../BitCloud/lib/libBc_Router_Atmega128rfa1_Atmega128rfa1_Gcc.a(nwk.o)
 .text.SYS_GetRandomNumber
                0x000088bc       0x2a ./../../../../BitCloud/lib/libBc_Router_Atmega128rfa1_Atmega128rfa1_Gcc.a(nwk.o)
 .text.nwkFindDeviceToJoin
                0x000088e6      0x1cc ./../../../../BitCloud/lib/libBc_Router_Atmega128rfa1_Atmega128rfa1_Gcc.a(nwk.o)
 .text.nwkStartLinkStatusTimer
                0x00008ab2       0x10 ./../../../../BitCloud/lib/libBc_Router_Atmega128rfa1_Atmega128rfa1_Gcc.a(nwk.o)
 .text.nwkConfirmLinkStatusTx
                0x00008ac2       0x1e ./../../../../BitCloud/lib/libBc_Router_Atmega128rfa1_Atmega128rfa1_Gcc.a(nwk.o)
 .text.nwkStartAgeTimerOfNeighborTable
                0x00008ae0       0x32 ./../../../../BitCloud/lib/libBc_Router_Atmega128rfa1_Atmega128rfa1_Gcc.a(nwk.o)
 .text.freeJoinIndObj
                0x00008b12        0xe ./../../../../BitCloud/lib/libBc_Router_Atmega128rfa1_Atmega128rfa1_Gcc.a(nwk.o)
 .text.nwkJoinIndTaskHandler
                0x00008b20      0x108 ./../../../../BitCloud/lib/libBc_Router_Atmega128rfa1_Atmega128rfa1_Gcc.a(nwk.o)
 .text.nwkPrepareCommonFrame
                0x00008c28       0x4a ./../../../../BitCloud/lib/libBc_Router_Atmega128rfa1_Atmega128rfa1_Gcc.a(nwk.o)
 .text.nwkAllocRouteDiscoveryEntry
                0x00008c72       0xac ./../../../../BitCloud/lib/libBc_Router_Atmega128rfa1_Atmega128rfa1_Gcc.a(nwk.o)
 .text.nwkRouteDiscoveryTaskHandler
                0x00008d1e       0xd4 ./../../../../BitCloud/lib/libBc_Router_Atmega128rfa1_Atmega128rfa1_Gcc.a(nwk.o)
 .text.nwkResetTaskManager
                0x00008df2       0x10 ./../../../../BitCloud/lib/libBc_Router_Atmega128rfa1_Atmega128rfa1_Gcc.a(nwk.o)
 .text.nwkLinkStatusInd
                0x00008e02      0x23a ./../../../../BitCloud/lib/libBc_Router_Atmega128rfa1_Atmega128rfa1_Gcc.a(nwk.o)
 .text.nwkPrepareLeaveChildTx
                0x0000903c       0xb2 ./../../../../BitCloud/lib/libBc_Router_Atmega128rfa1_Atmega128rfa1_Gcc.a(nwk.o)
 .text.nwkPrepareLeaveItselfTx
                0x000090ee       0x90 ./../../../../BitCloud/lib/libBc_Router_Atmega128rfa1_Atmega128rfa1_Gcc.a(nwk.o)
 .text.nwkPrepareJoinRespTx
                0x0000917e       0xf0 ./../../../../BitCloud/lib/libBc_Router_Atmega128rfa1_Atmega128rfa1_Gcc.a(nwk.o)
 .text.nwkPrepareJoinReqTx
                0x0000926e       0x94 ./../../../../BitCloud/lib/libBc_Router_Atmega128rfa1_Atmega128rfa1_Gcc.a(nwk.o)
 .text.nwkPrepareLinkStatusTx
                0x00009302      0x1e2 ./../../../../BitCloud/lib/libBc_Router_Atmega128rfa1_Atmega128rfa1_Gcc.a(nwk.o)
 .text.nwkPermitJoiningTaskHandler
                0x000094e4       0xe4 ./../../../../BitCloud/lib/libBc_Router_Atmega128rfa1_Atmega128rfa1_Gcc.a(nwk.o)
 .text.nwkPermitJoinTimerFired
                0x000095c8       0x26 ./../../../../BitCloud/lib/libBc_Router_Atmega128rfa1_Atmega128rfa1_Gcc.a(nwk.o)
 .text.nwkGetSuitableParent
                0x000095ee       0x80 ./../../../../BitCloud/lib/libBc_Router_Atmega128rfa1_Atmega128rfa1_Gcc.a(nwk.o)
 .text.nwkConfirmJoinReqTx
                0x0000966e       0x62 ./../../../../BitCloud/lib/libBc_Router_Atmega128rfa1_Atmega128rfa1_Gcc.a(nwk.o)
 .text.nwkJoinReqMacPollConf
                0x000096d0       0x5e ./../../../../BitCloud/lib/libBc_Router_Atmega128rfa1_Atmega128rfa1_Gcc.a(nwk.o)
 .text.macLatencyFired
                0x0000972e        0x6 ./../../../../BitCloud/lib/libBc_Router_Atmega128rfa1_Atmega128rfa1_Gcc.a(nwk.o)
 .text.nwkRejoinResponseFrameInd
                0x00009734      0x10e ./../../../../BitCloud/lib/libBc_Router_Atmega128rfa1_Atmega128rfa1_Gcc.a(nwk.o)
 .text.nwkAssociate
                0x00009842       0x9e ./../../../../BitCloud/lib/libBc_Router_Atmega128rfa1_Atmega128rfa1_Gcc.a(nwk.o)
 .text.MAC_AssociateConf
                0x000098e0       0xf6 ./../../../../BitCloud/lib/libBc_Router_Atmega128rfa1_Atmega128rfa1_Gcc.a(nwk.o)
 .text.nwkResetMacStartConf
                0x000099d6       0x50 ./../../../../BitCloud/lib/libBc_Router_Atmega128rfa1_Atmega128rfa1_Gcc.a(nwk.o)
 .text.nwkJoinReqMacSetConf
                0x00009a26      0x18e ./../../../../BitCloud/lib/libBc_Router_Atmega128rfa1_Atmega128rfa1_Gcc.a(nwk.o)
 .text.nwkStartRouterTaskHandler
                0x00009bb4       0xd2 ./../../../../BitCloud/lib/libBc_Router_Atmega128rfa1_Atmega128rfa1_Gcc.a(nwk.o)
 .text.nwkConfirmLeaveItselfTx
                0x00009c86       0x42 ./../../../../BitCloud/lib/libBc_Router_Atmega128rfa1_Atmega128rfa1_Gcc.a(nwk.o)
 .text.nwkResetTaskHandler
                0x00009cc8       0x6a ./../../../../BitCloud/lib/libBc_Router_Atmega128rfa1_Atmega128rfa1_Gcc.a(nwk.o)
 .text.nwkResetRouteDiscoveryTable
                0x00009d32       0xb2 ./../../../../BitCloud/lib/libBc_Router_Atmega128rfa1_Atmega128rfa1_Gcc.a(nwk.o)
 .text.nwkResetNeighborTable
                0x00009de4       0x88 ./../../../../BitCloud/lib/libBc_Router_Atmega128rfa1_Atmega128rfa1_Gcc.a(nwk.o)
 .text.responseWaitTimerFired
                0x00009e6c       0x50 ./../../../../BitCloud/lib/libBc_Router_Atmega128rfa1_Atmega128rfa1_Gcc.a(nwk.o)
 .text.nwkCheckBTT
                0x00009ebc       0x22 ./../../../../BitCloud/lib/libBc_Router_Atmega128rfa1_Atmega128rfa1_Gcc.a(nwk.o)
 .text.nwkIsPassiveAckDone.clone.4
                0x00009ede       0x70 ./../../../../BitCloud/lib/libBc_Router_Atmega128rfa1_Atmega128rfa1_Gcc.a(nwk.o)
 .text.nwkTxDelayReq
                0x00009f4e      0x1a2 ./../../../../BitCloud/lib/libBc_Router_Atmega128rfa1_Atmega128rfa1_Gcc.a(nwk.o)
 .text.nwkAllocOutputPacket.clone.17
                0x0000a0f0       0x4e ./../../../../BitCloud/lib/libBc_Router_Atmega128rfa1_Atmega128rfa1_Gcc.a(nwk.o)
 .text.nwkTryToProcessCommandReq
                0x0000a13e       0x2c ./../../../../BitCloud/lib/libBc_Router_Atmega128rfa1_Atmega128rfa1_Gcc.a(nwk.o)
 .text.nwkCommandReq
                0x0000a16a       0x14 ./../../../../BitCloud/lib/libBc_Router_Atmega128rfa1_Atmega128rfa1_Gcc.a(nwk.o)
 .text.nwkConfirmNetworkStatusTx
                0x0000a17e       0x68 ./../../../../BitCloud/lib/libBc_Router_Atmega128rfa1_Atmega128rfa1_Gcc.a(nwk.o)
 .text.nwkStatusReq
                0x0000a1e6       0x44 ./../../../../BitCloud/lib/libBc_Router_Atmega128rfa1_Atmega128rfa1_Gcc.a(nwk.o)
 .text.nwkAddressConflictMacSetConf
                0x0000a22a       0x9a ./../../../../BitCloud/lib/libBc_Router_Atmega128rfa1_Atmega128rfa1_Gcc.a(nwk.o)
 .text.nwkSendRouteErrorStatus.clone.15
                0x0000a2c4       0x3c ./../../../../BitCloud/lib/libBc_Router_Atmega128rfa1_Atmega128rfa1_Gcc.a(nwk.o)
 .text.nwkLinkStatusTimerFired
                0x0000a300       0x1c ./../../../../BitCloud/lib/libBc_Router_Atmega128rfa1_Atmega128rfa1_Gcc.a(nwk.o)
 .text.nwkRejoinCmdPrepareAndSend
                0x0000a31c       0x30 ./../../../../BitCloud/lib/libBc_Router_Atmega128rfa1_Atmega128rfa1_Gcc.a(nwk.o)
 .text.nwkJoinReqMacRxEnableConf
                0x0000a34c       0x72 ./../../../../BitCloud/lib/libBc_Router_Atmega128rfa1_Atmega128rfa1_Gcc.a(nwk.o)
 .text.nwkJoinReqMacGetConf
                0x0000a3be       0x3e ./../../../../BitCloud/lib/libBc_Router_Atmega128rfa1_Atmega128rfa1_Gcc.a(nwk.o)
 .text.nwkRemoveAllChildren.clone.16
                0x0000a3fc       0xd6 ./../../../../BitCloud/lib/libBc_Router_Atmega128rfa1_Atmega128rfa1_Gcc.a(nwk.o)
 .text.nwkFreePacket
                0x0000a4d2       0x4e ./../../../../BitCloud/lib/libBc_Router_Atmega128rfa1_Atmega128rfa1_Gcc.a(nwk.o)
 .text.nwkTxConf
                0x0000a520      0x1a4 ./../../../../BitCloud/lib/libBc_Router_Atmega128rfa1_Atmega128rfa1_Gcc.a(nwk.o)
 .text.nwkProcessDelayStatus
                0x0000a6c4       0xd4 ./../../../../BitCloud/lib/libBc_Router_Atmega128rfa1_Atmega128rfa1_Gcc.a(nwk.o)
 .text.MAC_DataConf
                0x0000a798       0x30 ./../../../../BitCloud/lib/libBc_Router_Atmega128rfa1_Atmega128rfa1_Gcc.a(nwk.o)
 .text.nwkTxDelayConf
                0x0000a7c8        0xe ./../../../../BitCloud/lib/libBc_Router_Atmega128rfa1_Atmega128rfa1_Gcc.a(nwk.o)
 .text.nwkLeaveReqMacResetConf
                0x0000a7d6       0xf6 ./../../../../BitCloud/lib/libBc_Router_Atmega128rfa1_Atmega128rfa1_Gcc.a(nwk.o)
 .text.nwkTxDelayTimerFired
                0x0000a8cc       0x90 ./../../../../BitCloud/lib/libBc_Router_Atmega128rfa1_Atmega128rfa1_Gcc.a(nwk.o)
 .text.nwkTransmitOutputPacket.clone.11
                0x0000a95c       0x4a ./../../../../BitCloud/lib/libBc_Router_Atmega128rfa1_Atmega128rfa1_Gcc.a(nwk.o)
 .text.nwkSendDiscoveryCommand
                0x0000a9a6       0x6a ./../../../../BitCloud/lib/libBc_Router_Atmega128rfa1_Atmega128rfa1_Gcc.a(nwk.o)
 .text.nwkRouteDiscoveryTableTaskHandler
                0x0000aa10       0x9a ./../../../../BitCloud/lib/libBc_Router_Atmega128rfa1_Atmega128rfa1_Gcc.a(nwk.o)
 .text.nwkMeshRouteDiscoveryConf
                0x0000aaaa       0x5e ./../../../../BitCloud/lib/libBc_Router_Atmega128rfa1_Atmega128rfa1_Gcc.a(nwk.o)
 .text.NWK_GetShortAddr
                0x0000ab08        0xa ./../../../../BitCloud/lib/libBc_Router_Atmega128rfa1_Atmega128rfa1_Gcc.a(nwk.o)
                0x0000ab08                NWK_GetShortAddr
 .text.NWK_IsStaticAddressingMode
                0x0000ab12        0x6 ./../../../../BitCloud/lib/libBc_Router_Atmega128rfa1_Atmega128rfa1_Gcc.a(nwk.o)
                0x0000ab12                NWK_IsStaticAddressingMode
 .text.NWK_RemoveFromAddressMap
                0x0000ab18       0x12 ./../../../../BitCloud/lib/libBc_Router_Atmega128rfa1_Atmega128rfa1_Gcc.a(nwk.o)
                0x0000ab18                NWK_RemoveFromAddressMap
 .text.NWK_NetworkDiscoveryReq
                0x0000ab2a       0x20 ./../../../../BitCloud/lib/libBc_Router_Atmega128rfa1_Atmega128rfa1_Gcc.a(nwk.o)
                0x0000ab2a                NWK_NetworkDiscoveryReq
 .text.MAC_BeaconNotifyInd
                0x0000ab4a      0x46a ./../../../../BitCloud/lib/libBc_Router_Atmega128rfa1_Atmega128rfa1_Gcc.a(nwk.o)
                0x0000ab4a                MAC_BeaconNotifyInd
 .text.NWK_EDScanReq
                0x0000afb4       0x20 ./../../../../BitCloud/lib/libBc_Router_Atmega128rfa1_Atmega128rfa1_Gcc.a(nwk.o)
                0x0000afb4                NWK_EDScanReq
 .text.NWK_IsGroupMember
                0x0000afd4       0x3c ./../../../../BitCloud/lib/libBc_Router_Atmega128rfa1_Atmega128rfa1_Gcc.a(nwk.o)
                0x0000afd4                NWK_IsGroupMember
 .text.nwkRetransmitInputPacket
                0x0000b010      0x12a ./../../../../BitCloud/lib/libBc_Router_Atmega128rfa1_Atmega128rfa1_Gcc.a(nwk.o)
 .text.NWK_DataResp
                0x0000b13a       0x1c ./../../../../BitCloud/lib/libBc_Router_Atmega128rfa1_Atmega128rfa1_Gcc.a(nwk.o)
                0x0000b13a                NWK_DataResp
 .text.nwkRxIndication
                0x0000b156      0x224 ./../../../../BitCloud/lib/libBc_Router_Atmega128rfa1_Atmega128rfa1_Gcc.a(nwk.o)
 .text.nwkRxRetransmit
                0x0000b37a       0xae ./../../../../BitCloud/lib/libBc_Router_Atmega128rfa1_Atmega128rfa1_Gcc.a(nwk.o)
 .text.NWK_ResetGroups
                0x0000b428       0x5e ./../../../../BitCloud/lib/libBc_Router_Atmega128rfa1_Atmega128rfa1_Gcc.a(nwk.o)
                0x0000b428                NWK_ResetGroups
 .text.nwkResetMacResetConf
                0x0000b486      0x52e ./../../../../BitCloud/lib/libBc_Router_Atmega128rfa1_Atmega128rfa1_Gcc.a(nwk.o)
 .text.NWK_GetParentShortAddr
                0x0000b9b4        0xa ./../../../../BitCloud/lib/libBc_Router_Atmega128rfa1_Atmega128rfa1_Gcc.a(nwk.o)
                0x0000b9b4                NWK_GetParentShortAddr
 .text.NWK_GetPanId
                0x0000b9be        0xa ./../../../../BitCloud/lib/libBc_Router_Atmega128rfa1_Atmega128rfa1_Gcc.a(nwk.o)
                0x0000b9be                NWK_GetPanId
 .text.NWK_GetExtPanId
                0x0000b9c8       0x22 ./../../../../BitCloud/lib/libBc_Router_Atmega128rfa1_Atmega128rfa1_Gcc.a(nwk.o)
                0x0000b9c8                NWK_GetExtPanId
 .text.NWK_SetExtPanId
                0x0000b9ea       0x34 ./../../../../BitCloud/lib/libBc_Router_Atmega128rfa1_Atmega128rfa1_Gcc.a(nwk.o)
                0x0000b9ea                NWK_SetExtPanId
 .text.NWK_GetDeviceType
                0x0000ba1e        0x6 ./../../../../BitCloud/lib/libBc_Router_Atmega128rfa1_Atmega128rfa1_Gcc.a(nwk.o)
                0x0000ba1e                NWK_GetDeviceType
 .text.NWK_GetLogicalChannel
                0x0000ba24        0x6 ./../../../../BitCloud/lib/libBc_Router_Atmega128rfa1_Atmega128rfa1_Gcc.a(nwk.o)
                0x0000ba24                NWK_GetLogicalChannel
 .text.NWK_SetLogicalChannel
                0x0000ba2a        0x6 ./../../../../BitCloud/lib/libBc_Router_Atmega128rfa1_Atmega128rfa1_Gcc.a(nwk.o)
                0x0000ba2a                NWK_SetLogicalChannel
 .text.NWK_GetBroadcastDeliveryTime
                0x0000ba30       0x12 ./../../../../BitCloud/lib/libBc_Router_Atmega128rfa1_Atmega128rfa1_Gcc.a(nwk.o)
                0x0000ba30                NWK_GetBroadcastDeliveryTime
 .text.NWK_GetManagerAddr
                0x0000ba42        0xa ./../../../../BitCloud/lib/libBc_Router_Atmega128rfa1_Atmega128rfa1_Gcc.a(nwk.o)
                0x0000ba42                NWK_GetManagerAddr
 .text.NWK_SetManagerAddr
                0x0000ba4c        0xa ./../../../../BitCloud/lib/libBc_Router_Atmega128rfa1_Atmega128rfa1_Gcc.a(nwk.o)
                0x0000ba4c                NWK_SetManagerAddr
 .text.NWK_SetUpdateId
                0x0000ba56        0xa ./../../../../BitCloud/lib/libBc_Router_Atmega128rfa1_Atmega128rfa1_Gcc.a(nwk.o)
                0x0000ba56                NWK_SetUpdateId
 .text.NWK_GetTransmitCouner
                0x0000ba60       0x14 ./../../../../BitCloud/lib/libBc_Router_Atmega128rfa1_Atmega128rfa1_Gcc.a(nwk.o)
                0x0000ba60                NWK_GetTransmitCouner
 .text.NWK_GetTransmitFailureCounter
                0x0000ba74       0x14 ./../../../../BitCloud/lib/libBc_Router_Atmega128rfa1_Atmega128rfa1_Gcc.a(nwk.o)
                0x0000ba74                NWK_GetTransmitFailureCounter
 .text.NWK_ResetTransmitCounters
                0x0000ba88       0x12 ./../../../../BitCloud/lib/libBc_Router_Atmega128rfa1_Atmega128rfa1_Gcc.a(nwk.o)
                0x0000ba88                NWK_ResetTransmitCounters
 .text.NWK_JoinReq
                0x0000ba9a       0x20 ./../../../../BitCloud/lib/libBc_Router_Atmega128rfa1_Atmega128rfa1_Gcc.a(nwk.o)
                0x0000ba9a                NWK_JoinReq
 .text.NWK_RemoveNeighbor
                0x0000baba       0x90 ./../../../../BitCloud/lib/libBc_Router_Atmega128rfa1_Atmega128rfa1_Gcc.a(nwk.o)
                0x0000baba                NWK_RemoveNeighbor
 .text.neighborTimerFired
                0x0000bb4a       0x90 ./../../../../BitCloud/lib/libBc_Router_Atmega128rfa1_Atmega128rfa1_Gcc.a(nwk.o)
 .text.NWK_LeaveReq
                0x0000bbda       0x20 ./../../../../BitCloud/lib/libBc_Router_Atmega128rfa1_Atmega128rfa1_Gcc.a(nwk.o)
                0x0000bbda                NWK_LeaveReq
 .text.NWK_LoopbackTxReq
                0x0000bbfa       0x20 ./../../../../BitCloud/lib/libBc_Router_Atmega128rfa1_Atmega128rfa1_Gcc.a(nwk.o)
                0x0000bbfa                NWK_LoopbackTxReq
 .text.nwkDataConfTaskHandler
                0x0000bc1a       0x5a ./../../../../BitCloud/lib/libBc_Router_Atmega128rfa1_Atmega128rfa1_Gcc.a(nwk.o)
 .text.NWK_DataReq
                0x0000bc74      0x216 ./../../../../BitCloud/lib/libBc_Router_Atmega128rfa1_Atmega128rfa1_Gcc.a(nwk.o)
                0x0000bc74                NWK_DataReq
 .text.NWK_FindNeighborByShortAddr
                0x0000be8a       0x30 ./../../../../BitCloud/lib/libBc_Router_Atmega128rfa1_Atmega128rfa1_Gcc.a(nwk.o)
                0x0000be8a                NWK_FindNeighborByShortAddr
 .text.nwkAllocNonConflAddr
                0x0000beba       0xc0 ./../../../../BitCloud/lib/libBc_Router_Atmega128rfa1_Atmega128rfa1_Gcc.a(nwk.o)
 .text.NWK_NetworkDiscoveryConf
                0x0000bf7a       0xa2 ./../../../../BitCloud/lib/libBc_Router_Atmega128rfa1_Atmega128rfa1_Gcc.a(nwk.o)
 .text.nwkJoinReqTaskHandler
                0x0000c01c      0x19a ./../../../../BitCloud/lib/libBc_Router_Atmega128rfa1_Atmega128rfa1_Gcc.a(nwk.o)
 .text.nwkAllocateShortAddr.clone.12
                0x0000c1b6       0x5a ./../../../../BitCloud/lib/libBc_Router_Atmega128rfa1_Atmega128rfa1_Gcc.a(nwk.o)
 .text.nwkResolveAddressConflict
                0x0000c210      0x1ce ./../../../../BitCloud/lib/libBc_Router_Atmega128rfa1_Atmega128rfa1_Gcc.a(nwk.o)
 .text.nwkAddressConflictTaskHandler
                0x0000c3de       0xa0 ./../../../../BitCloud/lib/libBc_Router_Atmega128rfa1_Atmega128rfa1_Gcc.a(nwk.o)
 .text.nwkStatusFrameInd
                0x0000c47e       0x46 ./../../../../BitCloud/lib/libBc_Router_Atmega128rfa1_Atmega128rfa1_Gcc.a(nwk.o)
 .text.nwkAddChild
                0x0000c4c4      0x306 ./../../../../BitCloud/lib/libBc_Router_Atmega128rfa1_Atmega128rfa1_Gcc.a(nwk.o)
 .text.nwkRejoinRequestFrameInd
                0x0000c7ca      0x15c ./../../../../BitCloud/lib/libBc_Router_Atmega128rfa1_Atmega128rfa1_Gcc.a(nwk.o)
 .text.MAC_AssociateInd
                0x0000c926       0xd0 ./../../../../BitCloud/lib/libBc_Router_Atmega128rfa1_Atmega128rfa1_Gcc.a(nwk.o)
                0x0000c926                MAC_AssociateInd
 .text.nwkGetNextHop
                0x0000c9f6      0x20c ./../../../../BitCloud/lib/libBc_Router_Atmega128rfa1_Atmega128rfa1_Gcc.a(nwk.o)
 .text.nwkResetMacSetConf
                0x0000cc02      0x1ca ./../../../../BitCloud/lib/libBc_Router_Atmega128rfa1_Atmega128rfa1_Gcc.a(nwk.o)
 .text.nwkProcessRouteRequest
                0x0000cdcc      0x232 ./../../../../BitCloud/lib/libBc_Router_Atmega128rfa1_Atmega128rfa1_Gcc.a(nwk.o)
 .text.NWK_GetExtByShortAddress
                0x0000cffe       0x5c ./../../../../BitCloud/lib/libBc_Router_Atmega128rfa1_Atmega128rfa1_Gcc.a(nwk.o)
                0x0000cffe                NWK_GetExtByShortAddress
 .text.nwkPrepareRouteRequestTx
                0x0000d05a      0x164 ./../../../../BitCloud/lib/libBc_Router_Atmega128rfa1_Atmega128rfa1_Gcc.a(nwk.o)
 .text.nwkPrepareNetworkStatusTx
                0x0000d1be      0x102 ./../../../../BitCloud/lib/libBc_Router_Atmega128rfa1_Atmega128rfa1_Gcc.a(nwk.o)
 .text.nwkPrepareRouteReplyTx
                0x0000d2c0      0x2f8 ./../../../../BitCloud/lib/libBc_Router_Atmega128rfa1_Atmega128rfa1_Gcc.a(nwk.o)
 .text.NWK_FindNeighborByExtAddr
                0x0000d5b8       0x68 ./../../../../BitCloud/lib/libBc_Router_Atmega128rfa1_Atmega128rfa1_Gcc.a(nwk.o)
                0x0000d5b8                NWK_FindNeighborByExtAddr
 .text.nwkLeaveTaskHandler
                0x0000d620      0x16a ./../../../../BitCloud/lib/libBc_Router_Atmega128rfa1_Atmega128rfa1_Gcc.a(nwk.o)
 .text.nwkConfirmLeaveChildTx
                0x0000d78a       0x84 ./../../../../BitCloud/lib/libBc_Router_Atmega128rfa1_Atmega128rfa1_Gcc.a(nwk.o)
 .text.nwkConfirmJoinRespTx
                0x0000d80e       0x4e ./../../../../BitCloud/lib/libBc_Router_Atmega128rfa1_Atmega128rfa1_Gcc.a(nwk.o)
 .text.nwkConfirmAddrConflictJoinRespTx
                0x0000d85c       0x3c ./../../../../BitCloud/lib/libBc_Router_Atmega128rfa1_Atmega128rfa1_Gcc.a(nwk.o)
 .text.nwkLeaveFrameInd
                0x0000d898       0x7a ./../../../../BitCloud/lib/libBc_Router_Atmega128rfa1_Atmega128rfa1_Gcc.a(nwk.o)
 .text.nwkJoinIndMacCommStatusInd
                0x0000d912       0x54 ./../../../../BitCloud/lib/libBc_Router_Atmega128rfa1_Atmega128rfa1_Gcc.a(nwk.o)
 .text.NWK_GetShortByExtAddress
                0x0000d966       0x60 ./../../../../BitCloud/lib/libBc_Router_Atmega128rfa1_Atmega128rfa1_Gcc.a(nwk.o)
                0x0000d966                NWK_GetShortByExtAddress
 .text.NWK_LinkShortAndExtAddress
                0x0000d9c6       0xd8 ./../../../../BitCloud/lib/libBc_Router_Atmega128rfa1_Atmega128rfa1_Gcc.a(nwk.o)
                0x0000d9c6                NWK_LinkShortAndExtAddress
 .text.nwkRouteReplyFrameInd
                0x0000da9e      0x18c ./../../../../BitCloud/lib/libBc_Router_Atmega128rfa1_Atmega128rfa1_Gcc.a(nwk.o)
 .text.nwkRouteRequestFrameInd
                0x0000dc2a       0xb6 ./../../../../BitCloud/lib/libBc_Router_Atmega128rfa1_Atmega128rfa1_Gcc.a(nwk.o)
 .text.NWK_GetNeighborTable
                0x0000dce0        0x6 ./../../../../BitCloud/lib/libBc_Router_Atmega128rfa1_Atmega128rfa1_Gcc.a(nwk.o)
                0x0000dce0                NWK_GetNeighborTable
 .text.NWK_GetNeighborsLqi
                0x0000dce6       0x3e ./../../../../BitCloud/lib/libBc_Router_Atmega128rfa1_Atmega128rfa1_Gcc.a(nwk.o)
                0x0000dce6                NWK_GetNeighborsLqi
 .text.NWK_IsKnownChild
                0x0000dd24       0x24 ./../../../../BitCloud/lib/libBc_Router_Atmega128rfa1_Atmega128rfa1_Gcc.a(nwk.o)
                0x0000dd24                NWK_IsKnownChild
 .text.MAC_OrphanInd
                0x0000dd48        0x2 ./../../../../BitCloud/lib/libBc_Router_Atmega128rfa1_Atmega128rfa1_Gcc.a(nwk.o)
                0x0000dd48                MAC_OrphanInd
 .text.NWK_PermitJoiningReq
                0x0000dd4a       0x2c ./../../../../BitCloud/lib/libBc_Router_Atmega128rfa1_Atmega128rfa1_Gcc.a(nwk.o)
                0x0000dd4a                NWK_PermitJoiningReq
 .text.NWK_ResetReq
                0x0000dd76       0x20 ./../../../../BitCloud/lib/libBc_Router_Atmega128rfa1_Atmega128rfa1_Gcc.a(nwk.o)
                0x0000dd76                NWK_ResetReq
 .text.NWK_Init
                0x0000dd96       0x20 ./../../../../BitCloud/lib/libBc_Router_Atmega128rfa1_Atmega128rfa1_Gcc.a(nwk.o)
                0x0000dd96                NWK_Init
 .text.NWK_RouteDiscoveryReq
                0x0000ddb6       0x34 ./../../../../BitCloud/lib/libBc_Router_Atmega128rfa1_Atmega128rfa1_Gcc.a(nwk.o)
                0x0000ddb6                NWK_RouteDiscoveryReq
 .text.nwkTxTaskHandler
                0x0000ddea      0x19a ./../../../../BitCloud/lib/libBc_Router_Atmega128rfa1_Atmega128rfa1_Gcc.a(nwk.o)
 .text.MAC_DataInd
                0x0000df84      0x458 ./../../../../BitCloud/lib/libBc_Router_Atmega128rfa1_Atmega128rfa1_Gcc.a(nwk.o)
                0x0000df84                MAC_DataInd
 .text.NWK_StartRouterReq
                0x0000e3dc       0x20 ./../../../../BitCloud/lib/libBc_Router_Atmega128rfa1_Atmega128rfa1_Gcc.a(nwk.o)
                0x0000e3dc                NWK_StartRouterReq
 .text.NWK_IsActiveTransaction
                0x0000e3fc       0x54 ./../../../../BitCloud/lib/libBc_Router_Atmega128rfa1_Atmega128rfa1_Gcc.a(nwk.o)
                0x0000e3fc                NWK_IsActiveTransaction
 .text.NWK_LaunchActivities
                0x0000e450       0x12 ./../../../../BitCloud/lib/libBc_Router_Atmega128rfa1_Atmega128rfa1_Gcc.a(nwk.o)
                0x0000e450                NWK_LaunchActivities
 .text.NWK_StopActivities
                0x0000e462       0x12 ./../../../../BitCloud/lib/libBc_Router_Atmega128rfa1_Atmega128rfa1_Gcc.a(nwk.o)
                0x0000e462                NWK_StopActivities
 .text.NWK_DeviceIsAbleToOperateInNetwork
                0x0000e474       0x36 ./../../../../BitCloud/lib/libBc_Router_Atmega128rfa1_Atmega128rfa1_Gcc.a(nwk.o)
                0x0000e474                NWK_DeviceIsAbleToOperateInNetwork
 .text.NWK_GatherPowerFailureInfo
                0x0000e4aa       0x24 ./../../../../BitCloud/lib/libBc_Router_Atmega128rfa1_Atmega128rfa1_Gcc.a(nwk.o)
                0x0000e4aa                NWK_GatherPowerFailureInfo
 .text.MAC_PollInd
                0x0000e4ce       0x52 ./../../../../BitCloud/lib/libBc_Router_Atmega128rfa1_Atmega128rfa1_Gcc.a(nwk.o)
                0x0000e4ce                MAC_PollInd
 .text.MAC_SyncLossInd
                0x0000e520        0x2 ./../../../../BitCloud/lib/libBc_Router_Atmega128rfa1_Atmega128rfa1_Gcc.a(nwk.o)
                0x0000e520                MAC_SyncLossInd
 .text.NWK_TaskHandler
                0x0000e522       0xd8 ./../../../../BitCloud/lib/libBc_Router_Atmega128rfa1_Atmega128rfa1_Gcc.a(nwk.o)
                0x0000e522                NWK_TaskHandler
 .text.NWK_GetUnicastDeliveryTime
                0x0000e5fa       0x6a ./../../../../BitCloud/lib/libBc_Router_Atmega128rfa1_Atmega128rfa1_Gcc.a(nwk.o)
                0x0000e5fa                NWK_GetUnicastDeliveryTime
 .text.phyRxTxSwitcher
                0x0000e664       0x36 ./../../../../BitCloud/lib/libBc_Router_Atmega128rfa1_Atmega128rfa1_Gcc.a(phyRxTxIndicator.o)
 .text.phyRxTxSwitcherOn
                0x0000e69a        0x8 ./../../../../BitCloud/lib/libBc_Router_Atmega128rfa1_Atmega128rfa1_Gcc.a(phyRxTxIndicator.o)
                0x0000e69a                phyRxTxSwitcherOn
 .text.phyRxTxSwitcherOff
                0x0000e6a2        0x8 ./../../../../BitCloud/lib/libBc_Router_Atmega128rfa1_Atmega128rfa1_Gcc.a(phyRxTxIndicator.o)
                0x0000e6a2                phyRxTxSwitcherOff
 .text.deleteHeadQueueElem
                0x0000e6aa       0x22 ./../../../../BitCloud/lib/libBc_Router_Atmega128rfa1_Atmega128rfa1_Gcc.a(queue.o)
                0x0000e6aa                deleteHeadQueueElem
 .text.deleteQueueElem
                0x0000e6cc       0x4a ./../../../../BitCloud/lib/libBc_Router_Atmega128rfa1_Atmega128rfa1_Gcc.a(queue.o)
                0x0000e6cc                deleteQueueElem
 .text.isQueueElem
                0x0000e716       0x22 ./../../../../BitCloud/lib/libBc_Router_Atmega128rfa1_Atmega128rfa1_Gcc.a(queue.o)
                0x0000e716                isQueueElem
 .text.putQueueElem
                0x0000e738       0x40 ./../../../../BitCloud/lib/libBc_Router_Atmega128rfa1_Atmega128rfa1_Gcc.a(queue.o)
                0x0000e738                putQueueElem
 .text.SYS_DuplicateTableReset
                0x0000e778       0x4e ./../../../../BitCloud/lib/libBc_Router_Atmega128rfa1_Atmega128rfa1_Gcc.a(sysDuplicateTable.o)
                0x0000e778                SYS_DuplicateTableReset
 .text.duplicateTableUpdate
                0x0000e7c6       0x8e ./../../../../BitCloud/lib/libBc_Router_Atmega128rfa1_Atmega128rfa1_Gcc.a(sysDuplicateTable.o)
                0x0000e7c6                duplicateTableUpdate
 .text.SYS_DuplicateTableCheck
                0x0000e854      0x10c ./../../../../BitCloud/lib/libBc_Router_Atmega128rfa1_Atmega128rfa1_Gcc.a(sysDuplicateTable.o)
                0x0000e854                SYS_DuplicateTableCheck
 .text.SYS_DuplicateTableClear
                0x0000e960       0x7c ./../../../../BitCloud/lib/libBc_Router_Atmega128rfa1_Atmega128rfa1_Gcc.a(sysDuplicateTable.o)
                0x0000e960                SYS_DuplicateTableClear
 .text.SYS_PostEvent
                0x0000e9dc       0x7a ./../../../../BitCloud/lib/libBc_Router_Atmega128rfa1_Atmega128rfa1_Gcc.a(sysEvents.o)
                0x0000e9dc                SYS_PostEvent
 .text.SYS_IsEventDeliverable
                0x0000ea56       0x38 ./../../../../BitCloud/lib/libBc_Router_Atmega128rfa1_Atmega128rfa1_Gcc.a(sysEvents.o)
                0x0000ea56                SYS_IsEventDeliverable
 .text.SYS_IsEventSubscriber
                0x0000ea8e       0x32 ./../../../../BitCloud/lib/libBc_Router_Atmega128rfa1_Atmega128rfa1_Gcc.a(sysEvents.o)
                0x0000ea8e                SYS_IsEventSubscriber
 .text.SYS_SubscribeToEvent
                0x0000eac0       0x70 ./../../../../BitCloud/lib/libBc_Router_Atmega128rfa1_Atmega128rfa1_Gcc.a(sysEvents.o)
                0x0000eac0                SYS_SubscribeToEvent
 .text.SYS_StartTimer
                0x0000eb30       0x14 ./../../../../BitCloud/lib/libBc_Router_Atmega128rfa1_Atmega128rfa1_Gcc.a(sysTimer.o)
                0x0000eb30                SYS_StartTimer
 .text.SYS_StopTimer
                0x0000eb44       0x12 ./../../../../BitCloud/lib/libBc_Router_Atmega128rfa1_Atmega128rfa1_Gcc.a(sysTimer.o)
                0x0000eb44                SYS_StopTimer
 .text.SYS_InitTimer
                0x0000eb56       0x34 ./../../../../BitCloud/lib/libBc_Router_Atmega128rfa1_Atmega128rfa1_Gcc.a(sysTimer.o)
                0x0000eb56                SYS_InitTimer
 .text.SYS_RunTask
                0x0000eb8a       0x76 ./../../../../BitCloud/lib/libBc_Router_Atmega128rfa1_Atmega128rfa1_Gcc.a(taskManager.o)
                0x0000eb8a                SYS_RunTask
 .text.SYS_ForceRunTask
                0x0000ec00        0x6 ./../../../../BitCloud/lib/libBc_Router_Atmega128rfa1_Atmega128rfa1_Gcc.a(taskManager.o)
                0x0000ec00                SYS_ForceRunTask
 .text.SYS_SysInit
                0x0000ec06       0x22 ./../../../../BitCloud/lib/libBc_Router_Atmega128rfa1_Atmega128rfa1_Gcc.a(taskManager.o)
                0x0000ec06                SYS_SysInit
 .text.APS_StopConf
                0x0000ec28       0x14 ./../../../../BitCloud/lib/libBc_Router_Atmega128rfa1_Atmega128rfa1_Gcc.a(zdo.o)
 .text.zdoNodeManagerNwkLeaveConf
                0x0000ec3c        0x6 ./../../../../BitCloud/lib/libBc_Router_Atmega128rfa1_Atmega128rfa1_Gcc.a(zdo.o)
 .text.zdoNwkManagerReset
                0x0000ec42       0x10 ./../../../../BitCloud/lib/libBc_Router_Atmega128rfa1_Atmega128rfa1_Gcc.a(zdo.o)
 .text.zdoStackResetConf
                0x0000ec52       0x1c ./../../../../BitCloud/lib/libBc_Router_Atmega128rfa1_Atmega128rfa1_Gcc.a(zdo.o)
 .text.zdoSecurityManagerHandler
                0x0000ec6e        0x2 ./../../../../BitCloud/lib/libBc_Router_Atmega128rfa1_Atmega128rfa1_Gcc.a(zdo.o)
                0x0000ec6e                zdoSecurityManagerHandler
 .text.zdoPostTask
                0x0000ec70       0x3c ./../../../../BitCloud/lib/libBc_Router_Atmega128rfa1_Atmega128rfa1_Gcc.a(zdo.o)
 .text.zdoCheckStartNetworkRequestsQueue
                0x0000ecac       0x38 ./../../../../BitCloud/lib/libBc_Router_Atmega128rfa1_Atmega128rfa1_Gcc.a(zdo.o)
 .text.zdoStartNetworkFree
                0x0000ece4        0xe ./../../../../BitCloud/lib/libBc_Router_Atmega128rfa1_Atmega128rfa1_Gcc.a(zdo.o)
 .text.startConfirm
                0x0000ecf2       0x2e ./../../../../BitCloud/lib/libBc_Router_Atmega128rfa1_Atmega128rfa1_Gcc.a(zdo.o)
 .text.sleepConfirm
                0x0000ed20       0x24 ./../../../../BitCloud/lib/libBc_Router_Atmega128rfa1_Atmega128rfa1_Gcc.a(zdo.o)
 .text.wakeUpConfirm
                0x0000ed44       0x24 ./../../../../BitCloud/lib/libBc_Router_Atmega128rfa1_Atmega128rfa1_Gcc.a(zdo.o)
 .text.zdoUnpostTask
                0x0000ed68       0x28 ./../../../../BitCloud/lib/libBc_Router_Atmega128rfa1_Atmega128rfa1_Gcc.a(zdo.o)
 .text.zdoSetZdpDataReqState
                0x0000ed90       0x22 ./../../../../BitCloud/lib/libBc_Router_Atmega128rfa1_Atmega128rfa1_Gcc.a(zdo.o)
 .text.confirmResponse
                0x0000edb2        0x8 ./../../../../BitCloud/lib/libBc_Router_Atmega128rfa1_Atmega128rfa1_Gcc.a(zdo.o)
 .text.zdoDefaultBindApsDataConf
                0x0000edba        0x8 ./../../../../BitCloud/lib/libBc_Router_Atmega128rfa1_Atmega128rfa1_Gcc.a(zdo.o)
 .text.confirmMgmtLqiResponse
                0x0000edc2        0x8 ./../../../../BitCloud/lib/libBc_Router_Atmega128rfa1_Atmega128rfa1_Gcc.a(zdo.o)
 .text.permitJoiningConf
                0x0000edca       0x16 ./../../../../BitCloud/lib/libBc_Router_Atmega128rfa1_Atmega128rfa1_Gcc.a(zdo.o)
 .text.confirmMgmtPermitJoiningResponse
                0x0000ede0        0x8 ./../../../../BitCloud/lib/libBc_Router_Atmega128rfa1_Atmega128rfa1_Gcc.a(zdo.o)
 .text.zdoZdpApsConfCallback
                0x0000ede8       0x78 ./../../../../BitCloud/lib/libBc_Router_Atmega128rfa1_Atmega128rfa1_Gcc.a(zdo.o)
 .text.zdoSetZdpIndState
                0x0000ee60       0x10 ./../../../../BitCloud/lib/libBc_Router_Atmega128rfa1_Atmega128rfa1_Gcc.a(zdo.o)
 .text.ttlUpdateTimerFired
                0x0000ee70       0x72 ./../../../../BitCloud/lib/libBc_Router_Atmega128rfa1_Atmega128rfa1_Gcc.a(zdo.o)
 .text.zdoSetOutOfNetworkFlag
                0x0000eee2       0x36 ./../../../../BitCloud/lib/libBc_Router_Atmega128rfa1_Atmega128rfa1_Gcc.a(zdo.o)
 .text.leaveNetworkInd
                0x0000ef18       0x24 ./../../../../BitCloud/lib/libBc_Router_Atmega128rfa1_Atmega128rfa1_Gcc.a(zdo.o)
 .text.zdoLeaveNetworkNwkLeaveConf
                0x0000ef3c        0xe ./../../../../BitCloud/lib/libBc_Router_Atmega128rfa1_Atmega128rfa1_Gcc.a(zdo.o)
 .text.zdoStartNetworkConfirm
                0x0000ef4a       0x24 ./../../../../BitCloud/lib/libBc_Router_Atmega128rfa1_Atmega128rfa1_Gcc.a(zdo.o)
 .text.deviceAnnceConf
                0x0000ef6e        0x8 ./../../../../BitCloud/lib/libBc_Router_Atmega128rfa1_Atmega128rfa1_Gcc.a(zdo.o)
 .text.reenterNetwork
                0x0000ef76       0x30 ./../../../../BitCloud/lib/libBc_Router_Atmega128rfa1_Atmega128rfa1_Gcc.a(zdo.o)
 .text.joinNetwork
                0x0000efa6       0x86 ./../../../../BitCloud/lib/libBc_Router_Atmega128rfa1_Atmega128rfa1_Gcc.a(zdo.o)
 .text.zdoRejoinNetwork
                0x0000f02c       0x1c ./../../../../BitCloud/lib/libBc_Router_Atmega128rfa1_Atmega128rfa1_Gcc.a(zdo.o)
 .text.zdoIntraPanPortApsStopConf
                0x0000f048       0x1c ./../../../../BitCloud/lib/libBc_Router_Atmega128rfa1_Atmega128rfa1_Gcc.a(zdo.o)
 .text.joinTimerFired
                0x0000f064        0x6 ./../../../../BitCloud/lib/libBc_Router_Atmega128rfa1_Atmega128rfa1_Gcc.a(zdo.o)
 .text.zdoLeaveNetworkReq
                0x0000f06a       0x58 ./../../../../BitCloud/lib/libBc_Router_Atmega128rfa1_Atmega128rfa1_Gcc.a(zdo.o)
 .text.zdoParentChangeConf
                0x0000f0c2       0x4c ./../../../../BitCloud/lib/libBc_Router_Atmega128rfa1_Atmega128rfa1_Gcc.a(zdo.o)
 .text.confirmMgmtLeaveResponse
                0x0000f10e       0xbe ./../../../../BitCloud/lib/libBc_Router_Atmega128rfa1_Atmega128rfa1_Gcc.a(zdo.o)
 .text.zdoZdpResetReq
                0x0000f1cc       0x90 ./../../../../BitCloud/lib/libBc_Router_Atmega128rfa1_Atmega128rfa1_Gcc.a(zdo.o)
 .text.zdoReset
                0x0000f25c        0xa ./../../../../BitCloud/lib/libBc_Router_Atmega128rfa1_Atmega128rfa1_Gcc.a(zdo.o)
 .text.zdoLeaveConfirm
                0x0000f266       0x78 ./../../../../BitCloud/lib/libBc_Router_Atmega128rfa1_Atmega128rfa1_Gcc.a(zdo.o)
 .text.zdoPseudoRandomSeed
                0x0000f2de       0x46 ./../../../../BitCloud/lib/libBc_Router_Atmega128rfa1_Atmega128rfa1_Gcc.a(zdo.o)
 .text.RF_RandomConfUpdater
                0x0000f324       0x1c ./../../../../BitCloud/lib/libBc_Router_Atmega128rfa1_Atmega128rfa1_Gcc.a(zdo.o)
 .text.zdoUpdateRandSeedTimerFired
                0x0000f340       0x28 ./../../../../BitCloud/lib/libBc_Router_Atmega128rfa1_Atmega128rfa1_Gcc.a(zdo.o)
 .text.zdoStackReset
                0x0000f368       0x2a ./../../../../BitCloud/lib/libBc_Router_Atmega128rfa1_Atmega128rfa1_Gcc.a(zdo.o)
 .text.wakeupCallback
                0x0000f392       0x2e ./../../../../BitCloud/lib/libBc_Router_Atmega128rfa1_Atmega128rfa1_Gcc.a(zdo.o)
 .text.zdoPowerManagerHandler
                0x0000f3c0       0xae ./../../../../BitCloud/lib/libBc_Router_Atmega128rfa1_Atmega128rfa1_Gcc.a(zdo.o)
 .text.transceiverSwitchedOff
                0x0000f46e       0x5a ./../../../../BitCloud/lib/libBc_Router_Atmega128rfa1_Atmega128rfa1_Gcc.a(zdo.o)
 .text.transceiverSwitchedOn
                0x0000f4c8       0x3a ./../../../../BitCloud/lib/libBc_Router_Atmega128rfa1_Atmega128rfa1_Gcc.a(zdo.o)
 .text.zdoZdpManagerHandler
                0x0000f502      0x1d6 ./../../../../BitCloud/lib/libBc_Router_Atmega128rfa1_Atmega128rfa1_Gcc.a(zdo.o)
 .text.zdoNwkEventListener
                0x0000f6d8       0x6e ./../../../../BitCloud/lib/libBc_Router_Atmega128rfa1_Atmega128rfa1_Gcc.a(zdo.o)
 .text.zdoOtherEventListener
                0x0000f746       0x34 ./../../../../BitCloud/lib/libBc_Router_Atmega128rfa1_Atmega128rfa1_Gcc.a(zdo.o)
 .text.zdoExecuteEDScan
                0x0000f77a       0x36 ./../../../../BitCloud/lib/libBc_Router_Atmega128rfa1_Atmega128rfa1_Gcc.a(zdo.o)
 .text.confirmMgmtNwkUpdateNotify
                0x0000f7b0       0x2e ./../../../../BitCloud/lib/libBc_Router_Atmega128rfa1_Atmega128rfa1_Gcc.a(zdo.o)
 .text.channelChangeTimerFired
                0x0000f7de       0x22 ./../../../../BitCloud/lib/libBc_Router_Atmega128rfa1_Atmega128rfa1_Gcc.a(zdo.o)
 .text.MAC_SetConf
                0x0000f800       0x7e ./../../../../BitCloud/lib/libBc_Router_Atmega128rfa1_Atmega128rfa1_Gcc.a(zdo.o)
 .text.zdoChildEventListener
                0x0000f87e       0xa8 ./../../../../BitCloud/lib/libBc_Router_Atmega128rfa1_Atmega128rfa1_Gcc.a(zdo.o)
 .text.ZDO_GetNwkStatus
                0x0000f926       0x10 ./../../../../BitCloud/lib/libBc_Router_Atmega128rfa1_Atmega128rfa1_Gcc.a(zdo.o)
                0x0000f926                ZDO_GetNwkStatus
 .text.zdoInitNotifications
                0x0000f936       0x6e ./../../../../BitCloud/lib/libBc_Router_Atmega128rfa1_Atmega128rfa1_Gcc.a(zdo.o)
                0x0000f936                zdoInitNotifications
 .text.zdoInitHandler
                0x0000f9a4      0x10e ./../../../../BitCloud/lib/libBc_Router_Atmega128rfa1_Atmega128rfa1_Gcc.a(zdo.o)
 .text.NWK_JoinInd
                0x0000fab2       0x4e ./../../../../BitCloud/lib/libBc_Router_Atmega128rfa1_Atmega128rfa1_Gcc.a(zdo.o)
                0x0000fab2                NWK_JoinInd
 .text.NWK_LeaveInd
                0x0000fb00       0x86 ./../../../../BitCloud/lib/libBc_Router_Atmega128rfa1_Atmega128rfa1_Gcc.a(zdo.o)
                0x0000fb00                NWK_LeaveInd
 .text.ZDO_WakeUpReq
                0x0000fb86       0x1e ./../../../../BitCloud/lib/libBc_Router_Atmega128rfa1_Atmega128rfa1_Gcc.a(zdo.o)
                0x0000fb86                ZDO_WakeUpReq
 .text.ZDO_StartNetworkReq
                0x0000fba4       0x10 ./../../../../BitCloud/lib/libBc_Router_Atmega128rfa1_Atmega128rfa1_Gcc.a(zdo.o)
                0x0000fba4                ZDO_StartNetworkReq
 .text.zdoAuthenticationConf
                0x0000fbb4       0x50 ./../../../../BitCloud/lib/libBc_Router_Atmega128rfa1_Atmega128rfa1_Gcc.a(zdo.o)
                0x0000fbb4                zdoAuthenticationConf
 .text.zdoAuthenticationStart
                0x0000fc04        0x8 ./../../../../BitCloud/lib/libBc_Router_Atmega128rfa1_Atmega128rfa1_Gcc.a(zdo.o)
                0x0000fc04                zdoAuthenticationStart
 .text.ZDO_TaskHandler
                0x0000fc0c       0x7c ./../../../../BitCloud/lib/libBc_Router_Atmega128rfa1_Atmega128rfa1_Gcc.a(zdo.o)
                0x0000fc0c                ZDO_TaskHandler
 .text.APS_ZdoDataInd
                0x0000fc88      0x160 ./../../../../BitCloud/lib/libBc_Router_Atmega128rfa1_Atmega128rfa1_Gcc.a(zdo.o)
                0x0000fc88                APS_ZdoDataInd
 .text.ZDO_ZdpReq
                0x0000fde8       0x64 ./../../../../BitCloud/lib/libBc_Router_Atmega128rfa1_Atmega128rfa1_Gcc.a(zdo.o)
                0x0000fde8                ZDO_ZdpReq
 .text.sendNwkUpdateNotify
                0x0000fe4c       0x3e ./../../../../BitCloud/lib/libBc_Router_Atmega128rfa1_Atmega128rfa1_Gcc.a(zdo.o)
 .text.zdoZdpFrameProcessorHandler
                0x0000fe8a     0x1500 ./../../../../BitCloud/lib/libBc_Router_Atmega128rfa1_Atmega128rfa1_Gcc.a(zdo.o)
 .text.edScanConf
                0x0001138a       0x10 ./../../../../BitCloud/lib/libBc_Router_Atmega128rfa1_Atmega128rfa1_Gcc.a(zdo.o)
 .text.zdoSendDeviceAnnce
                0x0001139a       0xa0 ./../../../../BitCloud/lib/libBc_Router_Atmega128rfa1_Atmega128rfa1_Gcc.a(zdo.o)
 .text.APS_StartConf
                0x0001143a       0x2a ./../../../../BitCloud/lib/libBc_Router_Atmega128rfa1_Atmega128rfa1_Gcc.a(zdo.o)
 .text.NWK_StartRouterConf
                0x00011464       0x40 ./../../../../BitCloud/lib/libBc_Router_Atmega128rfa1_Atmega128rfa1_Gcc.a(zdo.o)
 .text.NWK_PermitJoinConf
                0x000114a4       0x5a ./../../../../BitCloud/lib/libBc_Router_Atmega128rfa1_Atmega128rfa1_Gcc.a(zdo.o)
 .text.zdoSendDeviceAnnceConf
                0x000114fe       0x34 ./../../../../BitCloud/lib/libBc_Router_Atmega128rfa1_Atmega128rfa1_Gcc.a(zdo.o)
 .text.zdoReloadZibFromConfigServer
                0x00011532      0x134 ./../../../../BitCloud/lib/libBc_Router_Atmega128rfa1_Atmega128rfa1_Gcc.a(zdo.o)
                0x00011532                zdoReloadZibFromConfigServer
 .text.zdoStartNetworkTaskHandler
                0x00011666      0x11e ./../../../../BitCloud/lib/libBc_Router_Atmega128rfa1_Atmega128rfa1_Gcc.a(zdo.o)
 .text.setNetworkParametersToZib
                0x00011784       0x48 ./../../../../BitCloud/lib/libBc_Router_Atmega128rfa1_Atmega128rfa1_Gcc.a(zdo.o)
                0x00011784                setNetworkParametersToZib
 .text.NWK_JoinConf
                0x000117cc       0x5a ./../../../../BitCloud/lib/libBc_Router_Atmega128rfa1_Atmega128rfa1_Gcc.a(zdo.o)
 .text.zdoStartNetworkStackResetConf
                0x00011826       0x4a ./../../../../BitCloud/lib/libBc_Router_Atmega128rfa1_Atmega128rfa1_Gcc.a(zdo.o)
 .text.zdoPerformIntraPanPortability
                0x00011870       0x32 ./../../../../BitCloud/lib/libBc_Router_Atmega128rfa1_Atmega128rfa1_Gcc.a(zdo.o)
                0x00011870                zdoPerformIntraPanPortability
 .text.NWK_NwkStatusInd
                0x000118a2       0xb2 ./../../../../BitCloud/lib/libBc_Router_Atmega128rfa1_Atmega128rfa1_Gcc.a(zdo.o)
                0x000118a2                NWK_NwkStatusInd
 .text.SYS_Sleep
                0x00011954        0x6 ./../../../../BitCloud/lib/libBc_Router_Atmega128rfa1_Atmega128rfa1_Gcc.a(bcSysSleep.o)
                0x00011954                SYS_Sleep
 .text.postNewMacRequest
                0x0001195a       0x46 ./../../../../BitCloud/lib/libBc_Router_Atmega128rfa1_Atmega128rfa1_Gcc.a(machwdManager.o)
 .text.putReqInQueue
                0x000119a0       0x18 ./../../../../BitCloud/lib/libBc_Router_Atmega128rfa1_Atmega128rfa1_Gcc.a(machwdManager.o)
 .text.MACHWD_DataReq
                0x000119b8        0xa ./../../../../BitCloud/lib/libBc_Router_Atmega128rfa1_Atmega128rfa1_Gcc.a(machwdManager.o)
                0x000119b8                MACHWD_DataReq
 .text.MACHWD_SetTrxStateReq
                0x000119c2        0xc ./../../../../BitCloud/lib/libBc_Router_Atmega128rfa1_Atmega128rfa1_Gcc.a(machwdManager.o)
                0x000119c2                MACHWD_SetTrxStateReq
 .text.MACHWD_SetReq
                0x000119ce        0xc ./../../../../BitCloud/lib/libBc_Router_Atmega128rfa1_Atmega128rfa1_Gcc.a(machwdManager.o)
                0x000119ce                MACHWD_SetReq
 .text.MACHWD_EdReq
                0x000119da        0xc ./../../../../BitCloud/lib/libBc_Router_Atmega128rfa1_Atmega128rfa1_Gcc.a(machwdManager.o)
                0x000119da                MACHWD_EdReq
 .text.RF_RandomReq
                0x000119e6       0x14 ./../../../../BitCloud/lib/libBc_Router_Atmega128rfa1_Atmega128rfa1_Gcc.a(machwdManager.o)
                0x000119e6                RF_RandomReq
 .text.MACHWD_Reset
                0x000119fa       0x46 ./../../../../BitCloud/lib/libBc_Router_Atmega128rfa1_Atmega128rfa1_Gcc.a(machwdManager.o)
                0x000119fa                MACHWD_Reset
 .text.MAC_PHY_HWD_TaskHandler
                0x00011a40      0x1b0 ./../../../../BitCloud/lib/libBc_Router_Atmega128rfa1_Atmega128rfa1_Gcc.a(machwdManager.o)
                0x00011a40                MAC_PHY_HWD_TaskHandler
 .text.machwdRegAccessReqHandler
                0x00011bf0       0x66 ./../../../../BitCloud/lib/libBc_Router_Atmega128rfa1_Atmega128rfa1_Gcc.a(machwdRegAccessHandler.o)
                0x00011bf0                machwdRegAccessReqHandler
 .text.machwdRegAccessTaskHandler
                0x00011c56       0x48 ./../../../../BitCloud/lib/libBc_Router_Atmega128rfa1_Atmega128rfa1_Gcc.a(machwdRegAccessHandler.o)
                0x00011c56                machwdRegAccessTaskHandler
 .text.machwdReset
                0x00011c9e       0xc6 ./../../../../BitCloud/lib/libBc_Router_Atmega128rfa1_Atmega128rfa1_Gcc.a(machwdResetHandler.o)
                0x00011c9e                machwdReset
 .text.machwdRndReqHandler
                0x00011d64       0x3a ./../../../../BitCloud/lib/libBc_Router_Atmega128rfa1_Atmega128rfa1_Gcc.a(machwdRndHandler.o)
                0x00011d64                machwdRndReqHandler
 .text.machwdRndTaskHandler
                0x00011d9e       0x32 ./../../../../BitCloud/lib/libBc_Router_Atmega128rfa1_Atmega128rfa1_Gcc.a(machwdRndHandler.o)
                0x00011d9e                machwdRndTaskHandler
 .text.machwdResetRndHandler
                0x00011dd0        0x6 ./../../../../BitCloud/lib/libBc_Router_Atmega128rfa1_Atmega128rfa1_Gcc.a(machwdRndHandler.o)
                0x00011dd0                machwdResetRndHandler
 .text.machwdResetRxBuffer
                0x00011dd6       0x62 ./../../../../BitCloud/lib/libBc_Router_Atmega128rfa1_Atmega128rfa1_Gcc.a(machwdRxBuffer.o)
                0x00011dd6                machwdResetRxBuffer
 .text.machwdNextBuffer
                0x00011e38       0x10 ./../../../../BitCloud/lib/libBc_Router_Atmega128rfa1_Atmega128rfa1_Gcc.a(machwdRxBuffer.o)
                0x00011e38                machwdNextBuffer
 .text.machwdReleaseBuffer
                0x00011e48       0x62 ./../../../../BitCloud/lib/libBc_Router_Atmega128rfa1_Atmega128rfa1_Gcc.a(machwdRxBuffer.o)
                0x00011e48                machwdReleaseBuffer
 .text.machwdNextBufferPresent
                0x00011eaa       0x26 ./../../../../BitCloud/lib/libBc_Router_Atmega128rfa1_Atmega128rfa1_Gcc.a(machwdRxBuffer.o)
                0x00011eaa                machwdNextBufferPresent
 .text.machwdRxFrameTaskHandler
                0x00011ed0       0x46 ./../../../../BitCloud/lib/libBc_Router_Atmega128rfa1_Atmega128rfa1_Gcc.a(machwdRxFrameHandler.o)
                0x00011ed0                machwdRxFrameTaskHandler
 .text.machwdRxFrameIndTaskHandler
                0x00011f16       0xa2 ./../../../../BitCloud/lib/libBc_Router_Atmega128rfa1_Atmega128rfa1_Gcc.a(machwdRxFrameHandler.o)
                0x00011f16                machwdRxFrameIndTaskHandler
 .text.executePhySetReq
                0x00011fb8       0x32 ./../../../../BitCloud/lib/libBc_Router_Atmega128rfa1_Atmega128rfa1_Gcc.a(machwdSetHandler.o)
 .text.executeSetReq
                0x00011fea       0x5c ./../../../../BitCloud/lib/libBc_Router_Atmega128rfa1_Atmega128rfa1_Gcc.a(machwdSetHandler.o)
 .text.machwdSetReqHandler
                0x00012046       0xba ./../../../../BitCloud/lib/libBc_Router_Atmega128rfa1_Atmega128rfa1_Gcc.a(machwdSetHandler.o)
                0x00012046                machwdSetReqHandler
 .text.machwdSetTaskHandler
                0x00012100       0x3a ./../../../../BitCloud/lib/libBc_Router_Atmega128rfa1_Atmega128rfa1_Gcc.a(machwdSetHandler.o)
                0x00012100                machwdSetTaskHandler
 .text.machwdResetSetHandler
                0x0001213a        0xe ./../../../../BitCloud/lib/libBc_Router_Atmega128rfa1_Atmega128rfa1_Gcc.a(machwdSetHandler.o)
                0x0001213a                machwdResetSetHandler
 .text.machwdSendTrxCmd
                0x00012148       0x1c ./../../../../BitCloud/lib/libBc_Router_Atmega128rfa1_Atmega128rfa1_Gcc.a(machwdTrxCtrl.o)
                0x00012148                machwdSendTrxCmd
 .text.machwdGetPhyTrxCmd
                0x00012164       0x14 ./../../../../BitCloud/lib/libBc_Router_Atmega128rfa1_Atmega128rfa1_Gcc.a(machwdTrxCtrl.o)
                0x00012164                machwdGetPhyTrxCmd
 .text.machwdConvertTrxCmdToTrxState
                0x00012178       0x14 ./../../../../BitCloud/lib/libBc_Router_Atmega128rfa1_Atmega128rfa1_Gcc.a(machwdTrxCtrl.o)
                0x00012178                machwdConvertTrxCmdToTrxState
 .text.machwdConvertTrxStateToTrxCmd
                0x0001218c       0x16 ./../../../../BitCloud/lib/libBc_Router_Atmega128rfa1_Atmega128rfa1_Gcc.a(machwdTrxCtrl.o)
                0x0001218c                machwdConvertTrxStateToTrxCmd
 .text.machwdTrxReqHandler
                0x000121a2       0x40 ./../../../../BitCloud/lib/libBc_Router_Atmega128rfa1_Atmega128rfa1_Gcc.a(machwdTrxHandler.o)
                0x000121a2                machwdTrxReqHandler
 .text.machwdTrxTaskHandler
                0x000121e2       0x40 ./../../../../BitCloud/lib/libBc_Router_Atmega128rfa1_Atmega128rfa1_Gcc.a(machwdTrxHandler.o)
                0x000121e2                machwdTrxTaskHandler
 .text.machwdResetTrxHandler
                0x00012222        0x6 ./../../../../BitCloud/lib/libBc_Router_Atmega128rfa1_Atmega128rfa1_Gcc.a(machwdTrxHandler.o)
                0x00012222                machwdResetTrxHandler
 .text.executeDataReq
                0x00012228       0x28 ./../../../../BitCloud/lib/libBc_Router_Atmega128rfa1_Atmega128rfa1_Gcc.a(machwdTxFrameHandler.o)
 .text.machwdTxFrameReqHandler
                0x00012250       0x44 ./../../../../BitCloud/lib/libBc_Router_Atmega128rfa1_Atmega128rfa1_Gcc.a(machwdTxFrameHandler.o)
                0x00012250                machwdTxFrameReqHandler
 .text.machwdTxFrameTaskHandler
                0x00012294       0x3a ./../../../../BitCloud/lib/libBc_Router_Atmega128rfa1_Atmega128rfa1_Gcc.a(machwdTxFrameHandler.o)
                0x00012294                machwdTxFrameTaskHandler
 .text.machwdResetTxFrameHandler
                0x000122ce        0xa ./../../../../BitCloud/lib/libBc_Router_Atmega128rfa1_Atmega128rfa1_Gcc.a(machwdTxFrameHandler.o)
                0x000122ce                machwdResetTxFrameHandler
 .text.postponeAction
                0x000122d8       0x2c ./../../../../BitCloud/lib/libBc_Router_Atmega128rfa1_Atmega128rfa1_Gcc.a(machwiManager.o)
 .text.putReqInQueue
                0x00012304       0x2c ./../../../../BitCloud/lib/libBc_Router_Atmega128rfa1_Atmega128rfa1_Gcc.a(machwiManager.o)
 .text.machwiSendConfToUpperLayer
                0x00012330       0xf2 ./../../../../BitCloud/lib/libBc_Router_Atmega128rfa1_Atmega128rfa1_Gcc.a(machwiManager.o)
                0x00012330                machwiSendConfToUpperLayer
 .text.MAC_HWI_TaskHandler
                0x00012422       0xd8 ./../../../../BitCloud/lib/libBc_Router_Atmega128rfa1_Atmega128rfa1_Gcc.a(machwiManager.o)
                0x00012422                MAC_HWI_TaskHandler
 .text.MAC_AssociateReq
                0x000124fa        0xc ./../../../../BitCloud/lib/libBc_Router_Atmega128rfa1_Atmega128rfa1_Gcc.a(machwiManager.o)
                0x000124fa                MAC_AssociateReq
 .text.MAC_AssociateResp
                0x00012506        0xc ./../../../../BitCloud/lib/libBc_Router_Atmega128rfa1_Atmega128rfa1_Gcc.a(machwiManager.o)
                0x00012506                MAC_AssociateResp
 .text.MAC_GetReq
                0x00012512        0xc ./../../../../BitCloud/lib/libBc_Router_Atmega128rfa1_Atmega128rfa1_Gcc.a(machwiManager.o)
                0x00012512                MAC_GetReq
 .text.MAC_ResetReq
                0x0001251e       0x58 ./../../../../BitCloud/lib/libBc_Router_Atmega128rfa1_Atmega128rfa1_Gcc.a(machwiManager.o)
                0x0001251e                MAC_ResetReq
 .text.MAC_RxEnableReq
                0x00012576        0xc ./../../../../BitCloud/lib/libBc_Router_Atmega128rfa1_Atmega128rfa1_Gcc.a(machwiManager.o)
                0x00012576                MAC_RxEnableReq
 .text.MAC_ScanReq
                0x00012582        0xc ./../../../../BitCloud/lib/libBc_Router_Atmega128rfa1_Atmega128rfa1_Gcc.a(machwiManager.o)
                0x00012582                MAC_ScanReq
 .text.MAC_SetReq
                0x0001258e        0xc ./../../../../BitCloud/lib/libBc_Router_Atmega128rfa1_Atmega128rfa1_Gcc.a(machwiManager.o)
                0x0001258e                MAC_SetReq
 .text.MAC_StartReq
                0x0001259a        0xc ./../../../../BitCloud/lib/libBc_Router_Atmega128rfa1_Atmega128rfa1_Gcc.a(machwiManager.o)
                0x0001259a                MAC_StartReq
 .text.MAC_PollReq
                0x000125a6        0xc ./../../../../BitCloud/lib/libBc_Router_Atmega128rfa1_Atmega128rfa1_Gcc.a(machwiManager.o)
                0x000125a6                MAC_PollReq
 .text.MAC_DataReq
                0x000125b2        0xc ./../../../../BitCloud/lib/libBc_Router_Atmega128rfa1_Atmega128rfa1_Gcc.a(machwiManager.o)
                0x000125b2                MAC_DataReq
 .text.machwiSendAssociateInd
                0x000125be        0xe ./../../../../BitCloud/lib/libBc_Router_Atmega128rfa1_Atmega128rfa1_Gcc.a(machwiManager.o)
                0x000125be                machwiSendAssociateInd
 .text.machwiSendDataInd
                0x000125cc        0xe ./../../../../BitCloud/lib/libBc_Router_Atmega128rfa1_Atmega128rfa1_Gcc.a(machwiManager.o)
                0x000125cc                machwiSendDataInd
 .text.machwiSendBeaconNotifyInd
                0x000125da        0xe ./../../../../BitCloud/lib/libBc_Router_Atmega128rfa1_Atmega128rfa1_Gcc.a(machwiManager.o)
                0x000125da                machwiSendBeaconNotifyInd
 .text.machwiSendSyncLossNotifyInd
                0x000125e8        0xe ./../../../../BitCloud/lib/libBc_Router_Atmega128rfa1_Atmega128rfa1_Gcc.a(machwiManager.o)
                0x000125e8                machwiSendSyncLossNotifyInd
 .text.machwiSendOrphanInd
                0x000125f6        0xe ./../../../../BitCloud/lib/libBc_Router_Atmega128rfa1_Atmega128rfa1_Gcc.a(machwiManager.o)
                0x000125f6                machwiSendOrphanInd
 .text.machwiSendPollInd
                0x00012604        0xe ./../../../../BitCloud/lib/libBc_Router_Atmega128rfa1_Atmega128rfa1_Gcc.a(machwiManager.o)
                0x00012604                machwiSendPollInd
 .text.machwiTxTransactionReq
                0x00012612        0x8 ./../../../../BitCloud/lib/libBc_Router_Atmega128rfa1_Atmega128rfa1_Gcc.a(machwiManager.o)
                0x00012612                machwiTxTransactionReq
 .text.machwiTxBeaconReq
                0x0001261a        0x8 ./../../../../BitCloud/lib/libBc_Router_Atmega128rfa1_Atmega128rfa1_Gcc.a(machwiManager.o)
                0x0001261a                machwiTxBeaconReq
 .text.MAC_IsActiveTransaction
                0x00012622       0x18 ./../../../../BitCloud/lib/libBc_Router_Atmega128rfa1_Atmega128rfa1_Gcc.a(machwiManager.o)
                0x00012622                MAC_IsActiveTransaction
 .text.machwdDataConfirm
                0x0001263a       0x22 ./../../../../BitCloud/lib/libBc_Router_Atmega128rfa1_Atmega128rfa1_Gcc.a(machwiOrphanHandler.o)
 .text.machwiOrphanRespHandler
                0x0001265c      0x18e ./../../../../BitCloud/lib/libBc_Router_Atmega128rfa1_Atmega128rfa1_Gcc.a(machwiOrphanHandler.o)
                0x0001265c                machwiOrphanRespHandler
 .text.machwiOrphanNotificationInd
                0x000127ea       0x44 ./../../../../BitCloud/lib/libBc_Router_Atmega128rfa1_Atmega128rfa1_Gcc.a(machwiOrphanHandler.o)
                0x000127ea                machwiOrphanNotificationInd
 .text.MACHWD_DataInd
                0x0001282e       0x7a ./../../../../BitCloud/lib/libBc_Router_Atmega128rfa1_Atmega128rfa1_Gcc.a(machwiPanServer.o)
                0x0001282e                MACHWD_DataInd
 .text.machwiEnableBeaconTransmission
                0x000128a8        0x8 ./../../../../BitCloud/lib/libBc_Router_Atmega128rfa1_Atmega128rfa1_Gcc.a(machwiPanServer.o)
                0x000128a8                machwiEnableBeaconTransmission
 .text.machwiResetPanServer
                0x000128b0        0x6 ./../../../../BitCloud/lib/libBc_Router_Atmega128rfa1_Atmega128rfa1_Gcc.a(machwiPanServer.o)
                0x000128b0                machwiResetPanServer
 .text.switchingCompleted
                0x000128b6       0x12 ./../../../../BitCloud/lib/libBc_Router_Atmega128rfa1_Atmega128rfa1_Gcc.a(machwiPollHandler.o)
 .text.completeHandling
                0x000128c8       0x18 ./../../../../BitCloud/lib/libBc_Router_Atmega128rfa1_Atmega128rfa1_Gcc.a(machwiPollHandler.o)
 .text.machwdDataConfirm
                0x000128e0       0x6e ./../../../../BitCloud/lib/libBc_Router_Atmega128rfa1_Atmega128rfa1_Gcc.a(machwiPollHandler.o)
 .text.halPollTimerFired
                0x0001294e        0x6 ./../../../../BitCloud/lib/libBc_Router_Atmega128rfa1_Atmega128rfa1_Gcc.a(machwiPollHandler.o)
 .text.machwiResetPollHandler
                0x00012954        0x6 ./../../../../BitCloud/lib/libBc_Router_Atmega128rfa1_Atmega128rfa1_Gcc.a(machwiPollHandler.o)
                0x00012954                machwiResetPollHandler
 .text.machwiPollInd
                0x0001295a       0x5a ./../../../../BitCloud/lib/libBc_Router_Atmega128rfa1_Atmega128rfa1_Gcc.a(machwiPollHandler.o)
                0x0001295a                machwiPollInd
 .text.machwiDataIndication
                0x000129b4      0x1cc ./../../../../BitCloud/lib/libBc_Router_Atmega128rfa1_Atmega128rfa1_Gcc.a(machwiPollHandler.o)
                0x000129b4                machwiDataIndication
 .text.machwiPollReqHandler
                0x00012b80      0x15c ./../../../../BitCloud/lib/libBc_Router_Atmega128rfa1_Atmega128rfa1_Gcc.a(machwiPollHandler.o)
                0x00012b80                machwiPollReqHandler
 .text.machwiPurgeReqHandler
                0x00012cdc       0x2e ./../../../../BitCloud/lib/libBc_Router_Atmega128rfa1_Atmega128rfa1_Gcc.a(machwiPurgeHandler.o)
                0x00012cdc                machwiPurgeReqHandler
 .text.finishResetOperationsAndGenerateConfirm
                0x00012d0a        0xe ./../../../../BitCloud/lib/libBc_Router_Atmega128rfa1_Atmega128rfa1_Gcc.a(machwiResetHandler.o)
 .text.machwdSetTrxStateConfirm
                0x00012d18        0x6 ./../../../../BitCloud/lib/libBc_Router_Atmega128rfa1_Atmega128rfa1_Gcc.a(machwiResetHandler.o)
 .text.machwdSetConfirm
                0x00012d1e       0x1c ./../../../../BitCloud/lib/libBc_Router_Atmega128rfa1_Atmega128rfa1_Gcc.a(machwiResetHandler.o)
 .text.machwiResetReqHandler
                0x00012d3a       0x72 ./../../../../BitCloud/lib/libBc_Router_Atmega128rfa1_Atmega128rfa1_Gcc.a(machwiResetHandler.o)
                0x00012d3a                machwiResetReqHandler
 .text.machwdSetTrxStateConfirm
                0x00012dac       0x12 ./../../../../BitCloud/lib/libBc_Router_Atmega128rfa1_Atmega128rfa1_Gcc.a(machwiRxEnableHandler.o)
 .text.machwiRxEnableReqHandler
                0x00012dbe       0x3a ./../../../../BitCloud/lib/libBc_Router_Atmega128rfa1_Atmega128rfa1_Gcc.a(machwiRxEnableHandler.o)
                0x00012dbe                machwiRxEnableReqHandler
 .text.setNextChannel
                0x00012df8       0x7a ./../../../../BitCloud/lib/libBc_Router_Atmega128rfa1_Atmega128rfa1_Gcc.a(machwiScanHandler.o)
 .text.switchToActiveChannel
                0x00012e72       0x2c ./../../../../BitCloud/lib/libBc_Router_Atmega128rfa1_Atmega128rfa1_Gcc.a(machwiScanHandler.o)
 .text.halScanTimerFired
                0x00012e9e       0x2a ./../../../../BitCloud/lib/libBc_Router_Atmega128rfa1_Atmega128rfa1_Gcc.a(machwiScanHandler.o)
 .text.machwdDataConfirm
                0x00012ec8       0x76 ./../../../../BitCloud/lib/libBc_Router_Atmega128rfa1_Atmega128rfa1_Gcc.a(machwiScanHandler.o)
 .text.machwdEdConfirm
                0x00012f3e       0xf0 ./../../../../BitCloud/lib/libBc_Router_Atmega128rfa1_Atmega128rfa1_Gcc.a(machwiScanHandler.o)
 .text.trxStateHandling
                0x0001302e       0x1a ./../../../../BitCloud/lib/libBc_Router_Atmega128rfa1_Atmega128rfa1_Gcc.a(machwiScanHandler.o)
 .text.finishScan
                0x00013048        0xe ./../../../../BitCloud/lib/libBc_Router_Atmega128rfa1_Atmega128rfa1_Gcc.a(machwiScanHandler.o)
 .text.generateScanConfirm
                0x00013056       0x12 ./../../../../BitCloud/lib/libBc_Router_Atmega128rfa1_Atmega128rfa1_Gcc.a(machwiScanHandler.o)
 .text.machwdSetConfirm
                0x00013068      0x2ea ./../../../../BitCloud/lib/libBc_Router_Atmega128rfa1_Atmega128rfa1_Gcc.a(machwiScanHandler.o)
 .text.machwdSetTrxStateConfirm
                0x00013352       0xf2 ./../../../../BitCloud/lib/libBc_Router_Atmega128rfa1_Atmega128rfa1_Gcc.a(machwiScanHandler.o)
 .text.machwiScanReqHandler
                0x00013444      0x1a0 ./../../../../BitCloud/lib/libBc_Router_Atmega128rfa1_Atmega128rfa1_Gcc.a(machwiScanHandler.o)
                0x00013444                machwiScanReqHandler
 .text.machwiBeaconInd
                0x000135e4      0x2da ./../../../../BitCloud/lib/libBc_Router_Atmega128rfa1_Atmega128rfa1_Gcc.a(machwiScanHandler.o)
                0x000135e4                machwiBeaconInd
 .text.machwiCoordRealignmentCommandInd
                0x000138be       0xe6 ./../../../../BitCloud/lib/libBc_Router_Atmega128rfa1_Atmega128rfa1_Gcc.a(machwiScanHandler.o)
                0x000138be                machwiCoordRealignmentCommandInd
 .text.machwiResetScanHandler
                0x000139a4        0x6 ./../../../../BitCloud/lib/libBc_Router_Atmega128rfa1_Atmega128rfa1_Gcc.a(machwiScanHandler.o)
                0x000139a4                machwiResetScanHandler
 .text.machwdSetConfirm
                0x000139aa        0xe ./../../../../BitCloud/lib/libBc_Router_Atmega128rfa1_Atmega128rfa1_Gcc.a(machwiSetGetHandler.o)
 .text.machwiGetReqHandler
                0x000139b8       0x4c ./../../../../BitCloud/lib/libBc_Router_Atmega128rfa1_Atmega128rfa1_Gcc.a(machwiSetGetHandler.o)
                0x000139b8                machwiGetReqHandler
 .text.machwiSetReqHandler
                0x00013a04       0xae ./../../../../BitCloud/lib/libBc_Router_Atmega128rfa1_Atmega128rfa1_Gcc.a(machwiSetGetHandler.o)
                0x00013a04                machwiSetReqHandler
 .text.setHandling
                0x00013ab2       0x64 ./../../../../BitCloud/lib/libBc_Router_Atmega128rfa1_Atmega128rfa1_Gcc.a(machwiStartHandler.o)
 .text.setStartReqParam
                0x00013b16       0xa8 ./../../../../BitCloud/lib/libBc_Router_Atmega128rfa1_Atmega128rfa1_Gcc.a(machwiStartHandler.o)
 .text.generateConfirm
                0x00013bbe       0x3a ./../../../../BitCloud/lib/libBc_Router_Atmega128rfa1_Atmega128rfa1_Gcc.a(machwiStartHandler.o)
 .text.machwdSetConfirm
                0x00013bf8      0x19e ./../../../../BitCloud/lib/libBc_Router_Atmega128rfa1_Atmega128rfa1_Gcc.a(machwiStartHandler.o)
 .text.machwdDataConfirm
                0x00013d96       0x36 ./../../../../BitCloud/lib/libBc_Router_Atmega128rfa1_Atmega128rfa1_Gcc.a(machwiStartHandler.o)
 .text.machwiStartReqHandler
                0x00013dcc       0x56 ./../../../../BitCloud/lib/libBc_Router_Atmega128rfa1_Atmega128rfa1_Gcc.a(machwiStartHandler.o)
                0x00013dcc                machwiStartReqHandler
 .text.machwiResetStartHandler
                0x00013e22        0xa ./../../../../BitCloud/lib/libBc_Router_Atmega128rfa1_Atmega128rfa1_Gcc.a(machwiStartHandler.o)
                0x00013e22                machwiResetStartHandler
 .text.machwdSetTrxStateConfirm
                0x00013e2c        0xc ./../../../../BitCloud/lib/libBc_Router_Atmega128rfa1_Atmega128rfa1_Gcc.a(machwiSwitchRxCtrl.o)
 .text.machwiSwitchRxAccordToRxOnWhenIdle
                0x00013e38       0x2a ./../../../../BitCloud/lib/libBc_Router_Atmega128rfa1_Atmega128rfa1_Gcc.a(machwiSwitchRxCtrl.o)
                0x00013e38                machwiSwitchRxAccordToRxOnWhenIdle
 .text.machwdDataConfirmEmptyData
                0x00013e62        0x6 ./../../../../BitCloud/lib/libBc_Router_Atmega128rfa1_Atmega128rfa1_Gcc.a(machwiTransactionHandler.o)
 .text.machwiResetTransactionHandler
                0x00013e68        0xa ./../../../../BitCloud/lib/libBc_Router_Atmega128rfa1_Atmega128rfa1_Gcc.a(machwiTransactionHandler.o)
                0x00013e68                machwiResetTransactionHandler
 .text.machwiSendTransactionEvent
                0x00013e72      0x1da ./../../../../BitCloud/lib/libBc_Router_Atmega128rfa1_Atmega128rfa1_Gcc.a(machwiTransactionHandler.o)
                0x00013e72                machwiSendTransactionEvent
 .text.machwdDataConfirm
                0x0001404c       0xbc ./../../../../BitCloud/lib/libBc_Router_Atmega128rfa1_Atmega128rfa1_Gcc.a(machwiTransactionHandler.o)
 .text.replyWithEmptyDataFrame
                0x00014108       0x98 ./../../../../BitCloud/lib/libBc_Router_Atmega128rfa1_Atmega128rfa1_Gcc.a(machwiTransactionHandler.o)
                0x00014108                replyWithEmptyDataFrame
 .text.stopTransactionTimer
                0x000141a0        0xa ./../../../../BitCloud/lib/libBc_Router_Atmega128rfa1_Atmega128rfa1_Gcc.a(machwiTransactionQueue.o)
 .text.transactionTimerFired
                0x000141aa       0x5e ./../../../../BitCloud/lib/libBc_Router_Atmega128rfa1_Atmega128rfa1_Gcc.a(machwiTransactionQueue.o)
 .text.machwiPutTransactionToQueue
                0x00014208       0x76 ./../../../../BitCloud/lib/libBc_Router_Atmega128rfa1_Atmega128rfa1_Gcc.a(machwiTransactionQueue.o)
                0x00014208                machwiPutTransactionToQueue
 .text.machwiGetActivatedTransactionFromQueue
                0x0001427e       0x20 ./../../../../BitCloud/lib/libBc_Router_Atmega128rfa1_Atmega128rfa1_Gcc.a(machwiTransactionQueue.o)
                0x0001427e                machwiGetActivatedTransactionFromQueue
 .text.machwiTestAndKickQueueTransactions
                0x0001429e      0x24c ./../../../../BitCloud/lib/libBc_Router_Atmega128rfa1_Atmega128rfa1_Gcc.a(machwiTransactionQueue.o)
                0x0001429e                machwiTestAndKickQueueTransactions
 .text.machwiFillPendingAddrSpecAndList
                0x000144ea        0x8 ./../../../../BitCloud/lib/libBc_Router_Atmega128rfa1_Atmega128rfa1_Gcc.a(machwiTransactionQueue.o)
                0x000144ea                machwiFillPendingAddrSpecAndList
 .text.machwiDeleteTransactionFromQueue
                0x000144f2       0x2c ./../../../../BitCloud/lib/libBc_Router_Atmega128rfa1_Atmega128rfa1_Gcc.a(machwiTransactionQueue.o)
                0x000144f2                machwiDeleteTransactionFromQueue
 .text.machwiPurgeTransactionFromQueue
                0x0001451e       0x3a ./../../../../BitCloud/lib/libBc_Router_Atmega128rfa1_Atmega128rfa1_Gcc.a(machwiTransactionQueue.o)
                0x0001451e                machwiPurgeTransactionFromQueue
 .text.machwiResetTransactionQueue
                0x00014558       0x3a ./../../../../BitCloud/lib/libBc_Router_Atmega128rfa1_Atmega128rfa1_Gcc.a(machwiTransactionQueue.o)
                0x00014558                machwiResetTransactionQueue
 .text.machwiTransactionQueueEmpty
                0x00014592       0x14 ./../../../../BitCloud/lib/libBc_Router_Atmega128rfa1_Atmega128rfa1_Gcc.a(machwiTransactionQueue.o)
                0x00014592                machwiTransactionQueueEmpty
 .text.RF_Init  0x000145a6       0x2e ./../../../../BitCloud/lib/libBc_Router_Atmega128rfa1_Atmega128rfa1_Gcc.a(phyInit.o)
                0x000145a6                RF_Init
 .text.PHY_RegWriteReq
                0x000145d4       0x3c ./../../../../BitCloud/lib/libBc_Router_Atmega128rfa1_Atmega128rfa1_Gcc.a(phyRegAccess.o)
                0x000145d4                PHY_RegWriteReq
 .text.PHY_RegReadReq
                0x00014610       0x3c ./../../../../BitCloud/lib/libBc_Router_Atmega128rfa1_Atmega128rfa1_Gcc.a(phyRegAccess.o)
                0x00014610                PHY_RegReadReq
 .text.PHY_Reset
                0x0001464c       0xae ./../../../../BitCloud/lib/libBc_Router_Atmega128rfa1_Atmega128rfa1_Gcc.a(phyReset.o)
                0x0001464c                PHY_Reset
 .text.phyRxEndInterrupt
                0x000146fa      0x2d4 ./../../../../BitCloud/lib/libBc_Router_Atmega128rfa1_Atmega128rfa1_Gcc.a(phyRfIrqDispatcher.o)
                0x000146fa                phyRxEndInterrupt
 .text.phyTxEndInterrupt
                0x000149ce       0x8a ./../../../../BitCloud/lib/libBc_Router_Atmega128rfa1_Atmega128rfa1_Gcc.a(phyRfIrqDispatcher.o)
                0x000149ce                phyTxEndInterrupt
 .text.phyRestoreRfIrqMask
                0x00014a58        0x6 ./../../../../BitCloud/lib/libBc_Router_Atmega128rfa1_Atmega128rfa1_Gcc.a(phyRfIrqDispatcher.o)
                0x00014a58                phyRestoreRfIrqMask
 .text.phyClearRfIrqMask
                0x00014a5e        0xa ./../../../../BitCloud/lib/libBc_Router_Atmega128rfa1_Atmega128rfa1_Gcc.a(phyRfIrqDispatcher.o)
                0x00014a5e                phyClearRfIrqMask
 .text.phyGetDataStatus
                0x00014a68       0x16 ./../../../../BitCloud/lib/libBc_Router_Atmega128rfa1_Atmega128rfa1_Gcc.a(phyRfIrqDispatcher.o)
                0x00014a68                phyGetDataStatus
 .text.PHY_RndReq
                0x00014a7e       0xee ./../../../../BitCloud/lib/libBc_Router_Atmega128rfa1_Atmega128rfa1_Gcc.a(phyRnd.o)
                0x00014a7e                PHY_RndReq
 .text.PHY_DownloadFrame
                0x00014b6c      0x196 ./../../../../BitCloud/lib/libBc_Router_Atmega128rfa1_Atmega128rfa1_Gcc.a(phyRxFrame.o)
                0x00014b6c                PHY_DownloadFrame
 .text.PHY_SetReq
                0x00014d02      0x1f2 ./../../../../BitCloud/lib/libBc_Router_Atmega128rfa1_Atmega128rfa1_Gcc.a(phySet.o)
                0x00014d02                PHY_SetReq
 .text.PHY_SetTrxStateReq
                0x00014ef4       0x80 ./../../../../BitCloud/lib/libBc_Router_Atmega128rfa1_Atmega128rfa1_Gcc.a(phySetTrxState.o)
                0x00014ef4                PHY_SetTrxStateReq
 .text.PHY_DataReq
                0x00014f74       0x28 ./../../../../BitCloud/lib/libBc_Router_Atmega128rfa1_Atmega128rfa1_Gcc.a(phyTxFrame.o)
                0x00014f74                PHY_DataReq
 .text.machwdCalibReqHandler
                0x00014f9c       0x42 ./../../../../BitCloud/lib/libBc_Router_Atmega128rfa1_Atmega128rfa1_Gcc.a(machwdCalibHandler.o)
                0x00014f9c                machwdCalibReqHandler
 .text.machwdCalibTaskHandler
                0x00014fde       0x34 ./../../../../BitCloud/lib/libBc_Router_Atmega128rfa1_Atmega128rfa1_Gcc.a(machwdCalibHandler.o)
                0x00014fde                machwdCalibTaskHandler
 .text.machwdResetCalibHandler
                0x00015012        0x6 ./../../../../BitCloud/lib/libBc_Router_Atmega128rfa1_Atmega128rfa1_Gcc.a(machwdCalibHandler.o)
                0x00015012                machwdResetCalibHandler
 .text.machwdEdReqHandler
                0x00015018       0x28 ./../../../../BitCloud/lib/libBc_Router_Atmega128rfa1_Atmega128rfa1_Gcc.a(machwdEdHandler.o)
                0x00015018                machwdEdReqHandler
 .text.machwdEdTaskHandler
                0x00015040       0x28 ./../../../../BitCloud/lib/libBc_Router_Atmega128rfa1_Atmega128rfa1_Gcc.a(machwdEdHandler.o)
                0x00015040                machwdEdTaskHandler
 .text.machwdResetEdHandler
                0x00015068        0x6 ./../../../../BitCloud/lib/libBc_Router_Atmega128rfa1_Atmega128rfa1_Gcc.a(machwdEdHandler.o)
                0x00015068                machwdResetEdHandler
 .text.composePanIdAndAddress
                0x0001506e       0x56 ./../../../../BitCloud/lib/libBc_Router_Atmega128rfa1_Atmega128rfa1_Gcc.a(machwdFrameRoutine.o)
 .text.parsePanIdAndAddress
                0x000150c4       0x58 ./../../../../BitCloud/lib/libBc_Router_Atmega128rfa1_Atmega128rfa1_Gcc.a(machwdFrameRoutine.o)
 .text.machwdParseFrame
                0x0001511c      0x282 ./../../../../BitCloud/lib/libBc_Router_Atmega128rfa1_Atmega128rfa1_Gcc.a(machwdFrameRoutine.o)
                0x0001511c                machwdParseFrame
 .text.machwdComposeFrame
                0x0001539e      0x1c0 ./../../../../BitCloud/lib/libBc_Router_Atmega128rfa1_Atmega128rfa1_Gcc.a(machwdFrameRoutine.o)
                0x0001539e                machwdComposeFrame
 .text.machwdGetHandlerId
                0x0001555e       0x48 ./../../../../BitCloud/lib/libBc_Router_Atmega128rfa1_Atmega128rfa1_Gcc.a(machwdHandlerCtrl.o)
                0x0001555e                machwdGetHandlerId
 .text.setHandling
                0x000155a6       0x64 ./../../../../BitCloud/lib/libBc_Router_Atmega128rfa1_Atmega128rfa1_Gcc.a(machwiAssociateHandler.o)
 .text.completeHandling
                0x0001560a       0x18 ./../../../../BitCloud/lib/libBc_Router_Atmega128rfa1_Atmega128rfa1_Gcc.a(machwiAssociateHandler.o)
 .text.machwdSetConfirm
                0x00015622      0x18c ./../../../../BitCloud/lib/libBc_Router_Atmega128rfa1_Atmega128rfa1_Gcc.a(machwiAssociateHandler.o)
 .text.machwdDataConfirm
                0x000157ae       0xba ./../../../../BitCloud/lib/libBc_Router_Atmega128rfa1_Atmega128rfa1_Gcc.a(machwiAssociateHandler.o)
 .text.associateTimerFired
                0x00015868      0x100 ./../../../../BitCloud/lib/libBc_Router_Atmega128rfa1_Atmega128rfa1_Gcc.a(machwiAssociateHandler.o)
 .text.switchingCompleted
                0x00015968       0x12 ./../../../../BitCloud/lib/libBc_Router_Atmega128rfa1_Atmega128rfa1_Gcc.a(machwiAssociateHandler.o)
 .text.machwiResetAssociateHandler
                0x0001597a        0x6 ./../../../../BitCloud/lib/libBc_Router_Atmega128rfa1_Atmega128rfa1_Gcc.a(machwiAssociateHandler.o)
                0x0001597a                machwiResetAssociateHandler
 .text.machwiAssociateReqInd
                0x00015980       0x52 ./../../../../BitCloud/lib/libBc_Router_Atmega128rfa1_Atmega128rfa1_Gcc.a(machwiAssociateHandler.o)
                0x00015980                machwiAssociateReqInd
 .text.machwiAssociateReqHandler
                0x000159d2       0x9a ./../../../../BitCloud/lib/libBc_Router_Atmega128rfa1_Atmega128rfa1_Gcc.a(machwiAssociateHandler.o)
                0x000159d2                machwiAssociateReqHandler
 .text.machwiAssociateRespHandler
                0x00015a6c       0x20 ./../../../../BitCloud/lib/libBc_Router_Atmega128rfa1_Atmega128rfa1_Gcc.a(machwiAssociateHandler.o)
                0x00015a6c                machwiAssociateRespHandler
 .text.machwiAssociateRespInd
                0x00015a8c      0x132 ./../../../../BitCloud/lib/libBc_Router_Atmega128rfa1_Atmega128rfa1_Gcc.a(machwiAssociateHandler.o)
                0x00015a8c                machwiAssociateRespInd
 .text.machwdDataConfirm
                0x00015bbe       0x20 ./../../../../BitCloud/lib/libBc_Router_Atmega128rfa1_Atmega128rfa1_Gcc.a(machwiBeaconHandler.o)
 .text.machwiSendBeacon
                0x00015bde      0x102 ./../../../../BitCloud/lib/libBc_Router_Atmega128rfa1_Atmega128rfa1_Gcc.a(machwiBeaconHandler.o)
                0x00015bde                machwiSendBeacon
 .text.machwdDataConfirm
                0x00015ce0       0x26 ./../../../../BitCloud/lib/libBc_Router_Atmega128rfa1_Atmega128rfa1_Gcc.a(machwiDataHandler.o)
 .text.machwiConvertmachwdDataConfirmTypes
                0x00015d06       0x14 ./../../../../BitCloud/lib/libBc_Router_Atmega128rfa1_Atmega128rfa1_Gcc.a(machwiDataHandler.o)
                0x00015d06                machwiConvertmachwdDataConfirmTypes
 .text.machwiPrepareDataFrame
                0x00015d1a      0x10e ./../../../../BitCloud/lib/libBc_Router_Atmega128rfa1_Atmega128rfa1_Gcc.a(machwiDataHandler.o)
                0x00015d1a                machwiPrepareDataFrame
 .text.machwiDataReqHandler
                0x00015e28       0x62 ./../../../../BitCloud/lib/libBc_Router_Atmega128rfa1_Atmega128rfa1_Gcc.a(machwiDataHandler.o)
                0x00015e28                machwiDataReqHandler
 .text.machwiCalculateAddressHash
                0x00015e8a       0x2e ./../../../../BitCloud/lib/libBc_Router_Atmega128rfa1_Atmega128rfa1_Gcc.a(machwiTransactionHash.o)
 .text.machwiCalculateTransactionHash
                0x00015eb8       0x32 ./../../../../BitCloud/lib/libBc_Router_Atmega128rfa1_Atmega128rfa1_Gcc.a(machwiTransactionHash.o)
 .text.machwiTransctionHashInsert
                0x00015eea       0x2c ./../../../../BitCloud/lib/libBc_Router_Atmega128rfa1_Atmega128rfa1_Gcc.a(machwiTransactionHash.o)
                0x00015eea                machwiTransctionHashInsert
 .text.machwiTransactionHashRemove
                0x00015f16       0x68 ./../../../../BitCloud/lib/libBc_Router_Atmega128rfa1_Atmega128rfa1_Gcc.a(machwiTransactionHash.o)
                0x00015f16                machwiTransactionHashRemove
 .text.machwiIsNoDataPending
                0x00015f7e       0x2a ./../../../../BitCloud/lib/libBc_Router_Atmega128rfa1_Atmega128rfa1_Gcc.a(machwiTransactionHash.o)
                0x00015f7e                machwiIsNoDataPending
 .text.machwiTransactionHashClear
                0x00015fa8       0x10 ./../../../../BitCloud/lib/libBc_Router_Atmega128rfa1_Atmega128rfa1_Gcc.a(machwiTransactionHash.o)
                0x00015fa8                machwiTransactionHashClear
 .text.PHY_CalibReq
                0x00015fb8       0x86 ./../../../../BitCloud/lib/libBc_Router_Atmega128rfa1_Atmega128rfa1_Gcc.a(phyCalib.o)
                0x00015fb8                PHY_CalibReq
 .text.PHY_EdReq
                0x0001603e       0x40 ./../../../../BitCloud/lib/libBc_Router_Atmega128rfa1_Atmega128rfa1_Gcc.a(phyEd.o)
                0x0001603e                PHY_EdReq
 .text.phySetRTimerSource
                0x0001607e        0x6 ./../../../../BitCloud/lib/libBc_Router_Atmega128rfa1_Atmega128rfa1_Gcc.a(phyRtimerIrqDispatcher.o)
                0x0001607e                phySetRTimerSource
 .text.phyDispatcheRTimerEvent
                0x00016084       0xb2 ./../../../../BitCloud/lib/libBc_Router_Atmega128rfa1_Atmega128rfa1_Gcc.a(phyRtimerIrqDispatcher.o)
                0x00016084                phyDispatcheRTimerEvent
 .text.HAL_Delay
                0x00016136        0x6 ./../../../../BitCloud/lib/libHAL_RcbAtm128rfa1_Atmega128rfa1_8Mhz_Gcc.a(halDelay.o)
                0x00016136                HAL_Delay
 .text.HAL_Init
                0x0001613c       0x3c ./../../../../BitCloud/lib/libHAL_RcbAtm128rfa1_Atmega128rfa1_8Mhz_Gcc.a(halInit.o)
                0x0001613c                HAL_Init
 .text.HAL_EnableRxTxSwitcher
                0x00016178        0x6 ./../../../../BitCloud/lib/libHAL_RcbAtm128rfa1_Atmega128rfa1_8Mhz_Gcc.a(halRfCtrl.o)
                0x00016178                HAL_EnableRxTxSwitcher
 .text.HAL_InitAntennaDiversity
                0x0001617e        0x2 ./../../../../BitCloud/lib/libHAL_RcbAtm128rfa1_Atmega128rfa1_8Mhz_Gcc.a(halRfCtrl.o)
                0x0001617e                HAL_InitAntennaDiversity
 .text.HAL_EnableRxAntennaDiversity
                0x00016180        0x2 ./../../../../BitCloud/lib/libHAL_RcbAtm128rfa1_Atmega128rfa1_8Mhz_Gcc.a(halRfCtrl.o)
                0x00016180                HAL_EnableRxAntennaDiversity
 .text.HAL_EnableTxAntennaDiversity
                0x00016182        0x2 ./../../../../BitCloud/lib/libHAL_RcbAtm128rfa1_Atmega128rfa1_8Mhz_Gcc.a(halRfCtrl.o)
                0x00016182                HAL_EnableTxAntennaDiversity
 .text.halWriteByteSpi
                0x00016184        0xe ./../../../../BitCloud/lib/libHAL_RcbAtm128rfa1_Atmega128rfa1_8Mhz_Gcc.a(halUid.o)
 .text.halReadUid
                0x00016192       0x52 ./../../../../BitCloud/lib/libHAL_RcbAtm128rfa1_Atmega128rfa1_8Mhz_Gcc.a(halUid.o)
                0x00016192                halReadUid
 .text.HAL_ReadUid
                0x000161e4       0x44 ./../../../../BitCloud/lib/libHAL_RcbAtm128rfa1_Atmega128rfa1_8Mhz_Gcc.a(halUid.o)
                0x000161e4                HAL_ReadUid
 .text.HAL_InitMacIsr
                0x00016228        0x8 ./../../../../BitCloud/lib/libHAL_RcbAtm128rfa1_Atmega128rfa1_8Mhz_Gcc.a(halMacIsr.o)
                0x00016228                HAL_InitMacIsr
 .text.HAL_StartRtimer
                0x00016230       0x72 ./../../../../BitCloud/lib/libHAL_RcbAtm128rfa1_Atmega128rfa1_8Mhz_Gcc.a(halMacIsr.o)
                0x00016230                HAL_StartRtimer
 .text.HAL_StopRtimer
                0x000162a2       0x14 ./../../../../BitCloud/lib/libHAL_RcbAtm128rfa1_Atmega128rfa1_8Mhz_Gcc.a(halMacIsr.o)
                0x000162a2                HAL_StopRtimer
 .text.__vector_43
                0x000162b6       0xba ./../../../../BitCloud/lib/libHAL_RcbAtm128rfa1_Atmega128rfa1_8Mhz_Gcc.a(halMacIsr.o)
                0x000162b6                __vector_43
 .text.__vector_60
                0x00016370       0x50 ./../../../../BitCloud/lib/libHAL_RcbAtm128rfa1_Atmega128rfa1_8Mhz_Gcc.a(halMacIsr.o)
                0x00016370                __vector_60
 .text.__vector_63
                0x000163c0       0x50 ./../../../../BitCloud/lib/libHAL_RcbAtm128rfa1_Atmega128rfa1_8Mhz_Gcc.a(halMacIsr.o)
                0x000163c0                __vector_63
 .text.libgcc   0x00016410       0x3e d:/program files/atmel/avr studio 5.1/extensions/atmel/avrgcc/3.3.1.27/avrtoolchain/bin/../lib/gcc/avr/4.5.1/avr51\libgcc.a(_mulsi3.o)
                0x00016410                __mulsi3
 .text.libgcc   0x0001644e       0x18 d:/program files/atmel/avr studio 5.1/extensions/atmel/avrgcc/3.3.1.27/avrtoolchain/bin/../lib/gcc/avr/4.5.1/avr51\libgcc.a(_udivmodqi4.o)
                0x0001644e                __udivmodqi4
 .text.libgcc   0x00016466       0x28 d:/program files/atmel/avr studio 5.1/extensions/atmel/avrgcc/3.3.1.27/avrtoolchain/bin/../lib/gcc/avr/4.5.1/avr51\libgcc.a(_udivmodhi4.o)
                0x00016466                __udivmodhi4
 .text.libgcc   0x0001648e       0x44 d:/program files/atmel/avr studio 5.1/extensions/atmel/avrgcc/3.3.1.27/avrtoolchain/bin/../lib/gcc/avr/4.5.1/avr51\libgcc.a(_udivmodsi4.o)
                0x0001648e                __udivmodsi4
 .text.libgcc   0x000164d2       0x38 d:/program files/atmel/avr studio 5.1/extensions/atmel/avrgcc/3.3.1.27/avrtoolchain/bin/../lib/gcc/avr/4.5.1/avr51\libgcc.a(_prologue.o)
                0x000164d2                __prologue_saves__
 .text.libgcc   0x0001650a       0x36 d:/program files/atmel/avr studio 5.1/extensions/atmel/avrgcc/3.3.1.27/avrtoolchain/bin/../lib/gcc/avr/4.5.1/avr51\libgcc.a(_epilogue.o)
                0x0001650a                __epilogue_restores__
 .text.libgcc   0x00016540        0xc d:/program files/atmel/avr studio 5.1/extensions/atmel/avrgcc/3.3.1.27/avrtoolchain/bin/../lib/gcc/avr/4.5.1/avr51\libgcc.a(_tablejump.o)
                0x00016540                __tablejump2__
                0x00016544                __tablejump__
 .text.avr-libc
                0x0001654c       0xbc d:/program files/atmel/avr studio 5.1/extensions/atmel/avrgcc/3.3.1.27/avrtoolchain/bin/../lib/gcc/avr/4.5.1/../../../../avr/lib/avr51\libc.a(rand.o)
                0x000165e2                rand_r
                0x000165e8                rand
                0x000165f2                srand
 .text.avr-libc
                0x00016608       0x12 d:/program files/atmel/avr studio 5.1/extensions/atmel/avrgcc/3.3.1.27/avrtoolchain/bin/../lib/gcc/avr/4.5.1/../../../../avr/lib/avr51\libc.a(memcpy_P.o)
                0x00016608                memcpy_P
 .text.avr-libc
                0x0001661a       0x1a d:/program files/atmel/avr studio 5.1/extensions/atmel/avrgcc/3.3.1.27/avrtoolchain/bin/../lib/gcc/avr/4.5.1/../../../../avr/lib/avr51\libc.a(memcmp.o)
                0x0001661a                memcmp
 .text.avr-libc
                0x00016634       0x12 d:/program files/atmel/avr studio 5.1/extensions/atmel/avrgcc/3.3.1.27/avrtoolchain/bin/../lib/gcc/avr/4.5.1/../../../../avr/lib/avr51\libc.a(memcpy.o)
                0x00016634                memcpy
 .text.avr-libc
                0x00016646       0x24 d:/program files/atmel/avr studio 5.1/extensions/atmel/avrgcc/3.3.1.27/avrtoolchain/bin/../lib/gcc/avr/4.5.1/../../../../avr/lib/avr51\libc.a(memmove.o)
                0x00016646                memmove
 .text.avr-libc
                0x0001666a        0xe d:/program files/atmel/avr studio 5.1/extensions/atmel/avrgcc/3.3.1.27/avrtoolchain/bin/../lib/gcc/avr/4.5.1/../../../../avr/lib/avr51\libc.a(memset.o)
                0x0001666a                memset
 .text.avr-libc
                0x00016678        0xe d:/program files/atmel/avr studio 5.1/extensions/atmel/avrgcc/3.3.1.27/avrtoolchain/bin/../lib/gcc/avr/4.5.1/../../../../avr/lib/avr51\libc.a(strcpy.o)
                0x00016678                strcpy
 .text.libgcc   0x00016686       0x36 d:/program files/atmel/avr studio 5.1/extensions/atmel/avrgcc/3.3.1.27/avrtoolchain/bin/../lib/gcc/avr/4.5.1/avr51\libgcc.a(_divmodsi4.o)
                0x00016686                __divmodsi4
                0x000166bc                PROVIDE (__text_end, .)

.data           0x00800200      0x11a load address 0x000166bc
                0x00800200                PROVIDE (__data_start, .)
 *(.data*)
 .data          0x00800200       0x9f Router_Rcb_Atmega128rfa1_8Mhz_Gcc/Obj/blink.o
 .data          0x0080029f        0x9 ./../../../../BitCloud/lib/libHAL_RcbAtm128rfa1_Atmega128rfa1_8Mhz_Gcc.a(usart.o)
 .data          0x008002a8        0x6 ./../../../../BitCloud/lib/libBc_Router_Atmega128rfa1_Atmega128rfa1_Gcc.a(nwk.o)
 .data          0x008002ae       0x16 ./../../../../BitCloud/lib/libBc_Router_Atmega128rfa1_Atmega128rfa1_Gcc.a(taskManager.o)
 .data          0x008002c4       0x26 ./../../../../BitCloud/lib/libBc_Router_Atmega128rfa1_Atmega128rfa1_Gcc.a(zdo.o)
 .data          0x008002ea       0x18 ./../../../../BitCloud/lib/libBc_Router_Atmega128rfa1_Atmega128rfa1_Gcc.a(machwdTrxCtrl.o)
 .data          0x00800302        0x5 ./../../../../BitCloud/lib/libBc_Router_Atmega128rfa1_Atmega128rfa1_Gcc.a(machwiSetGetHandler.o)
 .data          0x00800307        0x8 ./../../../../BitCloud/lib/libBc_Router_Atmega128rfa1_Atmega128rfa1_Gcc.a(phyRfIrqDispatcher.o)
 .data          0x0080030f        0x2 ./../../../../BitCloud/lib/libBc_Router_Atmega128rfa1_Atmega128rfa1_Gcc.a(machwdFrameRoutine.o)
 .data          0x00800311        0x4 ./../../../../BitCloud/lib/libBc_Router_Atmega128rfa1_Atmega128rfa1_Gcc.a(machwiDataHandler.o)
 .data          0x00800315        0x4 d:/program files/atmel/avr studio 5.1/extensions/atmel/avrgcc/3.3.1.27/avrtoolchain/bin/../lib/gcc/avr/4.5.1/../../../../avr/lib/avr51\libc.a(rand.o)
 *(.rodata*)
 *(.gnu.linkonce.d*)
                0x0080031a                . = ALIGN (0x2)
 *fill*         0x00800319        0x1 00
                0x0080031a                PROVIDE (__data_end, .)

.bss            0x0080031a     0x139b load address 0x000167d6
                0x0080031a                PROVIDE (__bss_start, .)
 *(.bss*)
 .bss           0x0080031a       0x9d Router_Rcb_Atmega128rfa1_8Mhz_Gcc/Obj/blink.o
                0x0080031a                rxOnWhenIdle
                0x0080031b                human_s
                0x00800320                sensor_state
                0x00800322                restart
 .bss           0x008003b7        0x8 Router_Rcb_Atmega128rfa1_8Mhz_Gcc/Obj/pdsWriteData.o
 .bss           0x008003bf        0x1 Router_Rcb_Atmega128rfa1_8Mhz_Gcc/Obj/bspTaskManager.o
                0x008003bf                bspTaskFlags
 .bss           0x008003c0        0x6 Router_Rcb_Atmega128rfa1_8Mhz_Gcc/Obj/buttons.o
 .bss           0x008003c6        0x2 ./../../../../BitCloud/lib/libHAL_RcbAtm128rfa1_Atmega128rfa1_8Mhz_Gcc.a(appTimer.o)
 .bss           0x008003c8        0x5 ./../../../../BitCloud/lib/libHAL_RcbAtm128rfa1_Atmega128rfa1_8Mhz_Gcc.a(halTaskManager.o)
                0x008003c8                halTaskFlags0
                0x008003c9                halTaskFlags1
                0x008003ca                halTaskFlags2
                0x008003cb                halTaskFlags3
                0x008003cc                halTaskFlags4
 .bss           0x008003cd        0x8 ./../../../../BitCloud/lib/libHAL_RcbAtm128rfa1_Atmega128rfa1_8Mhz_Gcc.a(usart.o)
                0x008003cd                halPointDescrip
                0x008003d1                halEnableDtrWakeUp
                0x008003d2                dtrWakeUpCallback
 .bss           0x008003d5        0x2 ./../../../../BitCloud/lib/libHAL_RcbAtm128rfa1_Atmega128rfa1_8Mhz_Gcc.a(i2cPacket.o)
 .bss           0x008003d7        0x1 ./../../../../BitCloud/lib/libHAL_RcbAtm128rfa1_Atmega128rfa1_8Mhz_Gcc.a(eeprom.o)
                0x008003d7                halEepromState
 .bss           0x008003d8        0x2 ./../../../../BitCloud/lib/libHAL_RcbAtm128rfa1_Atmega128rfa1_8Mhz_Gcc.a(adc.o)
                0x008003d8                adcDesc
 .bss           0x008003da        0x9 ./../../../../BitCloud/lib/libHAL_RcbAtm128rfa1_Atmega128rfa1_8Mhz_Gcc.a(halSleepTimerClock.o)
                0x008003da                halSleepTimerOvfw
 .bss           0x008003e3        0x2 ./../../../../BitCloud/lib/libHAL_RcbAtm128rfa1_Atmega128rfa1_8Mhz_Gcc.a(halSecurityModule.o)
 .bss           0x008003e5        0x6 ./../../../../BitCloud/lib/libHAL_RcbAtm128rfa1_Atmega128rfa1_8Mhz_Gcc.a(halAppClock.o)
                0x008003e5                halAppTimeOvfw
 .bss           0x008003eb       0x10 ./../../../../BitCloud/lib/libHAL_RcbAtm128rfa1_Atmega128rfa1_8Mhz_Gcc.a(halIrq.o)
                0x008003eb                IrqCallbackList
 .bss           0x008003fb        0x4 ./../../../../BitCloud/lib/libHAL_RcbAtm128rfa1_Atmega128rfa1_8Mhz_Gcc.a(halSleep.o)
 .bss           0x008003ff        0x2 ./../../../../BitCloud/lib/libHAL_RcbAtm128rfa1_Atmega128rfa1_8Mhz_Gcc.a(halSpi.o)
                0x008003ff                halRealSpiDescripPointer
 .bss           0x00800401       0x10 ./../../../../BitCloud/lib/libHAL_RcbAtm128rfa1_Atmega128rfa1_8Mhz_Gcc.a(sleep.o)
                0x00800401                halSleepControl
 .bss           0x00800411        0x1 ./../../../../BitCloud/lib/libHAL_RcbAtm128rfa1_Atmega128rfa1_8Mhz_Gcc.a(halClkCtrl.o)
 .bss           0x00800412       0x36 ./../../../../BitCloud/lib/libBc_Router_Atmega128rfa1_Atmega128rfa1_Gcc.a(aps.o)
                0x00800412                apsState
 .bss           0x00800448        0x1 ./../../../../BitCloud/lib/libBc_Router_Atmega128rfa1_Atmega128rfa1_Gcc.a(phyStateMachine.o)
                0x00800448                __wasRequest
 .bss           0x00800449        0x6 ./../../../../BitCloud/lib/libBc_Router_Atmega128rfa1_Atmega128rfa1_Gcc.a(sysEvents.o)
 .bss           0x0080044f        0x2 ./../../../../BitCloud/lib/libBc_Router_Atmega128rfa1_Atmega128rfa1_Gcc.a(taskManager.o)
                0x0080044f                SYS_taskFlag
 .bss           0x00800451        0x4 ./../../../../BitCloud/lib/libBc_Router_Atmega128rfa1_Atmega128rfa1_Gcc.a(machwdManager.o)
                0x00800451                __wasPostTask
 .bss           0x00800455        0x1 ./../../../../BitCloud/lib/libBc_Router_Atmega128rfa1_Atmega128rfa1_Gcc.a(machwdRegAccessHandler.o)
 .bss           0x00800456        0x1 ./../../../../BitCloud/lib/libBc_Router_Atmega128rfa1_Atmega128rfa1_Gcc.a(machwdRndHandler.o)
 .bss           0x00800457        0x4 ./../../../../BitCloud/lib/libBc_Router_Atmega128rfa1_Atmega128rfa1_Gcc.a(machwdSetHandler.o)
 .bss           0x0080045b        0x1 ./../../../../BitCloud/lib/libBc_Router_Atmega128rfa1_Atmega128rfa1_Gcc.a(machwdTrxHandler.o)
 .bss           0x0080045c        0x2 ./../../../../BitCloud/lib/libBc_Router_Atmega128rfa1_Atmega128rfa1_Gcc.a(machwdTxFrameHandler.o)
 .bss           0x0080045e        0x1 ./../../../../BitCloud/lib/libBc_Router_Atmega128rfa1_Atmega128rfa1_Gcc.a(machwiScanHandler.o)
 .bss           0x0080045f        0x1 ./../../../../BitCloud/lib/libBc_Router_Atmega128rfa1_Atmega128rfa1_Gcc.a(phyRfIrqDispatcher.o)
 .bss           0x00800460        0x1 ./../../../../BitCloud/lib/libBc_Router_Atmega128rfa1_Atmega128rfa1_Gcc.a(phySet.o)
 .bss           0x00800461        0x1 ./../../../../BitCloud/lib/libBc_Router_Atmega128rfa1_Atmega128rfa1_Gcc.a(machwdCalibHandler.o)
 .bss           0x00800462        0x1 ./../../../../BitCloud/lib/libBc_Router_Atmega128rfa1_Atmega128rfa1_Gcc.a(machwdEdHandler.o)
 .bss           0x00800463        0x4 ./../../../../BitCloud/lib/libBc_Router_Atmega128rfa1_Atmega128rfa1_Gcc.a(machwdHandlerCtrl.o)
                0x00800463                __handlers
                0x00800465                __macRequest
 .bss           0x00800467       0x20 ./../../../../BitCloud/lib/libBc_Router_Atmega128rfa1_Atmega128rfa1_Gcc.a(machwiTransactionHash.o)
 .bss           0x00800487        0x8 ./../../../../BitCloud/lib/libHAL_RcbAtm128rfa1_Atmega128rfa1_8Mhz_Gcc.a(halUid.o)
 *(COMMON)
 COMMON         0x0080048f      0x208 Router_Rcb_Atmega128rfa1_8Mhz_Gcc/Obj/blink.o
                0x0080048f                blink
                0x00800491                rxBuffer
                0x00800685                dataBuffers
 COMMON         0x00800697       0x2e Router_Rcb_Atmega128rfa1_8Mhz_Gcc/Obj/pdsMem.o
                0x00800697                pdsMem
 COMMON         0x008006c5        0x6 Router_Rcb_Atmega128rfa1_8Mhz_Gcc/Obj/fakeBSP.o
                0x008006c5                readBatteryDataCallback
                0x008006c7                readTemperatureDataCallback
                0x008006c9                readLightDataCallback
 COMMON         0x008006cb      0x96b Router_Rcb_Atmega128rfa1_8Mhz_Gcc/Obj/csMem.o
                0x008006cb                stackBuffers
                0x00800f0b                csAIB
                0x00800f0d                csZIB
                0x00800f3c                csPIB
                0x00800f74                csSIB
                0x00800fb0                csNIB
 COMMON         0x00801036        0x2 ./../../../../BitCloud/lib/libHAL_RcbAtm128rfa1_Atmega128rfa1_8Mhz_Gcc.a(halTaskManager.o)
                0x00801036                extHandler
 COMMON         0x00801038        0x8 ./../../../../BitCloud/lib/libHAL_RcbAtm128rfa1_Atmega128rfa1_8Mhz_Gcc.a(eeprom.o)
                0x00801038                halEepromParams
                0x0080103e                halEepromDone
 COMMON         0x00801040        0xa ./../../../../BitCloud/lib/libHAL_RcbAtm128rfa1_Atmega128rfa1_8Mhz_Gcc.a(halSpi.o)
                0x00801040                rxSlaveBuffer
 COMMON         0x0080104a       0xbc ./../../../../BitCloud/lib/libBc_Router_Atmega128rfa1_Atmega128rfa1_Gcc.a(aps.o)
                0x0080104a                apsMem
 COMMON         0x00801106      0x158 ./../../../../BitCloud/lib/libBc_Router_Atmega128rfa1_Atmega128rfa1_Gcc.a(nwk.o)
                0x00801106                nwkMem
 COMMON         0x0080125e      0x3a7 ./../../../../BitCloud/lib/libBc_Router_Atmega128rfa1_Atmega128rfa1_Gcc.a(zdo.o)
                0x0080125e                zdoMem
 COMMON         0x00801605       0x88 ./../../../../BitCloud/lib/libBc_Router_Atmega128rfa1_Atmega128rfa1_Gcc.a(macMem.o)
                0x00801605                macMem
 COMMON         0x0080168d        0x1 ./../../../../BitCloud/lib/libBc_Router_Atmega128rfa1_Atmega128rfa1_Gcc.a(machwdTrxCtrl.o)
                0x0080168d                __sourceHandler
 COMMON         0x0080168e        0x1 ./../../../../BitCloud/lib/libBc_Router_Atmega128rfa1_Atmega128rfa1_Gcc.a(machwdEdHandler.o)
                0x0080168e                __energyLevel
 COMMON         0x0080168f       0x21 ./../../../../BitCloud/lib/libBc_Router_Atmega128rfa1_Atmega128rfa1_Gcc.a(machwdFrameRoutine.o)
                0x0080168f                txBuffer
 COMMON         0x008016b0        0x5 ./../../../../BitCloud/lib/libHAL_RcbAtm128rfa1_Atmega128rfa1_8Mhz_Gcc.a(halMacIsr.o)
                0x008016b0                __rtimer
                0x008016b5                PROVIDE (__bss_end, .)

.noinit         0x008016b5        0x1 load address 0x00017b71
 *(.noinit*)
 .noinit        0x008016b5        0x1 ./../../../../BitCloud/lib/WdtInitatmega128rfa1_Gcc.o
                0x008016b5                halResetReason
                0x008016b6                PROVIDE (__heap_start, .)
                0x008016b6                __stack_start = .
                0x000166bc                __data_load_start = LOADADDR (.data)
                0x000167d6                __data_load_end = (__data_load_start + SIZEOF (.data))

.eeprom         0x00810000     0x1000
 FILL mask 0xff
                0x00810000        0x1 BYTE 0xff
                0x00811000                . = ((. + 0x1000) - 0x1)
 *fill*         0x00810001      0xfff ff

/DISCARD/
 *(.init9)
 *(.fini*)
Address of section .data set to 0x800200
LOAD Router_Rcb_Atmega128rfa1_8Mhz_Gcc/Obj/blink.o
LOAD Router_Rcb_Atmega128rfa1_8Mhz_Gcc/Obj/pdsMem.o
LOAD Router_Rcb_Atmega128rfa1_8Mhz_Gcc/Obj/pdsWriteData.o
LOAD Router_Rcb_Atmega128rfa1_8Mhz_Gcc/Obj/pdsDataServer.o
LOAD Router_Rcb_Atmega128rfa1_8Mhz_Gcc/Obj/pdsInit.o
LOAD Router_Rcb_Atmega128rfa1_8Mhz_Gcc/Obj/pdsTimer.o
LOAD Router_Rcb_Atmega128rfa1_8Mhz_Gcc/Obj/pdsEvents.o
LOAD Router_Rcb_Atmega128rfa1_8Mhz_Gcc/Obj/pdsMemAccess.o
LOAD Router_Rcb_Atmega128rfa1_8Mhz_Gcc/Obj/pdsCrcService.o
LOAD Router_Rcb_Atmega128rfa1_8Mhz_Gcc/Obj/usbFifoVirtualUsart.o
LOAD Router_Rcb_Atmega128rfa1_8Mhz_Gcc/Obj/usbFifoFT245RL.o
LOAD Router_Rcb_Atmega128rfa1_8Mhz_Gcc/Obj/leds.o
LOAD Router_Rcb_Atmega128rfa1_8Mhz_Gcc/Obj/bspTaskManager.o
LOAD Router_Rcb_Atmega128rfa1_8Mhz_Gcc/Obj/buttons.o
LOAD Router_Rcb_Atmega128rfa1_8Mhz_Gcc/Obj/fakeBSP.o
LOAD Router_Rcb_Atmega128rfa1_8Mhz_Gcc/Obj/csPersistentMem.o
LOAD Router_Rcb_Atmega128rfa1_8Mhz_Gcc/Obj/csMem.o
LOAD Router_Rcb_Atmega128rfa1_8Mhz_Gcc/Obj/configServer.o
START GROUP
LOAD ./../../../../BitCloud/lib/libHAL_RcbAtm128rfa1_Atmega128rfa1_8Mhz_Gcc.a
LOAD ./../../../../BitCloud/lib/libBc_Router_Atmega128rfa1_Atmega128rfa1_Gcc.a
LOAD ./../../../../BitCloud/lib/WdtInitatmega128rfa1_Gcc.o
END GROUP
LOAD d:/program files/atmel/avr studio 5.1/extensions/atmel/avrgcc/3.3.1.27/avrtoolchain/bin/../lib/gcc/avr/4.5.1/avr51\libgcc.a
LOAD d:/program files/atmel/avr studio 5.1/extensions/atmel/avrgcc/3.3.1.27/avrtoolchain/bin/../lib/gcc/avr/4.5.1/../../../../avr/lib/avr51\libc.a
LOAD d:/program files/atmel/avr studio 5.1/extensions/atmel/avrgcc/3.3.1.27/avrtoolchain/bin/../lib/gcc/avr/4.5.1/avr51\libgcc.a
OUTPUT(Router_Rcb_Atmega128rfa1_8Mhz_Gcc/Exe/Blink.elf elf32-avr)
LOAD linker stubs

.stab           0x00000000      0xa44
 .stab          0x00000000      0x6cc d:/program files/atmel/avr studio 5.1/extensions/atmel/avrgcc/3.3.1.27/avrtoolchain/bin/../lib/gcc/avr/4.5.1/../../../../avr/lib/avr51/crtm128rfa1.o
 .stab          0x000006cc       0x84 d:/program files/atmel/avr studio 5.1/extensions/atmel/avrgcc/3.3.1.27/avrtoolchain/bin/../lib/gcc/avr/4.5.1/../../../../avr/lib/avr51\libc.a(memcpy_P.o)
                                 0x90 (size before relaxing)
 .stab          0x00000750       0xb4 d:/program files/atmel/avr studio 5.1/extensions/atmel/avrgcc/3.3.1.27/avrtoolchain/bin/../lib/gcc/avr/4.5.1/../../../../avr/lib/avr51\libc.a(memcmp.o)
                                 0xc0 (size before relaxing)
 .stab          0x00000804       0x84 d:/program files/atmel/avr studio 5.1/extensions/atmel/avrgcc/3.3.1.27/avrtoolchain/bin/../lib/gcc/avr/4.5.1/../../../../avr/lib/avr51\libc.a(memcpy.o)
                                 0x90 (size before relaxing)
 .stab          0x00000888       0xe4 d:/program files/atmel/avr studio 5.1/extensions/atmel/avrgcc/3.3.1.27/avrtoolchain/bin/../lib/gcc/avr/4.5.1/../../../../avr/lib/avr51\libc.a(memmove.o)
                                 0xf0 (size before relaxing)
 .stab          0x0000096c       0x6c d:/program files/atmel/avr studio 5.1/extensions/atmel/avrgcc/3.3.1.27/avrtoolchain/bin/../lib/gcc/avr/4.5.1/../../../../avr/lib/avr51\libc.a(memset.o)
                                 0x78 (size before relaxing)
 .stab          0x000009d8       0x6c d:/program files/atmel/avr studio 5.1/extensions/atmel/avrgcc/3.3.1.27/avrtoolchain/bin/../lib/gcc/avr/4.5.1/../../../../avr/lib/avr51\libc.a(strcpy.o)
                                 0x78 (size before relaxing)

.stabstr        0x00000000      0x323
 .stabstr       0x00000000      0x323 d:/program files/atmel/avr studio 5.1/extensions/atmel/avrgcc/3.3.1.27/avrtoolchain/bin/../lib/gcc/avr/4.5.1/../../../../avr/lib/avr51/crtm128rfa1.o

.debug_abbrev   0x00000000     0x216b
 .debug_abbrev  0x00000000      0x3b9 Router_Rcb_Atmega128rfa1_8Mhz_Gcc/Obj/blink.o
 .debug_abbrev  0x000003b9       0xe0 Router_Rcb_Atmega128rfa1_8Mhz_Gcc/Obj/pdsMem.o
 .debug_abbrev  0x00000499      0x222 Router_Rcb_Atmega128rfa1_8Mhz_Gcc/Obj/pdsWriteData.o
 .debug_abbrev  0x000006bb      0x1dd Router_Rcb_Atmega128rfa1_8Mhz_Gcc/Obj/pdsDataServer.o
 .debug_abbrev  0x00000898      0x179 Router_Rcb_Atmega128rfa1_8Mhz_Gcc/Obj/pdsInit.o
 .debug_abbrev  0x00000a11      0x130 Router_Rcb_Atmega128rfa1_8Mhz_Gcc/Obj/pdsTimer.o
 .debug_abbrev  0x00000b41      0x161 Router_Rcb_Atmega128rfa1_8Mhz_Gcc/Obj/pdsEvents.o
 .debug_abbrev  0x00000ca2      0x1d1 Router_Rcb_Atmega128rfa1_8Mhz_Gcc/Obj/pdsMemAccess.o
 .debug_abbrev  0x00000e73      0x14d Router_Rcb_Atmega128rfa1_8Mhz_Gcc/Obj/pdsCrcService.o
 .debug_abbrev  0x00000fc0      0x19c Router_Rcb_Atmega128rfa1_8Mhz_Gcc/Obj/usbFifoVirtualUsart.o
 .debug_abbrev  0x0000115c      0x283 Router_Rcb_Atmega128rfa1_8Mhz_Gcc/Obj/usbFifoFT245RL.o
 .debug_abbrev  0x000013df       0xa9 Router_Rcb_Atmega128rfa1_8Mhz_Gcc/Obj/leds.o
 .debug_abbrev  0x00001488      0x116 Router_Rcb_Atmega128rfa1_8Mhz_Gcc/Obj/bspTaskManager.o
 .debug_abbrev  0x0000159e      0x1f2 Router_Rcb_Atmega128rfa1_8Mhz_Gcc/Obj/buttons.o
 .debug_abbrev  0x00001790      0x1e7 Router_Rcb_Atmega128rfa1_8Mhz_Gcc/Obj/fakeBSP.o
 .debug_abbrev  0x00001977      0x1e0 Router_Rcb_Atmega128rfa1_8Mhz_Gcc/Obj/csPersistentMem.o
 .debug_abbrev  0x00001b57      0x1eb Router_Rcb_Atmega128rfa1_8Mhz_Gcc/Obj/csMem.o
 .debug_abbrev  0x00001d42      0x26c Router_Rcb_Atmega128rfa1_8Mhz_Gcc/Obj/configServer.o
 .debug_abbrev  0x00001fae       0xf0 d:/program files/atmel/avr studio 5.1/extensions/atmel/avrgcc/3.3.1.27/avrtoolchain/bin/../lib/gcc/avr/4.5.1/avr51\libgcc.a(_ashldi3.o)
 .debug_abbrev  0x0000209e       0xcd d:/program files/atmel/avr studio 5.1/extensions/atmel/avrgcc/3.3.1.27/avrtoolchain/bin/../lib/gcc/avr/4.5.1/../../../../avr/lib/avr51\libc.a(rand.o)

.debug_info     0x00000000    0x123cb
 .debug_info    0x00000000     0x1e87 Router_Rcb_Atmega128rfa1_8Mhz_Gcc/Obj/blink.o
 .debug_info    0x00001e87      0x4e1 Router_Rcb_Atmega128rfa1_8Mhz_Gcc/Obj/pdsMem.o
 .debug_info    0x00002368      0x98c Router_Rcb_Atmega128rfa1_8Mhz_Gcc/Obj/pdsWriteData.o
 .debug_info    0x00002cf4      0xbe4 Router_Rcb_Atmega128rfa1_8Mhz_Gcc/Obj/pdsDataServer.o
 .debug_info    0x000038d8      0x6ee Router_Rcb_Atmega128rfa1_8Mhz_Gcc/Obj/pdsInit.o
 .debug_info    0x00003fc6      0x57e Router_Rcb_Atmega128rfa1_8Mhz_Gcc/Obj/pdsTimer.o
 .debug_info    0x00004544      0x77a Router_Rcb_Atmega128rfa1_8Mhz_Gcc/Obj/pdsEvents.o
 .debug_info    0x00004cbe      0x88d Router_Rcb_Atmega128rfa1_8Mhz_Gcc/Obj/pdsMemAccess.o
 .debug_info    0x0000554b      0x733 Router_Rcb_Atmega128rfa1_8Mhz_Gcc/Obj/pdsCrcService.o
 .debug_info    0x00005c7e      0x850 Router_Rcb_Atmega128rfa1_8Mhz_Gcc/Obj/usbFifoVirtualUsart.o
 .debug_info    0x000064ce      0xa19 Router_Rcb_Atmega128rfa1_8Mhz_Gcc/Obj/usbFifoFT245RL.o
 .debug_info    0x00006ee7      0x223 Router_Rcb_Atmega128rfa1_8Mhz_Gcc/Obj/leds.o
 .debug_info    0x0000710a      0x237 Router_Rcb_Atmega128rfa1_8Mhz_Gcc/Obj/bspTaskManager.o
 .debug_info    0x00007341      0x546 Router_Rcb_Atmega128rfa1_8Mhz_Gcc/Obj/buttons.o
 .debug_info    0x00007887      0x5ee Router_Rcb_Atmega128rfa1_8Mhz_Gcc/Obj/fakeBSP.o
 .debug_info    0x00007e75     0x366a Router_Rcb_Atmega128rfa1_8Mhz_Gcc/Obj/csPersistentMem.o
 .debug_info    0x0000b4df     0x3585 Router_Rcb_Atmega128rfa1_8Mhz_Gcc/Obj/csMem.o
 .debug_info    0x0000ea64     0x36c3 Router_Rcb_Atmega128rfa1_8Mhz_Gcc/Obj/configServer.o
 .debug_info    0x00012127      0x184 d:/program files/atmel/avr studio 5.1/extensions/atmel/avrgcc/3.3.1.27/avrtoolchain/bin/../lib/gcc/avr/4.5.1/avr51\libgcc.a(_ashldi3.o)
 .debug_info    0x000122ab      0x120 d:/program files/atmel/avr studio 5.1/extensions/atmel/avrgcc/3.3.1.27/avrtoolchain/bin/../lib/gcc/avr/4.5.1/../../../../avr/lib/avr51\libc.a(rand.o)

.debug_line     0x00000000     0x5f91
 .debug_line    0x00000000      0x95b Router_Rcb_Atmega128rfa1_8Mhz_Gcc/Obj/blink.o
 .debug_line    0x0000095b      0x283 Router_Rcb_Atmega128rfa1_8Mhz_Gcc/Obj/pdsMem.o
 .debug_line    0x00000bde      0x676 Router_Rcb_Atmega128rfa1_8Mhz_Gcc/Obj/pdsWriteData.o
 .debug_line    0x00001254      0x710 Router_Rcb_Atmega128rfa1_8Mhz_Gcc/Obj/pdsDataServer.o
 .debug_line    0x00001964      0x3d8 Router_Rcb_Atmega128rfa1_8Mhz_Gcc/Obj/pdsInit.o
 .debug_line    0x00001d3c      0x38f Router_Rcb_Atmega128rfa1_8Mhz_Gcc/Obj/pdsTimer.o
 .debug_line    0x000020cb      0x3c5 Router_Rcb_Atmega128rfa1_8Mhz_Gcc/Obj/pdsEvents.o
 .debug_line    0x00002490      0x577 Router_Rcb_Atmega128rfa1_8Mhz_Gcc/Obj/pdsMemAccess.o
 .debug_line    0x00002a07      0x3e8 Router_Rcb_Atmega128rfa1_8Mhz_Gcc/Obj/pdsCrcService.o
 .debug_line    0x00002def      0x569 Router_Rcb_Atmega128rfa1_8Mhz_Gcc/Obj/usbFifoVirtualUsart.o
 .debug_line    0x00003358      0x612 Router_Rcb_Atmega128rfa1_8Mhz_Gcc/Obj/usbFifoFT245RL.o
 .debug_line    0x0000396a      0x2bd Router_Rcb_Atmega128rfa1_8Mhz_Gcc/Obj/leds.o
 .debug_line    0x00003c27      0x296 Router_Rcb_Atmega128rfa1_8Mhz_Gcc/Obj/bspTaskManager.o
 .debug_line    0x00003ebd      0x48a Router_Rcb_Atmega128rfa1_8Mhz_Gcc/Obj/buttons.o
 .debug_line    0x00004347      0x4c9 Router_Rcb_Atmega128rfa1_8Mhz_Gcc/Obj/fakeBSP.o
 .debug_line    0x00004810      0x65a Router_Rcb_Atmega128rfa1_8Mhz_Gcc/Obj/csPersistentMem.o
 .debug_line    0x00004e6a      0x670 Router_Rcb_Atmega128rfa1_8Mhz_Gcc/Obj/csMem.o
 .debug_line    0x000054da      0x84f Router_Rcb_Atmega128rfa1_8Mhz_Gcc/Obj/configServer.o
 .debug_line    0x00005d29      0x10c d:/program files/atmel/avr studio 5.1/extensions/atmel/avrgcc/3.3.1.27/avrtoolchain/bin/../lib/gcc/avr/4.5.1/avr51\libgcc.a(_ashldi3.o)
 .debug_line    0x00005e35      0x15c d:/program files/atmel/avr studio 5.1/extensions/atmel/avrgcc/3.3.1.27/avrtoolchain/bin/../lib/gcc/avr/4.5.1/../../../../avr/lib/avr51\libc.a(rand.o)

.debug_frame    0x00000000      0x7b0
 .debug_frame   0x00000000       0xf0 Router_Rcb_Atmega128rfa1_8Mhz_Gcc/Obj/blink.o
 .debug_frame   0x000000f0       0x90 Router_Rcb_Atmega128rfa1_8Mhz_Gcc/Obj/pdsWriteData.o
 .debug_frame   0x00000180       0xf0 Router_Rcb_Atmega128rfa1_8Mhz_Gcc/Obj/pdsDataServer.o
 .debug_frame   0x00000270       0x20 Router_Rcb_Atmega128rfa1_8Mhz_Gcc/Obj/pdsInit.o
 .debug_frame   0x00000290       0x60 Router_Rcb_Atmega128rfa1_8Mhz_Gcc/Obj/pdsTimer.o
 .debug_frame   0x000002f0       0x30 Router_Rcb_Atmega128rfa1_8Mhz_Gcc/Obj/pdsEvents.o
 .debug_frame   0x00000320       0x70 Router_Rcb_Atmega128rfa1_8Mhz_Gcc/Obj/pdsMemAccess.o
 .debug_frame   0x00000390       0x40 Router_Rcb_Atmega128rfa1_8Mhz_Gcc/Obj/pdsCrcService.o
 .debug_frame   0x000003d0       0x60 Router_Rcb_Atmega128rfa1_8Mhz_Gcc/Obj/usbFifoVirtualUsart.o
 .debug_frame   0x00000430       0x90 Router_Rcb_Atmega128rfa1_8Mhz_Gcc/Obj/usbFifoFT245RL.o
 .debug_frame   0x000004c0       0x60 Router_Rcb_Atmega128rfa1_8Mhz_Gcc/Obj/leds.o
 .debug_frame   0x00000520       0x20 Router_Rcb_Atmega128rfa1_8Mhz_Gcc/Obj/bspTaskManager.o
 .debug_frame   0x00000540       0x60 Router_Rcb_Atmega128rfa1_8Mhz_Gcc/Obj/buttons.o
 .debug_frame   0x000005a0      0x110 Router_Rcb_Atmega128rfa1_8Mhz_Gcc/Obj/fakeBSP.o
 .debug_frame   0x000006b0       0x20 Router_Rcb_Atmega128rfa1_8Mhz_Gcc/Obj/csMem.o
 .debug_frame   0x000006d0       0x70 Router_Rcb_Atmega128rfa1_8Mhz_Gcc/Obj/configServer.o
 .debug_frame   0x00000740       0x20 d:/program files/atmel/avr studio 5.1/extensions/atmel/avrgcc/3.3.1.27/avrtoolchain/bin/../lib/gcc/avr/4.5.1/avr51\libgcc.a(_ashldi3.o)
 .debug_frame   0x00000760       0x50 d:/program files/atmel/avr studio 5.1/extensions/atmel/avrgcc/3.3.1.27/avrtoolchain/bin/../lib/gcc/avr/4.5.1/../../../../avr/lib/avr51\libc.a(rand.o)

.debug_loc      0x00000000     0x18ba
 .debug_loc     0x00000000      0x218 Router_Rcb_Atmega128rfa1_8Mhz_Gcc/Obj/blink.o
 .debug_loc     0x00000218      0x206 Router_Rcb_Atmega128rfa1_8Mhz_Gcc/Obj/pdsWriteData.o
 .debug_loc     0x0000041e      0x299 Router_Rcb_Atmega128rfa1_8Mhz_Gcc/Obj/pdsDataServer.o
 .debug_loc     0x000006b7      0x112 Router_Rcb_Atmega128rfa1_8Mhz_Gcc/Obj/pdsInit.o
 .debug_loc     0x000007c9       0x69 Router_Rcb_Atmega128rfa1_8Mhz_Gcc/Obj/pdsTimer.o
 .debug_loc     0x00000832       0x76 Router_Rcb_Atmega128rfa1_8Mhz_Gcc/Obj/pdsEvents.o
 .debug_loc     0x000008a8      0x36d Router_Rcb_Atmega128rfa1_8Mhz_Gcc/Obj/pdsMemAccess.o
 .debug_loc     0x00000c15      0x161 Router_Rcb_Atmega128rfa1_8Mhz_Gcc/Obj/pdsCrcService.o
 .debug_loc     0x00000d76      0x469 Router_Rcb_Atmega128rfa1_8Mhz_Gcc/Obj/usbFifoVirtualUsart.o
 .debug_loc     0x000011df      0x21f Router_Rcb_Atmega128rfa1_8Mhz_Gcc/Obj/usbFifoFT245RL.o
 .debug_loc     0x000013fe       0x70 Router_Rcb_Atmega128rfa1_8Mhz_Gcc/Obj/leds.o
 .debug_loc     0x0000146e       0x3c Router_Rcb_Atmega128rfa1_8Mhz_Gcc/Obj/bspTaskManager.o
 .debug_loc     0x000014aa       0xec Router_Rcb_Atmega128rfa1_8Mhz_Gcc/Obj/buttons.o
 .debug_loc     0x00001596       0x8d Router_Rcb_Atmega128rfa1_8Mhz_Gcc/Obj/fakeBSP.o
 .debug_loc     0x00001623      0x116 Router_Rcb_Atmega128rfa1_8Mhz_Gcc/Obj/configServer.o
 .debug_loc     0x00001739       0x6d d:/program files/atmel/avr studio 5.1/extensions/atmel/avrgcc/3.3.1.27/avrtoolchain/bin/../lib/gcc/avr/4.5.1/avr51\libgcc.a(_ashldi3.o)
 .debug_loc     0x000017a6      0x114 d:/program files/atmel/avr studio 5.1/extensions/atmel/avrgcc/3.3.1.27/avrtoolchain/bin/../lib/gcc/avr/4.5.1/../../../../avr/lib/avr51\libc.a(rand.o)

.debug_pubnames
                0x00000000      0xbeb
 .debug_pubnames
                0x00000000       0xfc Router_Rcb_Atmega128rfa1_8Mhz_Gcc/Obj/blink.o
 .debug_pubnames
                0x000000fc       0x1d Router_Rcb_Atmega128rfa1_8Mhz_Gcc/Obj/pdsMem.o
 .debug_pubnames
                0x00000119       0xab Router_Rcb_Atmega128rfa1_8Mhz_Gcc/Obj/pdsWriteData.o
 .debug_pubnames
                0x000001c4       0xfb Router_Rcb_Atmega128rfa1_8Mhz_Gcc/Obj/pdsDataServer.o
 .debug_pubnames
                0x000002bf       0x1f Router_Rcb_Atmega128rfa1_8Mhz_Gcc/Obj/pdsInit.o
 .debug_pubnames
                0x000002de       0x51 Router_Rcb_Atmega128rfa1_8Mhz_Gcc/Obj/pdsTimer.o
 .debug_pubnames
                0x0000032f       0x28 Router_Rcb_Atmega128rfa1_8Mhz_Gcc/Obj/pdsEvents.o
 .debug_pubnames
                0x00000357       0xa9 Router_Rcb_Atmega128rfa1_8Mhz_Gcc/Obj/pdsMemAccess.o
 .debug_pubnames
                0x00000400       0x52 Router_Rcb_Atmega128rfa1_8Mhz_Gcc/Obj/pdsCrcService.o
 .debug_pubnames
                0x00000452       0x9a Router_Rcb_Atmega128rfa1_8Mhz_Gcc/Obj/usbFifoVirtualUsart.o
 .debug_pubnames
                0x000004ec       0x47 Router_Rcb_Atmega128rfa1_8Mhz_Gcc/Obj/usbFifoFT245RL.o
 .debug_pubnames
                0x00000533       0x64 Router_Rcb_Atmega128rfa1_8Mhz_Gcc/Obj/leds.o
 .debug_pubnames
                0x00000597       0x37 Router_Rcb_Atmega128rfa1_8Mhz_Gcc/Obj/bspTaskManager.o
 .debug_pubnames
                0x000005ce       0x86 Router_Rcb_Atmega128rfa1_8Mhz_Gcc/Obj/buttons.o
 .debug_pubnames
                0x00000654      0x203 Router_Rcb_Atmega128rfa1_8Mhz_Gcc/Obj/fakeBSP.o
 .debug_pubnames
                0x00000857      0x209 Router_Rcb_Atmega128rfa1_8Mhz_Gcc/Obj/csPersistentMem.o
 .debug_pubnames
                0x00000a60       0xca Router_Rcb_Atmega128rfa1_8Mhz_Gcc/Obj/csMem.o
 .debug_pubnames
                0x00000b2a       0x71 Router_Rcb_Atmega128rfa1_8Mhz_Gcc/Obj/configServer.o
 .debug_pubnames
                0x00000b9b       0x20 d:/program files/atmel/avr studio 5.1/extensions/atmel/avrgcc/3.3.1.27/avrtoolchain/bin/../lib/gcc/avr/4.5.1/avr51\libgcc.a(_ashldi3.o)
 .debug_pubnames
                0x00000bbb       0x30 d:/program files/atmel/avr studio 5.1/extensions/atmel/avrgcc/3.3.1.27/avrtoolchain/bin/../lib/gcc/avr/4.5.1/../../../../avr/lib/avr51\libc.a(rand.o)

.debug_pubtypes
                0x00000000     0x4323
 .debug_pubtypes
                0x00000000      0x449 Router_Rcb_Atmega128rfa1_8Mhz_Gcc/Obj/blink.o
 .debug_pubtypes
                0x00000449      0x16b Router_Rcb_Atmega128rfa1_8Mhz_Gcc/Obj/pdsMem.o
 .debug_pubtypes
                0x000005b4      0x210 Router_Rcb_Atmega128rfa1_8Mhz_Gcc/Obj/pdsWriteData.o
 .debug_pubtypes
                0x000007c4      0x255 Router_Rcb_Atmega128rfa1_8Mhz_Gcc/Obj/pdsDataServer.o
 .debug_pubtypes
                0x00000a19      0x1b5 Router_Rcb_Atmega128rfa1_8Mhz_Gcc/Obj/pdsInit.o
 .debug_pubtypes
                0x00000bce      0x16b Router_Rcb_Atmega128rfa1_8Mhz_Gcc/Obj/pdsTimer.o
 .debug_pubtypes
                0x00000d39      0x230 Router_Rcb_Atmega128rfa1_8Mhz_Gcc/Obj/pdsEvents.o
 .debug_pubtypes
                0x00000f69      0x1ec Router_Rcb_Atmega128rfa1_8Mhz_Gcc/Obj/pdsMemAccess.o
 .debug_pubtypes
                0x00001155      0x210 Router_Rcb_Atmega128rfa1_8Mhz_Gcc/Obj/pdsCrcService.o
 .debug_pubtypes
                0x00001365       0xfc Router_Rcb_Atmega128rfa1_8Mhz_Gcc/Obj/usbFifoVirtualUsart.o
 .debug_pubtypes
                0x00001461      0x14c Router_Rcb_Atmega128rfa1_8Mhz_Gcc/Obj/usbFifoFT245RL.o
 .debug_pubtypes
                0x000015ad       0x2b Router_Rcb_Atmega128rfa1_8Mhz_Gcc/Obj/leds.o
 .debug_pubtypes
                0x000015d8       0x49 Router_Rcb_Atmega128rfa1_8Mhz_Gcc/Obj/bspTaskManager.o
 .debug_pubtypes
                0x00001621       0x89 Router_Rcb_Atmega128rfa1_8Mhz_Gcc/Obj/buttons.o
 .debug_pubtypes
                0x000016aa       0x7a Router_Rcb_Atmega128rfa1_8Mhz_Gcc/Obj/fakeBSP.o
 .debug_pubtypes
                0x00001724      0xe7c Router_Rcb_Atmega128rfa1_8Mhz_Gcc/Obj/csPersistentMem.o
 .debug_pubtypes
                0x000025a0      0xea9 Router_Rcb_Atmega128rfa1_8Mhz_Gcc/Obj/csMem.o
 .debug_pubtypes
                0x00003449      0xe66 Router_Rcb_Atmega128rfa1_8Mhz_Gcc/Obj/configServer.o
 .debug_pubtypes
                0x000042af       0x62 d:/program files/atmel/avr studio 5.1/extensions/atmel/avrgcc/3.3.1.27/avrtoolchain/bin/../lib/gcc/avr/4.5.1/avr51\libgcc.a(_ashldi3.o)
 .debug_pubtypes
                0x00004311       0x12 d:/program files/atmel/avr studio 5.1/extensions/atmel/avrgcc/3.3.1.27/avrtoolchain/bin/../lib/gcc/avr/4.5.1/../../../../avr/lib/avr51\libc.a(rand.o)

.debug_aranges  0x00000000      0x4f8
 .debug_aranges
                0x00000000       0x88 Router_Rcb_Atmega128rfa1_8Mhz_Gcc/Obj/blink.o
 .debug_aranges
                0x00000088       0x58 Router_Rcb_Atmega128rfa1_8Mhz_Gcc/Obj/pdsWriteData.o
 .debug_aranges
                0x000000e0       0x88 Router_Rcb_Atmega128rfa1_8Mhz_Gcc/Obj/pdsDataServer.o
 .debug_aranges
                0x00000168       0x20 Router_Rcb_Atmega128rfa1_8Mhz_Gcc/Obj/pdsInit.o
 .debug_aranges
                0x00000188       0x40 Router_Rcb_Atmega128rfa1_8Mhz_Gcc/Obj/pdsTimer.o
 .debug_aranges
                0x000001c8       0x28 Router_Rcb_Atmega128rfa1_8Mhz_Gcc/Obj/pdsEvents.o
 .debug_aranges
                0x000001f0       0x48 Router_Rcb_Atmega128rfa1_8Mhz_Gcc/Obj/pdsMemAccess.o
 .debug_aranges
                0x00000238       0x30 Router_Rcb_Atmega128rfa1_8Mhz_Gcc/Obj/pdsCrcService.o
 .debug_aranges
                0x00000268       0x40 Router_Rcb_Atmega128rfa1_8Mhz_Gcc/Obj/usbFifoVirtualUsart.o
 .debug_aranges
                0x000002a8       0x58 Router_Rcb_Atmega128rfa1_8Mhz_Gcc/Obj/usbFifoFT245RL.o
 .debug_aranges
                0x00000300       0x40 Router_Rcb_Atmega128rfa1_8Mhz_Gcc/Obj/leds.o
 .debug_aranges
                0x00000340       0x20 Router_Rcb_Atmega128rfa1_8Mhz_Gcc/Obj/bspTaskManager.o
 .debug_aranges
                0x00000360       0x40 Router_Rcb_Atmega128rfa1_8Mhz_Gcc/Obj/buttons.o
 .debug_aranges
                0x000003a0       0x98 Router_Rcb_Atmega128rfa1_8Mhz_Gcc/Obj/fakeBSP.o
 .debug_aranges
                0x00000438       0x20 Router_Rcb_Atmega128rfa1_8Mhz_Gcc/Obj/csMem.o
 .debug_aranges
                0x00000458       0x48 Router_Rcb_Atmega128rfa1_8Mhz_Gcc/Obj/configServer.o
 .debug_aranges
                0x000004a0       0x20 d:/program files/atmel/avr studio 5.1/extensions/atmel/avrgcc/3.3.1.27/avrtoolchain/bin/../lib/gcc/avr/4.5.1/avr51\libgcc.a(_ashldi3.o)
 .debug_aranges
                0x000004c0       0x38 d:/program files/atmel/avr studio 5.1/extensions/atmel/avrgcc/3.3.1.27/avrtoolchain/bin/../lib/gcc/avr/4.5.1/../../../../avr/lib/avr51\libc.a(rand.o)

.debug_ranges   0x00000000      0x440
 .debug_ranges  0x00000000       0x78 Router_Rcb_Atmega128rfa1_8Mhz_Gcc/Obj/blink.o
 .debug_ranges  0x00000078       0x78 Router_Rcb_Atmega128rfa1_8Mhz_Gcc/Obj/pdsWriteData.o
 .debug_ranges  0x000000f0       0x90 Router_Rcb_Atmega128rfa1_8Mhz_Gcc/Obj/pdsDataServer.o
 .debug_ranges  0x00000180       0x10 Router_Rcb_Atmega128rfa1_8Mhz_Gcc/Obj/pdsInit.o
 .debug_ranges  0x00000190       0x30 Router_Rcb_Atmega128rfa1_8Mhz_Gcc/Obj/pdsTimer.o
 .debug_ranges  0x000001c0       0x18 Router_Rcb_Atmega128rfa1_8Mhz_Gcc/Obj/pdsEvents.o
 .debug_ranges  0x000001d8       0x68 Router_Rcb_Atmega128rfa1_8Mhz_Gcc/Obj/pdsMemAccess.o
 .debug_ranges  0x00000240       0x20 Router_Rcb_Atmega128rfa1_8Mhz_Gcc/Obj/pdsCrcService.o
 .debug_ranges  0x00000260       0x30 Router_Rcb_Atmega128rfa1_8Mhz_Gcc/Obj/usbFifoVirtualUsart.o
 .debug_ranges  0x00000290       0x48 Router_Rcb_Atmega128rfa1_8Mhz_Gcc/Obj/usbFifoFT245RL.o
 .debug_ranges  0x000002d8       0x30 Router_Rcb_Atmega128rfa1_8Mhz_Gcc/Obj/leds.o
 .debug_ranges  0x00000308       0x10 Router_Rcb_Atmega128rfa1_8Mhz_Gcc/Obj/bspTaskManager.o
 .debug_ranges  0x00000318       0x30 Router_Rcb_Atmega128rfa1_8Mhz_Gcc/Obj/buttons.o
 .debug_ranges  0x00000348       0x88 Router_Rcb_Atmega128rfa1_8Mhz_Gcc/Obj/fakeBSP.o
 .debug_ranges  0x000003d0       0x10 Router_Rcb_Atmega128rfa1_8Mhz_Gcc/Obj/csMem.o
 .debug_ranges  0x000003e0       0x38 Router_Rcb_Atmega128rfa1_8Mhz_Gcc/Obj/configServer.o
 .debug_ranges  0x00000418       0x28 d:/program files/atmel/avr studio 5.1/extensions/atmel/avrgcc/3.3.1.27/avrtoolchain/bin/../lib/gcc/avr/4.5.1/../../../../avr/lib/avr51\libc.a(rand.o)

.debug_str      0x00000000     0x6f39
 .debug_str     0x00000000     0x26ad Router_Rcb_Atmega128rfa1_8Mhz_Gcc/Obj/blink.o
                               0x2726 (size before relaxing)
 .debug_str     0x000026ad      0x6d3 Router_Rcb_Atmega128rfa1_8Mhz_Gcc/Obj/pdsMem.o
                                0x8f3 (size before relaxing)
 .debug_str     0x00002d80      0x467 Router_Rcb_Atmega128rfa1_8Mhz_Gcc/Obj/pdsWriteData.o
                                0xd4d (size before relaxing)
 .debug_str     0x000031e7      0x188 Router_Rcb_Atmega128rfa1_8Mhz_Gcc/Obj/pdsDataServer.o
                                0xd4c (size before relaxing)
 .debug_str     0x0000336f      0x106 Router_Rcb_Atmega128rfa1_8Mhz_Gcc/Obj/pdsInit.o
                                0xa1b (size before relaxing)
 .debug_str     0x00003475       0x80 Router_Rcb_Atmega128rfa1_8Mhz_Gcc/Obj/pdsTimer.o
                                0x93c (size before relaxing)
 .debug_str     0x000034f5      0x132 Router_Rcb_Atmega128rfa1_8Mhz_Gcc/Obj/pdsEvents.o
                                0xc5a (size before relaxing)
 .debug_str     0x00003627      0x13d Router_Rcb_Atmega128rfa1_8Mhz_Gcc/Obj/pdsMemAccess.o
                                0xae6 (size before relaxing)
 .debug_str     0x00003764       0x8e Router_Rcb_Atmega128rfa1_8Mhz_Gcc/Obj/pdsCrcService.o
                                0xa75 (size before relaxing)
 .debug_str     0x000037f2      0x125 Router_Rcb_Atmega128rfa1_8Mhz_Gcc/Obj/usbFifoVirtualUsart.o
                                0x6a8 (size before relaxing)
 .debug_str     0x00003917      0x2cd Router_Rcb_Atmega128rfa1_8Mhz_Gcc/Obj/usbFifoFT245RL.o
                                0x956 (size before relaxing)
 .debug_str     0x00003be4      0x10c Router_Rcb_Atmega128rfa1_8Mhz_Gcc/Obj/leds.o
                                0x215 (size before relaxing)
 .debug_str     0x00003cf0       0x8e Router_Rcb_Atmega128rfa1_8Mhz_Gcc/Obj/bspTaskManager.o
                                0x297 (size before relaxing)
 .debug_str     0x00003d7e      0x182 Router_Rcb_Atmega128rfa1_8Mhz_Gcc/Obj/buttons.o
                                0x45e (size before relaxing)
 .debug_str     0x00003f00      0x245 Router_Rcb_Atmega128rfa1_8Mhz_Gcc/Obj/fakeBSP.o
                                0x4af (size before relaxing)
 .debug_str     0x00004145     0x2820 Router_Rcb_Atmega128rfa1_8Mhz_Gcc/Obj/csPersistentMem.o
                               0x45a6 (size before relaxing)
 .debug_str     0x00006965      0x334 Router_Rcb_Atmega128rfa1_8Mhz_Gcc/Obj/csMem.o
                               0x412a (size before relaxing)
 .debug_str     0x00006c99      0x11f Router_Rcb_Atmega128rfa1_8Mhz_Gcc/Obj/configServer.o
                               0x479d (size before relaxing)
 .debug_str     0x00006db8      0x10c d:/program files/atmel/avr studio 5.1/extensions/atmel/avrgcc/3.3.1.27/avrtoolchain/bin/../lib/gcc/avr/4.5.1/avr51\libgcc.a(_ashldi3.o)
                                0x191 (size before relaxing)
 .debug_str     0x00006ec4       0x75 d:/program files/atmel/avr studio 5.1/extensions/atmel/avrgcc/3.3.1.27/avrtoolchain/bin/../lib/gcc/avr/4.5.1/../../../../avr/lib/avr51\libc.a(rand.o)
                                 0xb3 (size before relaxing)
